	.arch armv6k
	.fpu vfp
	.eabi_attribute 28, 1
	.eabi_attribute 20, 1
	.eabi_attribute 21, 1
	.eabi_attribute 23, 3
	.eabi_attribute 24, 1
	.eabi_attribute 25, 1
	.eabi_attribute 26, 1
	.eabi_attribute 30, 2
	.eabi_attribute 34, 1
	.eabi_attribute 18, 4
	.file	"Camera.c"
	.text
.Ltext0:
	.cfi_sections	.debug_frame
	.file 1 "C:/Users/Elias/CLionProjects/3DSCraft/source/rendering/Camera.c"
	.section	.text.Camera_Init,"ax",%progbits
	.align	2
	.global	Camera_Init
	.syntax unified
	.arm
	.type	Camera_Init, %function
Camera_Init:
.LVL0:
.LFB230:
	.loc 1 7 31 view -0
	.cfi_startproc
	@ args = 0, pretend = 0, frame = 0
	@ frame_needed = 0, uses_anonymous_args = 0
	.loc 1 8 2 view .LVU1
.LBB217:
.LBB218:
.LBB219:
.LBB220:
.LBB221:
	.file 2 "C:/devkitPro/libctru/include/c3d/maths.h"
	.loc 2 290 2 is_stmt 0 view .LVU2
	mov	r2, #64
.LBE221:
.LBE220:
.LBE219:
.LBE218:
.LBE217:
	.loc 1 7 31 view .LVU3
	push	{r4, lr}
	.cfi_def_cfa_offset 8
	.cfi_offset 4, -8
	.cfi_offset 14, -4
.LBB232:
.LBB229:
.LBB226:
.LBB224:
.LBB222:
	.loc 2 290 2 view .LVU4
	mov	r1, #0
.LBE222:
.LBE224:
.LBE226:
.LBE229:
.LBE232:
	.loc 1 7 31 view .LVU5
	mov	r4, r0
.LVL1:
.LBB233:
.LBI217:
	.loc 2 324 20 is_stmt 1 view .LVU6
	.loc 2 326 2 view .LVU7
.LBB230:
.LBI218:
	.loc 2 311 20 view .LVU8
.LBB227:
	.loc 2 313 2 view .LVU9
.LBB225:
.LBI220:
	.loc 2 288 20 view .LVU10
.LBB223:
	.loc 2 290 2 view .LVU11
	add	r0, r0, r2
.LVL2:
	.loc 2 290 2 is_stmt 0 view .LVU12
	bl	memset
.LVL3:
	.loc 2 290 2 view .LVU13
.LBE223:
.LBE225:
	.loc 2 314 2 is_stmt 1 view .LVU14
	.loc 2 314 14 is_stmt 0 view .LVU15
	mov	r3, #1065353216
.LBE227:
.LBE230:
.LBE233:
	.loc 1 10 11 view .LVU16
	vldr.32	s0, .L4
	.loc 1 11 12 view .LVU17
	vldr.32	s2, .L4+4
	.loc 1 11 29 view .LVU18
	vldr.32	s3, .L4+8
	.loc 1 13 2 view .LVU19
	mov	r0, r4
	.loc 1 10 11 view .LVU20
	vstr.32	s0, [r4, #392]
	.loc 1 11 12 view .LVU21
	vstr.32	s2, [r4, #384]
	.loc 1 11 29 view .LVU22
	vstr.32	s3, [r4, #388]
.LBB234:
.LBB231:
.LBB228:
	.loc 2 314 14 view .LVU23
	str	r3, [r4, #76]	@ float
	.loc 2 315 2 is_stmt 1 view .LVU24
	.loc 2 315 14 is_stmt 0 view .LVU25
	str	r3, [r4, #88]	@ float
	.loc 2 316 2 is_stmt 1 view .LVU26
	.loc 2 316 14 is_stmt 0 view .LVU27
	str	r3, [r4, #100]	@ float
	.loc 2 317 2 is_stmt 1 view .LVU28
	.loc 2 317 14 is_stmt 0 view .LVU29
	str	r3, [r4, #112]	@ float
.LVL4:
	.loc 2 317 14 view .LVU30
.LBE228:
.LBE231:
.LBE234:
	.loc 1 10 2 is_stmt 1 view .LVU31
	.loc 1 11 2 view .LVU32
	.loc 1 13 2 view .LVU33
	mov	r1, #0
	.loc 1 14 1 is_stmt 0 view .LVU34
	pop	{r4, lr}
	.cfi_restore 14
	.cfi_restore 4
	.cfi_def_cfa_offset 0
.LVL5:
	.loc 1 13 2 view .LVU35
	vldr.32	s1, .L4+12
	b	Mtx_PerspTilt
.LVL6:
.L5:
	.loc 1 13 2 view .LVU36
	.align	2
.L4:
	.word	1065749138
	.word	1045220557
	.word	1124073472
	.word	1070945621
	.cfi_endproc
.LFE230:
	.size	Camera_Init, .-Camera_Init
	.section	.text.Camera_Update,"ax",%progbits
	.align	2
	.global	Camera_Update
	.syntax unified
	.arm
	.type	Camera_Update, %function
Camera_Update:
.LVL7:
.LFB231:
	.loc 1 16 60 is_stmt 1 view -0
	.cfi_startproc
	@ args = 0, pretend = 0, frame = 72
	@ frame_needed = 0, uses_anonymous_args = 0
	.loc 1 17 2 view .LVU38
	.loc 1 16 60 is_stmt 0 view .LVU39
	push	{r4, r5, r6, lr}
	.cfi_def_cfa_offset 16
	.cfi_offset 4, -16
	.cfi_offset 5, -12
	.cfi_offset 6, -8
	.cfi_offset 14, -4
	mov	r5, r1
	.loc 1 17 17 view .LVU40
	vldr.32	s14, [r0, #392]
	.loc 1 17 89 view .LVU41
	vldr.32	s12, [r5, #24]
	.loc 1 17 81 view .LVU42
	vldr.64	d5, .L8
	.loc 1 17 89 view .LVU43
	vcvt.f64.f32	d6, s12
	.loc 1 17 17 view .LVU44
	vcvt.f64.f32	d7, s14
	.loc 1 16 60 view .LVU45
	vpush.64	{d8, d9, d10, d11, d12, d13, d14, d15}
	.cfi_def_cfa_offset 80
	.cfi_offset 80, -80
	.cfi_offset 81, -76
	.cfi_offset 82, -72
	.cfi_offset 83, -68
	.cfi_offset 84, -64
	.cfi_offset 85, -60
	.cfi_offset 86, -56
	.cfi_offset 87, -52
	.cfi_offset 88, -48
	.cfi_offset 89, -44
	.cfi_offset 90, -40
	.cfi_offset 91, -36
	.cfi_offset 92, -32
	.cfi_offset 93, -28
	.cfi_offset 94, -24
	.cfi_offset 95, -20
	.loc 1 17 23 view .LVU46
	vmla.f64	d7, d6, d5
	.loc 1 18 2 view .LVU47
	vldr.32	s17, .L8+8
	.loc 1 16 60 view .LVU48
	sub	sp, sp, #72
	.cfi_def_cfa_offset 152
	.loc 1 16 60 view .LVU49
	vmov.f32	s4, s0
	.loc 1 18 2 view .LVU50
	vmov.f32	s5, s17
	vldr.32	s3, [r0, #388]
	vldr.32	s2, [r0, #384]
	vldr.32	s1, .L8+12
	vcvt.f32.f64	s0, d7
.LVL8:
	.loc 1 18 2 view .LVU51
	mov	r1, #0
.LVL9:
	.loc 1 16 60 view .LVU52
	mov	r4, r0
.LVL10:
	.loc 1 18 2 is_stmt 1 view .LVU53
	bl	Mtx_PerspStereoTilt
.LVL11:
	.loc 1 20 2 view .LVU54
	.loc 1 21 64 is_stmt 0 view .LVU55
	vldr.32	s0, [r5, #20]
	bl	sinf
.LVL12:
	.loc 1 21 52 view .LVU56
	vldr.32	s12, .L8+16
	vldr.32	s15, [r5, #4]
	.loc 1 21 86 discriminator 1 view .LVU57
	vldr.32	s13, .L8+20
	.loc 1 21 52 view .LVU58
	vadd.f32	s15, s15, s12
.LBB347:
.LBB348:
.LBB349:
.LBB350:
.LBB351:
	.loc 2 290 2 view .LVU59
	mov	r2, #64
.LBE351:
.LBE350:
.LBE349:
.LBE348:
.LBE347:
	.loc 1 21 62 discriminator 1 view .LVU60
	vmla.f32	s15, s0, s13
	.loc 1 21 6 discriminator 1 view .LVU61
	vldr.32	s14, [r5, #28]
	.loc 1 23 2 view .LVU62
	add	r6, r4, r2
.LBB362:
.LBB359:
.LBB356:
.LBB354:
.LBB352:
	.loc 2 290 2 view .LVU63
	mov	r1, #0
	mov	r0, r6
.LBE352:
.LBE354:
.LBE356:
.LBE359:
.LBE362:
	.loc 1 21 6 discriminator 1 view .LVU64
	vadd.f32	s19, s15, s14
	.loc 1 21 6 view .LVU65
	vldr.32	s16, [r5]
.LVL13:
	.loc 1 21 6 discriminator 1 view .LVU66
	vldr.32	s18, [r5, #8]
.LVL14:
	.loc 1 23 2 is_stmt 1 view .LVU67
.LBB363:
.LBI347:
	.loc 2 324 20 view .LVU68
	.loc 2 326 2 view .LVU69
.LBB360:
.LBI348:
	.loc 2 311 20 view .LVU70
.LBB357:
	.loc 2 313 2 view .LVU71
.LBB355:
.LBI350:
	.loc 2 288 20 view .LVU72
.LBB353:
	.loc 2 290 2 view .LVU73
	bl	memset
.LVL15:
	.loc 2 290 2 is_stmt 0 view .LVU74
.LBE353:
.LBE355:
	.loc 2 314 2 is_stmt 1 view .LVU75
.LBE357:
.LBE360:
.LBE363:
	.loc 1 24 2 is_stmt 0 view .LVU76
	vldr.32	s0, [r5, #12]
	mov	r0, r6
.LBB364:
.LBB361:
.LBB358:
	.loc 2 314 14 view .LVU77
	vstr.32	s17, [r4, #76]
	.loc 2 315 2 is_stmt 1 view .LVU78
	.loc 2 315 14 is_stmt 0 view .LVU79
	vstr.32	s17, [r4, #88]
	.loc 2 316 2 is_stmt 1 view .LVU80
	.loc 2 316 14 is_stmt 0 view .LVU81
	vstr.32	s17, [r4, #100]
	.loc 2 317 2 is_stmt 1 view .LVU82
	.loc 2 317 14 is_stmt 0 view .LVU83
	vstr.32	s17, [r4, #112]
.LVL16:
	.loc 2 317 14 view .LVU84
.LBE358:
.LBE361:
.LBE364:
	.loc 1 24 2 is_stmt 1 view .LVU85
	mov	r1, #1
	vneg.f32	s0, s0
	bl	Mtx_RotateX
.LVL17:
	.loc 1 25 2 view .LVU86
	vldr.32	s0, [r5, #16]
	mov	r0, r6
	mov	r1, #1
	vneg.f32	s0, s0
	bl	Mtx_RotateY
.LVL18:
	.loc 1 26 2 view .LVU87
	vneg.f32	s2, s18
	vneg.f32	s1, s19
	vneg.f32	s0, s16
	mov	r0, r6
	mov	r1, #1
	vstr.32	s18, [sp, #4]
	vstr.32	s19, [sp]
	bl	Mtx_Translate
.LVL19:
	.loc 1 28 2 view .LVU88
	.loc 1 29 2 view .LVU89
	mov	r2, r6
	mov	r1, r4
	add	r0, sp, #8
	bl	Mtx_Multiply
.LVL20:
	.loc 1 30 2 view .LVU90
.LBB365:
.LBI365:
	.loc 2 298 20 view .LVU91
.LBB366:
	.loc 2 300 2 view .LVU92
	.loc 2 300 7 is_stmt 0 view .LVU93
	add	ip, sp, #8
.LVL21:
	.loc 2 300 7 view .LVU94
	add	lr, r4, #128
.LVL22:
	.loc 2 300 7 view .LVU95
	ldmia	ip!, {r0, r1, r2, r3}
.LVL23:
	.loc 2 300 7 view .LVU96
	stmia	lr!, {r0, r1, r2, r3}
.LVL24:
	.loc 2 300 7 view .LVU97
	ldmia	ip!, {r0, r1, r2, r3}
	stmia	lr!, {r0, r1, r2, r3}
.LVL25:
	.loc 2 300 7 view .LVU98
	ldmia	ip!, {r0, r1, r2, r3}
	stmia	lr!, {r0, r1, r2, r3}
.LVL26:
	.loc 2 300 7 view .LVU99
	ldm	ip, {r0, r1, r2, r3}
	stm	lr, {r0, r1, r2, r3}
.LVL27:
	.loc 2 300 7 view .LVU100
.LBE366:
.LBE365:
	.loc 1 32 2 is_stmt 1 view .LVU101
	.loc 1 32 11 is_stmt 0 view .LVU102
	vldr.32	s18, [sp, #8]
.LVL28:
	.loc 1 35 11 view .LVU103
	vldr.32	s14, [sp, #64]
	vldr.32	s15, [sp, #68]
	.loc 1 33 11 view .LVU104
	vldr.32	s12, [sp, #32]
	vldr.32	s13, [sp, #36]
	.loc 1 32 11 view .LVU105
	vldr.32	s0, [sp, #16]
	.loc 1 34 11 view .LVU106
	vldr.32	s4, [sp, #48]
	.loc 1 32 11 view .LVU107
	vldr.32	s1, [sp, #20]
	.loc 1 34 11 view .LVU108
	vldr.32	s5, [sp, #52]
.LBB367:
.LBB368:
	.loc 2 79 9 view .LVU109
	vsub.f32	s29, s14, s4
.LBE368:
.LBE367:
.LBB373:
.LBB374:
	.loc 2 67 9 view .LVU110
	vadd.f32	s25, s14, s0
.LBE374:
.LBE373:
.LBB379:
.LBB380:
	vadd.f32	s4, s14, s4
.LBE380:
.LBE379:
.LBB385:
.LBB386:
	vadd.f32	s21, s12, s14
.LBE386:
.LBE385:
.LBB391:
.LBB375:
	vadd.f32	s24, s1, s15
.LBE375:
.LBE391:
.LBB392:
.LBB369:
	.loc 2 79 9 view .LVU111
	vsub.f32	s28, s15, s5
.LBE369:
.LBE392:
.LBB393:
.LBB387:
	.loc 2 67 9 view .LVU112
	vadd.f32	s20, s13, s15
.LBE387:
.LBE393:
.LBB394:
.LBB381:
	vadd.f32	s5, s15, s5
.LBE381:
.LBE394:
.LBB395:
.LBB396:
	.loc 2 79 9 view .LVU113
	vsub.f32	s0, s14, s0
.LBE396:
.LBE395:
	.loc 1 32 11 view .LVU114
	vldr.32	s17, [sp, #12]
.LVL29:
	.loc 1 33 2 is_stmt 1 view .LVU115
.LBB401:
.LBB402:
	.loc 2 79 9 is_stmt 0 view .LVU116
	vsub.f32	s14, s14, s12
.LBE402:
.LBE401:
.LBB407:
.LBB397:
	vsub.f32	s1, s15, s1
.LVL30:
	.loc 2 79 9 view .LVU117
.LBE397:
.LBE407:
	.loc 1 33 11 view .LVU118
	vldr.32	s12, [sp, #28]
.LBB408:
.LBB403:
	.loc 2 79 9 view .LVU119
	vsub.f32	s15, s15, s13
.LBE403:
.LBE408:
	.loc 1 34 11 view .LVU120
	vldr.32	s3, [sp, #44]
	.loc 1 35 11 view .LVU121
	vldr.32	s13, [sp, #60]
	.loc 1 33 11 view .LVU122
	vldr.32	s11, [sp, #24]
.LBB409:
.LBB376:
	.loc 2 67 9 view .LVU123
	vadd.f32	s26, s13, s17
.LBE376:
.LBE409:
.LBB410:
.LBB370:
	.loc 2 79 9 view .LVU124
	vsub.f32	s30, s13, s3
.LBE370:
.LBE410:
.LBB411:
.LBB388:
	.loc 2 67 9 view .LVU125
	vadd.f32	s22, s12, s13
.LVL31:
	.loc 2 67 9 view .LVU126
.LBE388:
.LBE411:
	.loc 1 34 2 is_stmt 1 view .LVU127
.LBB412:
.LBB382:
	.loc 2 67 9 is_stmt 0 view .LVU128
	vadd.f32	s3, s3, s13
.LBE382:
.LBE412:
.LBB413:
.LBB398:
	.loc 2 79 9 view .LVU129
	vsub.f32	s17, s13, s17
.LVL32:
	.loc 2 79 9 view .LVU130
.LBE398:
.LBE413:
	.loc 1 34 11 view .LVU131
	vldr.32	s2, [sp, #40]
.LVL33:
	.loc 1 35 2 is_stmt 1 view .LVU132
.LBB414:
.LBB404:
	.loc 2 79 9 is_stmt 0 view .LVU133
	vsub.f32	s13, s13, s12
.LBE404:
.LBE414:
.LBB415:
.LBB416:
.LBB417:
.LBB418:
.LBB419:
.LBB420:
	.loc 2 126 28 view .LVU134
	vmul.f32	s6, s29, s29
.LBE420:
.LBE419:
.LBE418:
.LBE417:
.LBE416:
.LBE415:
	.loc 1 35 11 view .LVU135
	vldr.32	s12, [sp, #56]
.LVL34:
	.loc 1 37 2 is_stmt 1 view .LVU136
.LBB445:
.LBI367:
	.loc 2 76 24 view .LVU137
.LBB371:
	.loc 2 79 2 view .LVU138
.LBE371:
.LBE445:
.LBB446:
.LBB447:
.LBB448:
.LBB449:
.LBB450:
.LBB451:
	.loc 2 126 28 is_stmt 0 view .LVU139
	vmul.f32	s7, s25, s25
.LBE451:
.LBE450:
.LBE449:
.LBE448:
.LBE447:
.LBE446:
.LBB476:
.LBB477:
.LBB478:
.LBB479:
.LBB480:
.LBB481:
	vmul.f32	s8, s0, s0
.LBE481:
.LBE480:
.LBE479:
.LBE478:
.LBE477:
.LBE476:
.LBB506:
.LBB377:
	.loc 2 67 9 view .LVU140
	vadd.f32	s27, s12, s18
.LBE377:
.LBE506:
.LBB507:
.LBB372:
	.loc 2 79 9 view .LVU141
	vsub.f32	s31, s12, s2
.LVL35:
	.loc 2 79 9 view .LVU142
.LBE372:
.LBE507:
.LBB508:
.LBI415:
	.loc 2 145 24 is_stmt 1 view .LVU143
.LBB439:
	.loc 2 148 2 view .LVU144
.LBB434:
.LBI417:
	.loc 2 134 21 view .LVU145
.LBB429:
	.loc 2 137 2 view .LVU146
.LBB425:
.LBI419:
	.loc 2 123 21 view .LVU147
.LBB421:
	.loc 2 126 2 view .LVU148
	.loc 2 126 2 is_stmt 0 view .LVU149
.LBE421:
.LBE425:
.LBE429:
.LBE434:
.LBE439:
.LBE508:
.LBB509:
.LBB389:
	.loc 2 67 9 view .LVU150
	vadd.f32	s23, s12, s11
.LBE389:
.LBE509:
.LBB510:
.LBB383:
	vadd.f32	s2, s2, s12
.LVL36:
	.loc 2 67 9 view .LVU151
.LBE383:
.LBE510:
.LBB511:
.LBB512:
.LBB513:
.LBB514:
.LBB515:
.LBB516:
	.loc 2 126 28 view .LVU152
	vmul.f32	s9, s4, s4
.LBE516:
.LBE515:
.LBE514:
.LBE513:
.LBE512:
.LBE511:
.LBB544:
.LBB399:
	.loc 2 79 9 view .LVU153
	vsub.f32	s18, s12, s18
.LVL37:
	.loc 2 79 9 view .LVU154
.LBE399:
.LBE544:
.LBB545:
.LBB546:
.LBB547:
.LBB548:
.LBB549:
.LBB550:
	.loc 2 126 28 view .LVU155
	vmul.f32	s10, s21, s21
.LBE550:
.LBE549:
.LBE548:
.LBE547:
.LBE546:
.LBE545:
.LBB577:
.LBB405:
	.loc 2 79 9 view .LVU156
	vsub.f32	s12, s12, s11
.LVL38:
	.loc 2 79 9 view .LVU157
.LBE405:
.LBE577:
.LBB578:
.LBB440:
.LBB435:
.LBB430:
.LBB426:
.LBB422:
	.loc 2 126 21 view .LVU158
	vmla.f32	s6, s28, s28
.LBE422:
.LBE426:
.LBE430:
.LBE435:
.LBE440:
.LBE578:
.LBB579:
.LBB580:
.LBB581:
.LBB582:
.LBB583:
.LBB584:
	.loc 2 126 28 view .LVU159
	vmul.f32	s11, s14, s14
.LVL39:
	.loc 2 126 28 view .LVU160
.LBE584:
.LBE583:
.LBE582:
.LBE581:
.LBE580:
.LBE579:
.LBB612:
.LBB470:
.LBB465:
.LBB460:
.LBB456:
.LBB452:
	.loc 2 126 21 view .LVU161
	vmla.f32	s7, s24, s24
.LBE452:
.LBE456:
.LBE460:
.LBE465:
.LBE470:
.LBE612:
.LBB613:
.LBB500:
.LBB495:
.LBB490:
.LBB486:
.LBB482:
	vmla.f32	s8, s1, s1
.LBE482:
.LBE486:
.LBE490:
.LBE495:
.LBE500:
.LBE613:
.LBB614:
.LBB535:
.LBB530:
.LBB525:
.LBB521:
.LBB517:
	vmla.f32	s9, s5, s5
.LBE517:
.LBE521:
.LBE525:
.LBE530:
.LBE535:
.LBE614:
.LBB615:
.LBB569:
.LBB564:
.LBB559:
.LBB555:
.LBB551:
	vmla.f32	s10, s20, s20
.LBE551:
.LBE555:
.LBE559:
.LBE564:
.LBE569:
.LBE615:
.LBB616:
.LBB603:
.LBB598:
.LBB593:
.LBB589:
.LBB585:
	vmla.f32	s11, s15, s15
.LBE585:
.LBE589:
.LBE593:
.LBE598:
.LBE603:
.LBE616:
.LBB617:
.LBB441:
.LBB436:
.LBB431:
.LBB427:
.LBB423:
	.loc 2 126 35 view .LVU162
	vmla.f32	s6, s30, s30
.LBE423:
.LBE427:
.LBE431:
.LBE436:
.LBE441:
.LBE617:
.LBB618:
.LBB471:
.LBB466:
.LBB461:
.LBB457:
.LBB453:
	vmla.f32	s7, s26, s26
.LBE453:
.LBE457:
.LBE461:
.LBE466:
.LBE471:
.LBE618:
.LBB619:
.LBB501:
.LBB496:
.LBB491:
.LBB487:
.LBB483:
	vmla.f32	s8, s17, s17
.LBE483:
.LBE487:
.LBE491:
.LBE496:
.LBE501:
.LBE619:
.LBB620:
.LBB536:
.LBB531:
.LBB526:
.LBB522:
.LBB518:
	vmla.f32	s9, s3, s3
.LBE518:
.LBE522:
.LBE526:
.LBE531:
.LBE536:
.LBE620:
.LBB621:
.LBB442:
.LBB437:
.LBB432:
.LBB428:
.LBB424:
	.loc 2 126 49 view .LVU163
	vmla.f32	s6, s31, s31
.LBE424:
.LBE428:
.LBE432:
.LBE437:
.LBE442:
.LBE621:
.LBB622:
.LBB472:
.LBB467:
.LBB462:
.LBB458:
.LBB454:
	vmla.f32	s7, s27, s27
.LBE454:
.LBE458:
.LBE462:
.LBE467:
.LBE472:
.LBE622:
.LBB623:
.LBB502:
.LBB497:
.LBB492:
.LBB488:
.LBB484:
	vmla.f32	s8, s18, s18
.LBE484:
.LBE488:
.LBE492:
.LBE497:
.LBE502:
.LBE623:
.LBB624:
.LBB570:
.LBB565:
.LBB560:
.LBB556:
.LBB552:
	.loc 2 126 35 view .LVU164
	vmla.f32	s10, s22, s22
.LBE552:
.LBE556:
.LBE560:
.LBE565:
.LBE570:
.LBE624:
.LBB625:
.LBB604:
.LBB599:
.LBB594:
.LBB590:
.LBB586:
	vmla.f32	s11, s13, s13
.LBE586:
.LBE590:
.LBE594:
.LBE599:
.LBE604:
.LBE625:
.LBB626:
.LBB537:
.LBB532:
.LBB527:
.LBB523:
.LBB519:
	.loc 2 126 49 view .LVU165
	vmla.f32	s9, s2, s2
.LBE519:
.LBE523:
.LBE527:
.LBE532:
.LBE537:
.LBE626:
.LBB627:
.LBB443:
.LBB438:
.LBB433:
	.loc 2 137 9 discriminator 1 view .LVU166
	vsqrt.f32	s19, s6
.LVL40:
	.loc 2 137 9 discriminator 1 view .LVU167
.LBE433:
.LBE438:
	.loc 2 151 2 is_stmt 1 view .LVU168
.LBE443:
.LBE627:
.LBB628:
.LBB571:
.LBB566:
.LBB561:
.LBB557:
.LBB553:
	.loc 2 126 49 is_stmt 0 view .LVU169
	vmla.f32	s10, s23, s23
.LBE553:
.LBE557:
.LBE561:
.LBE566:
.LBE571:
.LBE628:
.LBB629:
.LBB473:
.LBB468:
.LBB463:
	.loc 2 137 9 discriminator 1 view .LVU170
	vsqrt.f32	s6, s7
.LBE463:
.LBE468:
.LBE473:
.LBE629:
.LBB630:
.LBB605:
.LBB600:
.LBB595:
.LBB591:
.LBB587:
	.loc 2 126 49 view .LVU171
	vmla.f32	s11, s12, s12
.LBE587:
.LBE591:
.LBE595:
.LBE600:
.LBE605:
.LBE630:
.LBB631:
.LBB503:
.LBB498:
.LBB493:
	.loc 2 137 9 discriminator 1 view .LVU172
	vsqrt.f32	s7, s8
.LBE493:
.LBE498:
.LBE503:
.LBE631:
.LBB632:
.LBB538:
.LBB533:
.LBB528:
	vsqrt.f32	s8, s9
.LBE528:
.LBE533:
.LBE538:
.LBE632:
.LBB633:
.LBB572:
.LBB567:
.LBB562:
	vsqrt.f32	s9, s10
.LBE562:
.LBE567:
.LBE572:
.LBE633:
.LBB634:
.LBB606:
.LBB601:
.LBB596:
	vsqrt.f32	s10, s11
.LBE596:
.LBE601:
.LBE606:
.LBE634:
.LBB635:
.LBB444:
	.loc 2 151 9 view .LVU173
	vdiv.f32	s11, s31, s19
	vdiv.f32	s31, s30, s19
	vdiv.f32	s30, s29, s19
	vdiv.f32	s29, s28, s19
.LBE444:
.LBE635:
.LBB636:
.LBB474:
	vdiv.f32	s19, s27, s6
	vdiv.f32	s27, s26, s6
	vdiv.f32	s26, s25, s6
	vdiv.f32	s25, s24, s6
.LBE474:
.LBE636:
.LBB637:
.LBB504:
	vdiv.f32	s6, s18, s7
	vdiv.f32	s18, s17, s7
	vdiv.f32	s17, s0, s7
	vdiv.f32	s0, s1, s7
.LBE504:
.LBE637:
	.loc 1 39 37 discriminator 1 view .LVU174
	vstr.32	s6, [r4, #224]
.LBB638:
.LBB573:
	.loc 2 151 9 view .LVU175
	vdiv.f32	s1, s20, s9
.LBE573:
.LBE638:
.LBB639:
.LBB607:
	vdiv.f32	s6, s12, s10
.LBE607:
.LBE639:
.LBB640:
.LBB574:
	vdiv.f32	s7, s23, s9
.LBE574:
.LBE640:
	.loc 1 39 37 discriminator 1 view .LVU176
	vstr.32	s17, [r4, #232]
	vstr.32	s0, [r4, #236]
.LBB641:
.LBB575:
	.loc 2 151 9 view .LVU177
	vdiv.f32	s17, s22, s9
	vdiv.f32	s0, s21, s9
.LBE575:
.LBE641:
.LBB642:
.LBB539:
	vdiv.f32	s12, s2, s8
.LBE539:
.LBE642:
.LBB643:
.LBB608:
	vdiv.f32	s9, s14, s10
.LBE608:
.LBE643:
	.loc 1 40 36 discriminator 1 view .LVU178
	vstr.32	s1, [r4, #252]
.LBB644:
.LBB540:
	.loc 2 151 9 view .LVU179
	vdiv.f32	s14, s4, s8
.LBE540:
.LBE644:
	.loc 1 37 37 discriminator 1 view .LVU180
	vstr.32	s11, [r4, #192]
	.loc 1 38 38 discriminator 1 view .LVU181
	vstr.32	s19, [r4, #208]
.LBB645:
.LBB609:
	.loc 2 151 9 view .LVU182
	vdiv.f32	s11, s15, s10
.LBE609:
.LBE645:
	.loc 1 38 38 discriminator 1 view .LVU183
	vstr.32	s26, [r4, #216]
.LBB646:
.LBB541:
	.loc 2 151 9 view .LVU184
	vdiv.f32	s15, s5, s8
.LBE541:
.LBE646:
	.loc 1 38 38 discriminator 1 view .LVU185
	vstr.32	s25, [r4, #220]
	.loc 1 39 37 discriminator 1 view .LVU186
	vstr.32	s18, [r4, #228]
	.loc 1 40 36 discriminator 1 view .LVU187
	vstr.32	s7, [r4, #240]
	vstr.32	s17, [r4, #244]
.LBB647:
.LBB610:
	.loc 2 151 9 view .LVU188
	vdiv.f32	s7, s13, s10
.LBE610:
.LBE647:
	.loc 1 40 36 discriminator 1 view .LVU189
	vstr.32	s0, [r4, #248]
.LBB648:
.LBB542:
	.loc 2 151 9 view .LVU190
	vdiv.f32	s13, s3, s8
.LBE542:
.LBE648:
	.loc 1 37 37 discriminator 1 view .LVU191
	vstr.32	s31, [r4, #196]
	vstr.32	s30, [r4, #200]
	vstr.32	s29, [r4, #204]
	.loc 1 38 2 is_stmt 1 view .LVU192
.LVL41:
.LBB649:
.LBI373:
	.loc 2 64 24 view .LVU193
.LBB378:
	.loc 2 67 2 view .LVU194
	.loc 2 67 2 is_stmt 0 view .LVU195
.LBE378:
.LBE649:
.LBB650:
.LBI446:
	.loc 2 145 24 is_stmt 1 view .LVU196
.LBB475:
	.loc 2 148 2 view .LVU197
.LBB469:
.LBI448:
	.loc 2 134 21 view .LVU198
.LBB464:
	.loc 2 137 2 view .LVU199
.LBB459:
.LBI450:
	.loc 2 123 21 view .LVU200
.LBB455:
	.loc 2 126 2 view .LVU201
	.loc 2 126 2 is_stmt 0 view .LVU202
.LBE455:
.LBE459:
.LBE464:
.LBE469:
	.loc 2 151 2 is_stmt 1 view .LVU203
.LBE475:
.LBE650:
	.loc 1 39 2 view .LVU204
.LBB651:
.LBI395:
	.loc 2 76 24 view .LVU205
.LBB400:
	.loc 2 79 2 view .LVU206
	.loc 2 79 2 is_stmt 0 view .LVU207
.LBE400:
.LBE651:
.LBB652:
.LBI476:
	.loc 2 145 24 is_stmt 1 view .LVU208
.LBB505:
	.loc 2 148 2 view .LVU209
.LBB499:
.LBI478:
	.loc 2 134 21 view .LVU210
.LBB494:
	.loc 2 137 2 view .LVU211
.LBB489:
.LBI480:
	.loc 2 123 21 view .LVU212
.LBB485:
	.loc 2 126 2 view .LVU213
	.loc 2 126 2 is_stmt 0 view .LVU214
.LBE485:
.LBE489:
.LBE494:
.LBE499:
	.loc 2 151 2 is_stmt 1 view .LVU215
.LBE505:
.LBE652:
	.loc 1 40 2 view .LVU216
.LBB653:
.LBI385:
	.loc 2 64 24 view .LVU217
.LBB390:
	.loc 2 67 2 view .LVU218
	.loc 2 67 2 is_stmt 0 view .LVU219
.LBE390:
.LBE653:
.LBB654:
.LBI545:
	.loc 2 145 24 is_stmt 1 view .LVU220
.LBB576:
	.loc 2 148 2 view .LVU221
.LBB568:
.LBI547:
	.loc 2 134 21 view .LVU222
.LBB563:
	.loc 2 137 2 view .LVU223
.LBB558:
.LBI549:
	.loc 2 123 21 view .LVU224
.LBB554:
	.loc 2 126 2 view .LVU225
	.loc 2 126 2 is_stmt 0 view .LVU226
.LBE554:
.LBE558:
.LBE563:
.LBE568:
	.loc 2 151 2 is_stmt 1 view .LVU227
.LBE576:
.LBE654:
	.loc 1 41 2 view .LVU228
.LBB655:
.LBI401:
	.loc 2 76 24 view .LVU229
.LBB406:
	.loc 2 79 2 view .LVU230
	.loc 2 79 2 is_stmt 0 view .LVU231
.LBE406:
.LBE655:
.LBB656:
.LBI579:
	.loc 2 145 24 is_stmt 1 view .LVU232
.LBB611:
	.loc 2 148 2 view .LVU233
.LBB602:
.LBI581:
	.loc 2 134 21 view .LVU234
.LBB597:
	.loc 2 137 2 view .LVU235
.LBB592:
.LBI583:
	.loc 2 123 21 view .LVU236
.LBB588:
	.loc 2 126 2 view .LVU237
	.loc 2 126 2 is_stmt 0 view .LVU238
.LBE588:
.LBE592:
.LBE597:
.LBE602:
	.loc 2 151 2 is_stmt 1 view .LVU239
.LBE611:
.LBE656:
	.loc 1 38 38 is_stmt 0 discriminator 1 view .LVU240
	vstr.32	s27, [r4, #212]
	.loc 1 41 39 discriminator 1 view .LVU241
	vstr.32	s6, [r4, #256]
	.loc 1 45 17 discriminator 1 view .LVU242
	vldr.32	s17, [r5, #16]
	.loc 1 41 39 discriminator 1 view .LVU243
	vstr.32	s7, [r4, #260]
	vstr.32	s9, [r4, #264]
	vstr.32	s11, [r4, #268]
	.loc 1 42 2 is_stmt 1 view .LVU244
.LVL42:
.LBB657:
.LBI379:
	.loc 2 64 24 view .LVU245
.LBB384:
	.loc 2 67 2 view .LVU246
	.loc 2 67 2 is_stmt 0 view .LVU247
.LBE384:
.LBE657:
.LBB658:
.LBI511:
	.loc 2 145 24 is_stmt 1 view .LVU248
.LBB543:
	.loc 2 148 2 view .LVU249
.LBB534:
.LBI513:
	.loc 2 134 21 view .LVU250
.LBB529:
	.loc 2 137 2 view .LVU251
.LBB524:
.LBI515:
	.loc 2 123 21 view .LVU252
.LBB520:
	.loc 2 126 2 view .LVU253
	.loc 2 126 2 is_stmt 0 view .LVU254
.LBE520:
.LBE524:
.LBE529:
.LBE534:
	.loc 2 151 2 is_stmt 1 view .LVU255
.LBE543:
.LBE658:
	.loc 1 42 36 is_stmt 0 discriminator 1 view .LVU256
	vstr.32	s12, [r4, #272]
	vstr.32	s13, [r4, #276]
	vstr.32	s14, [r4, #280]
	vstr.32	s15, [r4, #284]
	.loc 1 44 2 is_stmt 1 view .LVU257
	.loc 1 45 17 is_stmt 0 discriminator 1 view .LVU258
	vmov.f32	s0, s17
	bl	sinf
.LVL43:
	.loc 1 45 17 discriminator 1 view .LVU259
	vmov.f32	s18, s0
	.loc 1 45 17 discriminator 2 view .LVU260
	vmov.f32	s0, s17
	bl	cosf
.LVL44:
.LBB659:
.LBB660:
	.file 3 "C:/Users/Elias/CLionProjects/3DSCraft/include/misc/VecMath.h"
	.loc 3 21 85 view .LVU261
	vldr.32	s15, .L8+24
.LBE660:
.LBE659:
	.loc 1 45 17 discriminator 2 view .LVU262
	vmov.f32	s19, s0
	.loc 1 50 28 view .LVU263
	vldr.32	s24, .L8+28
	vldr.32	s14, [r4, #392]
.LBB664:
.LBB661:
	.loc 3 21 97 view .LVU264
	vmul.f32	s20, s19, s15
.LBE661:
.LBE664:
	.loc 1 50 28 view .LVU265
	vmul.f32	s0, s14, s24
	.loc 1 44 9 view .LVU266
	vldr.32	s22, [r5, #48]
.LBB665:
.LBB662:
	.loc 3 21 51 view .LVU267
	vsub.f32	s25, s15, s18
	vnmls.f32	s20, s18, s15
.LBE662:
.LBE665:
	.loc 1 50 28 view .LVU268
	bl	tanf
.LVL45:
	.loc 1 55 32 view .LVU269
	vldr.32	s12, [r4, #388]
.LBB666:
.LBB667:
	.loc 3 16 51 view .LVU270
	vldr.32	s10, [sp]
.LBE667:
.LBE666:
	.loc 1 44 9 view .LVU271
	vldr.32	s21, [r5, #52]
.LBB674:
.LBB668:
	.loc 3 16 51 view .LVU272
	vldr.32	s14, [sp, #4]
	vmov.f32	s7, s10
.LBE668:
.LBE674:
.LBB675:
.LBB676:
	vmla.f32	s10, s12, s22
.LBE676:
.LBE675:
	.loc 1 52 33 view .LVU273
	vldr.32	s11, [r4, #384]
.LBB682:
.LBB677:
	.loc 3 16 51 view .LVU274
	vmov.f32	s4, s10
.LBE677:
.LBE682:
	.loc 1 50 8 discriminator 1 view .LVU275
	vadd.f32	s15, s0, s0
.LBB683:
.LBB669:
	.loc 3 16 51 view .LVU276
	vmov.f32	s10, s14
.LBE669:
.LBE683:
.LBB684:
.LBB678:
	vmla.f32	s14, s12, s21
.LBE678:
.LBE684:
	.loc 1 44 9 view .LVU277
	vldr.32	s23, [r5, #44]
.LVL46:
	.loc 1 45 2 is_stmt 1 view .LVU278
.LBB685:
.LBI659:
	.loc 3 21 15 view .LVU279
.LBB663:
	.loc 3 21 44 view .LVU280
	.loc 3 21 44 is_stmt 0 view .LVU281
.LBE663:
.LBE685:
	.loc 1 46 2 is_stmt 1 view .LVU282
.LBB686:
.LBI686:
	.loc 3 21 15 view .LVU283
.LBB687:
	.loc 3 21 44 view .LVU284
.LBE687:
.LBE686:
	.loc 1 52 8 is_stmt 0 view .LVU285
	vmul.f32	s13, s11, s15
.LBB692:
.LBB679:
	.loc 3 16 51 view .LVU286
	vmov.f32	s3, s14
.LBE679:
.LBE692:
.LBB693:
.LBB688:
	.loc 3 21 74 view .LVU287
	vmul.f32	s18, s20, s21
.LBE688:
.LBE693:
	.loc 1 53 8 view .LVU288
	vldr.32	s14, .L8+12
.LBB694:
.LBB689:
	.loc 3 21 120 view .LVU289
	vmul.f32	s26, s19, s22
	.loc 3 21 51 view .LVU290
	vnmls.f32	s18, s25, s22
.LVL47:
	.loc 3 21 51 view .LVU291
.LBE689:
.LBE694:
	.loc 1 55 8 view .LVU292
	vmul.f32	s15, s12, s15
.LBB695:
.LBB690:
	.loc 3 21 97 view .LVU293
	vmul.f32	s17, s25, s23
.LBE690:
.LBE695:
.LBB696:
.LBB670:
	.loc 3 16 51 view .LVU294
	vmov.f32	s6, s16
.LBE670:
.LBE696:
.LBB697:
.LBB680:
	vmla.f32	s16, s12, s23
.LVL48:
	.loc 3 16 51 view .LVU295
.LBE680:
.LBE697:
	.loc 1 61 48 view .LVU296
	vmul.f32	s12, s13, s24
	.loc 1 53 8 view .LVU297
	vmul.f32	s13, s13, s14
.LBB698:
.LBB671:
	.loc 3 16 51 view .LVU298
	vmla.f32	s6, s11, s23
.LVL49:
	.loc 3 16 51 view .LVU299
.LBE671:
.LBE698:
.LBB699:
.LBB691:
	.loc 3 21 51 view .LVU300
	vnmls.f32	s17, s19, s21
.LVL50:
	.loc 3 21 51 view .LVU301
	vnmls.f32	s26, s20, s23
.LVL51:
	.loc 3 21 51 view .LVU302
.LBE691:
.LBE699:
	.loc 1 48 2 is_stmt 1 view .LVU303
	.loc 1 50 2 view .LVU304
	.loc 1 52 2 view .LVU305
	.loc 1 53 2 view .LVU306
	.loc 1 55 2 view .LVU307
	.loc 1 56 2 view .LVU308
	.loc 1 58 2 view .LVU309
.LBB700:
.LBI700:
	.loc 3 18 15 view .LVU310
.LBB701:
	.loc 3 18 43 view .LVU311
	.loc 3 18 43 is_stmt 0 view .LVU312
.LBE701:
.LBE700:
.LBB702:
.LBI666:
	.loc 3 16 15 is_stmt 1 view .LVU313
.LBB672:
	.loc 3 16 44 view .LVU314
.LBE672:
.LBE702:
	.loc 1 61 48 is_stmt 0 discriminator 2 view .LVU315
	vmul.f32	s13, s13, s24
.LBB703:
.LBB704:
	.loc 3 18 50 view .LVU316
	vmul.f32	s9, s12, s18
.LBE704:
.LBE703:
	.loc 1 56 8 view .LVU317
	vmul.f32	s14, s15, s14
.LVL52:
	.loc 1 65 47 view .LVU318
	vmul.f32	s15, s15, s24
.LVL53:
.LBB707:
.LBB708:
	.loc 3 18 50 view .LVU319
	vmul.f32	s1, s19, s13
.LBE708:
.LBE707:
.LBB712:
.LBB673:
	.loc 3 16 51 view .LVU320
	vmla.f32	s7, s11, s22
.LVL54:
	.loc 3 16 51 view .LVU321
	vmla.f32	s10, s11, s21
.LVL55:
	.loc 3 16 51 view .LVU322
.LBE673:
.LBE712:
	.loc 1 59 2 is_stmt 1 view .LVU323
.LBB713:
.LBI713:
	.loc 3 18 15 view .LVU324
.LBB714:
	.loc 3 18 43 view .LVU325
	.loc 3 18 43 is_stmt 0 view .LVU326
.LBE714:
.LBE713:
.LBB715:
.LBI675:
	.loc 3 16 15 is_stmt 1 view .LVU327
.LBB681:
	.loc 3 16 44 view .LVU328
	.loc 3 16 44 is_stmt 0 view .LVU329
.LBE681:
.LBE715:
	.loc 1 61 2 is_stmt 1 view .LVU330
.LBB716:
.LBI703:
	.loc 3 18 15 view .LVU331
.LBB705:
	.loc 3 18 43 view .LVU332
	.loc 3 18 50 is_stmt 0 view .LVU333
	vmul.f32	s8, s12, s17
.LBE705:
.LBE716:
.LBB717:
.LBB718:
	.loc 3 17 51 view .LVU334
	vsub.f32	s5, s6, s9
.LBE718:
.LBE717:
.LBB722:
.LBB706:
	.loc 3 18 50 view .LVU335
	vmul.f32	s12, s12, s26
.LVL56:
	.loc 3 18 50 view .LVU336
.LBE706:
.LBE722:
.LBB723:
.LBI717:
	.loc 3 17 15 is_stmt 1 view .LVU337
.LBB719:
	.loc 3 17 44 view .LVU338
.LBE719:
.LBE723:
.LBB724:
.LBB725:
	.loc 3 18 50 is_stmt 0 view .LVU339
	vmul.f32	s17, s15, s17
.LVL57:
	.loc 3 18 50 view .LVU340
.LBE725:
.LBE724:
.LBB729:
.LBB709:
	vmul.f32	s2, s13, s20
.LBE709:
.LBE729:
.LBB730:
.LBB731:
	.loc 3 16 51 view .LVU341
	vadd.f32	s9, s9, s6
.LVL58:
	.loc 3 16 51 view .LVU342
.LBE731:
.LBE730:
.LBB735:
.LBB720:
	.loc 3 17 51 view .LVU343
	vsub.f32	s6, s7, s8
.LVL59:
	.loc 3 17 51 view .LVU344
.LBE720:
.LBE735:
.LBB736:
.LBB732:
	.loc 3 16 51 view .LVU345
	vadd.f32	s8, s8, s7
.LVL60:
	.loc 3 16 51 view .LVU346
.LBE732:
.LBE736:
.LBB737:
.LBB721:
	.loc 3 17 51 view .LVU347
	vsub.f32	s7, s10, s12
.LVL61:
	.loc 3 17 51 view .LVU348
.LBE721:
.LBE737:
.LBB738:
.LBB733:
	.loc 3 16 51 view .LVU349
	vadd.f32	s12, s12, s10
.LVL62:
	.loc 3 16 51 view .LVU350
.LBE733:
.LBE738:
.LBB739:
.LBB740:
	.loc 3 17 51 view .LVU351
	vsub.f32	s10, s4, s17
.LVL63:
	.loc 3 17 51 view .LVU352
.LBE740:
.LBE739:
.LBB744:
.LBB745:
	.loc 3 16 51 view .LVU353
	vadd.f32	s17, s17, s4
.LBE745:
.LBE744:
.LBB748:
.LBB749:
	.loc 3 17 51 view .LVU354
	vsub.f32	s4, s5, s1
.LVL64:
	.loc 3 17 51 view .LVU355
.LBE749:
.LBE748:
.LBB753:
.LBB754:
	.loc 3 16 51 view .LVU356
	vadd.f32	s5, s1, s5
.LBE754:
.LBE753:
.LBB758:
.LBB710:
	.loc 3 18 50 view .LVU357
	vmul.f32	s13, s13, s25
.LBE710:
.LBE758:
	.loc 1 65 47 discriminator 2 view .LVU358
	vmul.f32	s14, s14, s24
.LVL65:
.LBB759:
.LBB726:
	.loc 3 18 50 view .LVU359
	vmul.f32	s18, s15, s18
	b	.L9
.L10:
	.align	3
.L8:
	.word	-209982507
	.word	1070255849
	.word	1065353216
	.word	1070945621
	.word	1070805811
	.word	1036831949
	.word	0
	.word	1056964608
.L9:
.LVL66:
	.loc 3 18 50 view .LVU360
.LBE726:
.LBE759:
	.loc 1 62 49 discriminator 3 view .LVU361
	vstr.32	s5, [r4, #300]
.LBB760:
.LBB750:
	.loc 3 17 51 view .LVU362
	vsub.f32	s5, s6, s2
.LBE750:
.LBE760:
.LBB761:
.LBB755:
	.loc 3 16 51 view .LVU363
	vadd.f32	s6, s2, s6
.LBE755:
.LBE761:
.LBB762:
.LBB763:
	.loc 3 18 50 view .LVU364
	vmul.f32	s19, s19, s14
.LVL67:
	.loc 3 18 50 view .LVU365
	vmul.f32	s20, s14, s20
.LVL68:
	.loc 3 18 50 view .LVU366
.LBE763:
.LBE762:
.LBB766:
.LBI707:
	.loc 3 18 15 is_stmt 1 view .LVU367
.LBB711:
	.loc 3 18 43 view .LVU368
	.loc 3 18 43 is_stmt 0 view .LVU369
.LBE711:
.LBE766:
.LBB767:
.LBI748:
	.loc 3 17 15 is_stmt 1 view .LVU370
.LBB751:
	.loc 3 17 44 view .LVU371
	.loc 3 17 44 is_stmt 0 view .LVU372
.LBE751:
.LBE767:
.LBB768:
.LBB741:
	.loc 3 17 51 view .LVU373
	vsub.f32	s0, s16, s18
.LVL69:
	.loc 3 17 51 view .LVU374
.LBE741:
.LBE768:
.LBB769:
.LBB727:
	.loc 3 18 50 view .LVU375
	vmul.f32	s15, s15, s26
.LBE727:
.LBE769:
	.loc 1 62 49 discriminator 3 view .LVU376
	vstr.32	s6, [r4, #304]
.LBB770:
.LBB752:
	.loc 3 17 51 view .LVU377
	vsub.f32	s6, s7, s13
.LBE752:
.LBE770:
.LBB771:
.LBB756:
	.loc 3 16 51 view .LVU378
	vadd.f32	s7, s13, s7
.LBE756:
.LBE771:
.LBB772:
.LBB764:
	.loc 3 18 50 view .LVU379
	vmul.f32	s14, s14, s25
.LBE764:
.LBE772:
.LBB773:
.LBB742:
	.loc 3 17 51 view .LVU380
	vsub.f32	s11, s3, s15
.LVL70:
	.loc 3 17 51 view .LVU381
.LBE742:
.LBE773:
.LBB774:
.LBB746:
	.loc 3 16 51 view .LVU382
	vadd.f32	s18, s18, s16
	vadd.f32	s15, s15, s3
.LBE746:
.LBE774:
	.loc 1 61 48 discriminator 3 view .LVU383
	vstr.32	s4, [r4, #288]
.LBB775:
.LBB776:
	.loc 3 17 51 view .LVU384
	vsub.f32	s3, s12, s13
.LVL71:
	.loc 3 17 51 view .LVU385
.LBE776:
.LBE775:
	.loc 1 61 48 discriminator 3 view .LVU386
	vstr.32	s6, [r4, #296]
	.loc 1 62 2 is_stmt 1 view .LVU387
.LVL72:
.LBB780:
.LBI753:
	.loc 3 16 15 view .LVU388
.LBB757:
	.loc 3 16 44 view .LVU389
	.loc 3 16 44 is_stmt 0 view .LVU390
.LBE757:
.LBE780:
	.loc 1 62 49 discriminator 3 view .LVU391
	vstr.32	s7, [r4, #308]
	.loc 1 63 2 is_stmt 1 view .LVU392
.LVL73:
.LBB781:
.LBI730:
	.loc 3 16 15 view .LVU393
.LBB734:
	.loc 3 16 44 view .LVU394
	.loc 3 16 44 is_stmt 0 view .LVU395
.LBE734:
.LBE781:
.LBB782:
.LBI775:
	.loc 3 17 15 is_stmt 1 view .LVU396
.LBB777:
	.loc 3 17 44 view .LVU397
	.loc 3 17 44 is_stmt 0 view .LVU398
.LBE777:
.LBE782:
.LBB783:
.LBB784:
	.loc 3 17 51 view .LVU399
	vsub.f32	s6, s10, s20
.LBE784:
.LBE783:
.LBB788:
.LBB778:
	vsub.f32	s7, s9, s1
.LBE778:
.LBE788:
.LBB789:
.LBB790:
	.loc 3 16 51 view .LVU400
	vadd.f32	s4, s8, s2
	vadd.f32	s12, s12, s13
.LBE790:
.LBE789:
.LBB793:
.LBB779:
	.loc 3 17 51 view .LVU401
	vsub.f32	s8, s8, s2
.LBE779:
.LBE793:
.LBB794:
.LBB795:
	.loc 3 16 51 view .LVU402
	vadd.f32	s13, s19, s0
.LBE795:
.LBE794:
	.loc 1 61 48 discriminator 3 view .LVU403
	vstr.32	s5, [r4, #292]
	.loc 1 66 48 discriminator 3 view .LVU404
	vstr.32	s13, [r4, #348]
.LBB798:
.LBB785:
	.loc 3 17 51 view .LVU405
	vsub.f32	s5, s0, s19
.LBE785:
.LBE798:
	.loc 1 65 47 discriminator 3 view .LVU406
	vstr.32	s6, [r4, #340]
	.loc 1 63 45 discriminator 3 view .LVU407
	vstr.32	s7, [r4, #312]
.LBB799:
.LBB786:
	.loc 3 17 51 view .LVU408
	vsub.f32	s6, s11, s14
.LBE786:
.LBE799:
	.loc 1 63 45 discriminator 3 view .LVU409
	vstr.32	s8, [r4, #316]
.LBB800:
.LBB801:
	.loc 3 16 51 view .LVU410
	vadd.f32	s13, s15, s14
.LBE801:
.LBE800:
.LBB804:
.LBB805:
	.loc 3 17 51 view .LVU411
	vsub.f32	s8, s17, s20
.LBE805:
.LBE804:
.LBB809:
.LBB791:
	.loc 3 16 51 view .LVU412
	vadd.f32	s9, s9, s1
.LBE791:
.LBE809:
.LBB810:
.LBB796:
	vadd.f32	s10, s20, s10
	vadd.f32	s11, s14, s11
.LBE796:
.LBE810:
.LBB811:
.LBB806:
	.loc 3 17 51 view .LVU413
	vsub.f32	s7, s18, s19
.LBE806:
.LBE811:
.LBB812:
.LBB802:
	.loc 3 16 51 view .LVU414
	vadd.f32	s0, s18, s19
	vadd.f32	s17, s17, s20
.LBE802:
.LBE812:
.LBB813:
.LBB807:
	.loc 3 17 51 view .LVU415
	vsub.f32	s15, s15, s14
.LBE807:
.LBE813:
	.loc 1 63 45 discriminator 3 view .LVU416
	vstr.32	s3, [r4, #320]
	.loc 1 64 2 is_stmt 1 view .LVU417
.LVL74:
.LBB814:
.LBI789:
	.loc 3 16 15 view .LVU418
.LBB792:
	.loc 3 16 44 view .LVU419
	.loc 3 16 44 is_stmt 0 view .LVU420
.LBE792:
.LBE814:
	.loc 1 64 46 discriminator 3 view .LVU421
	vstr.32	s9, [r4, #324]
	vstr.32	s4, [r4, #328]
	vstr.32	s12, [r4, #332]
	.loc 1 65 2 is_stmt 1 view .LVU422
.LVL75:
.LBB815:
.LBI724:
	.loc 3 18 15 view .LVU423
.LBB728:
	.loc 3 18 43 view .LVU424
	.loc 3 18 43 is_stmt 0 view .LVU425
.LBE728:
.LBE815:
.LBB816:
.LBI739:
	.loc 3 17 15 is_stmt 1 view .LVU426
.LBB743:
	.loc 3 17 44 view .LVU427
	.loc 3 17 44 is_stmt 0 view .LVU428
.LBE743:
.LBE816:
.LBB817:
.LBI762:
	.loc 3 18 15 is_stmt 1 view .LVU429
.LBB765:
	.loc 3 18 43 view .LVU430
	.loc 3 18 43 is_stmt 0 view .LVU431
.LBE765:
.LBE817:
.LBB818:
.LBI783:
	.loc 3 17 15 is_stmt 1 view .LVU432
.LBB787:
	.loc 3 17 44 view .LVU433
	.loc 3 17 44 is_stmt 0 view .LVU434
.LBE787:
.LBE818:
	.loc 1 65 47 discriminator 3 view .LVU435
	vstr.32	s5, [r4, #336]
	.loc 1 66 48 discriminator 3 view .LVU436
	vstr.32	s10, [r4, #352]
	.loc 1 65 47 discriminator 3 view .LVU437
	vstr.32	s6, [r4, #344]
	.loc 1 66 2 is_stmt 1 view .LVU438
.LVL76:
.LBB819:
.LBI794:
	.loc 3 16 15 view .LVU439
.LBB797:
	.loc 3 16 44 view .LVU440
	.loc 3 16 44 is_stmt 0 view .LVU441
.LBE797:
.LBE819:
	.loc 1 66 48 discriminator 3 view .LVU442
	vstr.32	s11, [r4, #356]
	.loc 1 67 2 is_stmt 1 view .LVU443
.LVL77:
.LBB820:
.LBI744:
	.loc 3 16 15 view .LVU444
.LBB747:
	.loc 3 16 44 view .LVU445
	.loc 3 16 44 is_stmt 0 view .LVU446
.LBE747:
.LBE820:
.LBB821:
.LBI804:
	.loc 3 17 15 is_stmt 1 view .LVU447
.LBB808:
	.loc 3 17 44 view .LVU448
	.loc 3 17 44 is_stmt 0 view .LVU449
.LBE808:
.LBE821:
	.loc 1 67 44 discriminator 3 view .LVU450
	vstr.32	s7, [r4, #360]
	vstr.32	s8, [r4, #364]
	.loc 1 68 45 discriminator 3 view .LVU451
	vstr.32	s0, [r4, #372]
	vstr.32	s17, [r4, #376]
	vstr.32	s13, [r4, #380]
	.loc 1 67 44 discriminator 3 view .LVU452
	vstr.32	s15, [r4, #368]
	.loc 1 68 2 is_stmt 1 view .LVU453
.LVL78:
.LBB822:
.LBI800:
	.loc 3 16 15 view .LVU454
.LBB803:
	.loc 3 16 44 view .LVU455
	.loc 3 16 44 is_stmt 0 view .LVU456
.LBE803:
.LBE822:
	.loc 1 69 1 view .LVU457
	add	sp, sp, #72
	.cfi_def_cfa_offset 80
	@ sp needed
	vldm	sp!, {d8-d15}
	.cfi_restore 94
	.cfi_restore 95
	.cfi_restore 92
	.cfi_restore 93
	.cfi_restore 90
	.cfi_restore 91
	.cfi_restore 88
	.cfi_restore 89
	.cfi_restore 86
	.cfi_restore 87
	.cfi_restore 84
	.cfi_restore 85
	.cfi_restore 82
	.cfi_restore 83
	.cfi_restore 80
	.cfi_restore 81
	.cfi_def_cfa_offset 16
	pop	{r4, r5, r6, pc}
	.loc 1 69 1 view .LVU458
	.cfi_endproc
.LFE231:
	.size	Camera_Update, .-Camera_Update
	.section	.text.Camera_IsPointVisible,"ax",%progbits
	.align	2
	.global	Camera_IsPointVisible
	.syntax unified
	.arm
	.type	Camera_IsPointVisible, %function
Camera_IsPointVisible:
.LVL79:
.LFB232:
	.loc 1 71 56 is_stmt 1 view -0
	.cfi_startproc
	@ args = 0, pretend = 0, frame = 16
	@ frame_needed = 0, uses_anonymous_args = 0
	@ link register save eliminated.
	.loc 1 71 56 is_stmt 0 view .LVU460
	sub	sp, sp, #16
	.cfi_def_cfa_offset 16
.LVL80:
	.loc 1 72 2 is_stmt 1 view .LVU461
	.loc 1 73 2 view .LVU462
.LBB823:
	.loc 1 73 7 view .LVU463
	.loc 1 73 20 discriminator 1 view .LVU464
.LBE823:
	.loc 1 71 56 is_stmt 0 view .LVU465
	vstr.32	s0, [sp]
	vstr.32	s1, [sp, #4]
	vstr.32	s2, [sp, #8]
	vstr.32	s3, [sp, #12]
	add	r3, r0, #96
.LVL81:
.L13:
.LBB828:
	.loc 1 74 3 is_stmt 1 view .LVU466
.LBB824:
.LBI824:
	.loc 2 123 21 view .LVU467
.LBB825:
	.loc 2 126 2 view .LVU468
	.loc 2 126 2 is_stmt 0 view .LVU469
.LBE825:
.LBE824:
	.loc 1 73 44 is_stmt 1 discriminator 2 view .LVU470
	.loc 1 73 20 discriminator 1 view .LVU471
.LBB827:
.LBB826:
	.loc 2 126 28 is_stmt 0 view .LVU472
	vldr.32	s15, [r0, #200]
	.loc 2 126 14 view .LVU473
	vldr.32	s12, [r0, #204]
	.loc 2 126 28 view .LVU474
	vmul.f32	s15, s2, s15
	.loc 2 126 42 view .LVU475
	vldr.32	s13, [r0, #196]
	.loc 2 126 21 view .LVU476
	vmla.f32	s15, s3, s12
	.loc 2 126 49 view .LVU477
	vldr.32	s14, [r0, #192]
	.loc 2 126 35 view .LVU478
	vmla.f32	s15, s1, s13
	.loc 2 126 49 view .LVU479
	vadd.f32	s15, s15, s14
.LBE826:
.LBE827:
	.loc 1 74 6 discriminator 1 view .LVU480
	vcmpe.f32	s15, #0
	vmrs	APSR_nzcv, FPSCR
	.loc 1 73 20 discriminator 1 view .LVU481
	add	r0, r0, #16
	.loc 1 74 6 discriminator 1 view .LVU482
	bmi	.L14
	.loc 1 73 20 discriminator 1 view .LVU483
	cmp	r3, r0
	bne	.L13
.LBE828:
	.loc 1 75 8 view .LVU484
	mov	r0, #1
	.loc 1 76 1 view .LVU485
	add	sp, sp, #16
	.cfi_remember_state
	.cfi_def_cfa_offset 0
	@ sp needed
	bx	lr
.L14:
	.cfi_restore_state
.LBB829:
	.loc 1 74 60 discriminator 1 view .LVU486
	mov	r0, #0
.LBE829:
	.loc 1 76 1 view .LVU487
	add	sp, sp, #16
	.cfi_def_cfa_offset 0
	@ sp needed
	bx	lr
	.cfi_endproc
.LFE232:
	.size	Camera_IsPointVisible, .-Camera_IsPointVisible
	.section	.text.Camera_IsAABBVisible,"ax",%progbits
	.align	2
	.global	Camera_IsAABBVisible
	.syntax unified
	.arm
	.type	Camera_IsAABBVisible, %function
Camera_IsAABBVisible:
.LVL82:
.LFB233:
	.loc 1 78 70 is_stmt 1 view -0
	.cfi_startproc
	@ args = 0, pretend = 0, frame = 32
	@ frame_needed = 0, uses_anonymous_args = 0
	.loc 1 79 2 view .LVU489
	.loc 1 80 2 view .LVU490
	.loc 1 78 70 is_stmt 0 view .LVU491
	str	lr, [sp, #-4]!
	.cfi_def_cfa_offset 4
	.cfi_offset 14, -4
	vpush.64	{d8}
	.cfi_def_cfa_offset 12
	.cfi_offset 80, -12
	.cfi_offset 81, -8
	sub	sp, sp, #36
	.cfi_def_cfa_offset 48
	.loc 1 78 70 view .LVU492
	vstr.32	s0, [sp, #16]
	vstr.32	s4, [sp]
	mov	lr, r0
	.loc 1 80 15 view .LVU493
	mov	r3, r0
	.loc 1 78 70 view .LVU494
	vstr.32	s1, [sp, #20]
	vstr.32	s2, [sp, #24]
	.loc 1 80 15 view .LVU495
	vadd.f32	s16, s1, s5
	vadd.f32	s0, s2, s6
	vadd.f32	s4, s3, s7
.LVL83:
	.loc 1 81 2 is_stmt 1 view .LVU496
.LBB830:
	.loc 1 81 7 view .LVU497
	.loc 1 81 20 discriminator 1 view .LVU498
.LBE830:
	.loc 1 78 70 is_stmt 0 view .LVU499
	vstr.32	s3, [sp, #28]
	vstr.32	s5, [sp, #4]
	vstr.32	s6, [sp, #8]
	vstr.32	s7, [sp, #12]
	add	r2, r0, #96
.LVL84:
.L19:
.LBB896:
.LBB831:
	.loc 1 82 3 is_stmt 1 view .LVU500
	.loc 1 83 3 view .LVU501
.LBE831:
	.loc 1 81 26 discriminator 2 view .LVU502
	.loc 1 81 20 discriminator 1 view .LVU503
	vldr.32	s10, [r3, #200]
	vldr.32	s8, [r3, #204]
	vldr.32	s15, [r3, #196]
.LBB892:
.LBB832:
.LBB833:
	.loc 2 126 28 is_stmt 0 view .LVU504
	vmul.f32	s13, s10, s2
	.loc 2 126 14 view .LVU505
	vmul.f32	s14, s3, s8
	.loc 2 126 42 view .LVU506
	vmul.f32	s12, s1, s15
	.loc 2 126 21 view .LVU507
	vadd.f32	s9, s14, s13
.LBE833:
.LBE832:
.LBB837:
.LBB838:
	.loc 2 126 14 view .LVU508
	vmul.f32	s8, s4, s8
	vldr.32	s11, [r3, #192]
.LVL85:
	.loc 2 126 14 view .LVU509
.LBE838:
.LBE837:
.LBB842:
.LBI832:
	.loc 2 123 21 is_stmt 1 view .LVU510
.LBB834:
	.loc 2 126 2 view .LVU511
.LBE834:
.LBE842:
.LBB843:
.LBB839:
	.loc 2 126 21 is_stmt 0 view .LVU512
	vadd.f32	s13, s8, s13
.LBE839:
.LBE843:
.LBB844:
.LBB835:
	.loc 2 126 35 view .LVU513
	vadd.f32	s6, s9, s12
.LBE835:
.LBE844:
.LBB845:
.LBB846:
	.loc 2 126 28 view .LVU514
	vmul.f32	s10, s0, s10
.LVL86:
	.loc 2 126 28 view .LVU515
.LBE846:
.LBE845:
	.loc 1 84 3 is_stmt 1 view .LVU516
.LBB851:
.LBI837:
	.loc 2 123 21 view .LVU517
.LBB840:
	.loc 2 126 2 view .LVU518
	.loc 2 126 35 is_stmt 0 view .LVU519
	vadd.f32	s7, s13, s12
.LBE840:
.LBE851:
.LBB852:
.LBB847:
	.loc 2 126 21 view .LVU520
	vadd.f32	s14, s10, s14
.LBE847:
.LBE852:
.LBB853:
.LBB836:
	.loc 2 126 49 view .LVU521
	vadd.f32	s6, s6, s11
.LBE836:
.LBE853:
.LBB854:
.LBB855:
	.loc 2 126 42 view .LVU522
	vmul.f32	s15, s16, s15
.LBE855:
.LBE854:
.LBB859:
.LBB860:
	.loc 2 126 21 view .LVU523
	vadd.f32	s10, s10, s8
.LBE860:
.LBE859:
	.loc 1 83 83 discriminator 2 view .LVU524
	vcmpe.f32	s6, #0
.LBB864:
.LBB848:
	.loc 2 126 35 view .LVU525
	vadd.f32	s8, s14, s12
.LBE848:
.LBE864:
.LBB865:
.LBB841:
	.loc 2 126 49 view .LVU526
	vadd.f32	s7, s7, s11
.LBE841:
.LBE865:
	.loc 1 83 83 discriminator 2 view .LVU527
	vmrs	APSR_nzcv, FPSCR
.LBB866:
.LBB856:
	.loc 2 126 35 view .LVU528
	vadd.f32	s9, s15, s9
.LVL87:
	.loc 2 126 35 view .LVU529
.LBE856:
.LBE866:
.LBB867:
.LBB861:
	vadd.f32	s12, s10, s12
.LVL88:
	.loc 2 126 35 view .LVU530
.LBE861:
.LBE867:
.LBB868:
.LBB869:
	vadd.f32	s13, s15, s13
.LBE869:
.LBE868:
.LBB872:
.LBB873:
	vadd.f32	s14, s15, s14
.LBE873:
.LBE872:
	.loc 1 84 83 discriminator 2 view .LVU531
	vcmpe.f32	s7, #0
.LBB876:
.LBB877:
	.loc 2 126 35 view .LVU532
	vadd.f32	s15, s15, s10
.LBE877:
.LBE876:
.LBB880:
.LBB849:
	.loc 2 126 49 view .LVU533
	vadd.f32	s10, s8, s11
.LBE849:
.LBE880:
	.loc 1 83 83 discriminator 2 view .LVU534
	movmi	r1, #1
	movpl	r1, #0
.LBB881:
.LBB862:
	.loc 2 126 49 view .LVU535
	vadd.f32	s12, s12, s11
.LBE862:
.LBE881:
	.loc 1 84 83 discriminator 2 view .LVU536
	vmrs	APSR_nzcv, FPSCR
	.loc 1 85 83 discriminator 2 view .LVU537
	vcmpe.f32	s10, #0
	.loc 1 84 83 discriminator 2 view .LVU538
	movmi	ip, #1
	movpl	ip, #0
.LBB882:
.LBB857:
	.loc 2 126 49 view .LVU539
	vadd.f32	s9, s9, s11
.LBE857:
.LBE882:
	.loc 1 85 83 discriminator 2 view .LVU540
	vmrs	APSR_nzcv, FPSCR
	.loc 1 86 83 discriminator 2 view .LVU541
	vcmpe.f32	s12, #0
	.loc 1 84 7 discriminator 2 view .LVU542
	add	r1, r1, ip
.LBB883:
.LBB870:
	.loc 2 126 49 view .LVU543
	vadd.f32	s13, s13, s11
.LBE870:
.LBE883:
	.loc 1 85 83 discriminator 2 view .LVU544
	movmi	ip, #1
	movpl	ip, #0
	.loc 1 86 83 discriminator 2 view .LVU545
	vmrs	APSR_nzcv, FPSCR
	.loc 1 87 83 discriminator 2 view .LVU546
	vcmpe.f32	s9, #0
	.loc 1 85 7 discriminator 2 view .LVU547
	add	ip, ip, r1
.LBB884:
.LBB874:
	.loc 2 126 49 view .LVU548
	vadd.f32	s14, s14, s11
.LVL89:
	.loc 2 126 49 view .LVU549
.LBE874:
.LBE884:
	.loc 1 85 3 is_stmt 1 view .LVU550
.LBB885:
.LBI845:
	.loc 2 123 21 view .LVU551
.LBB850:
	.loc 2 126 2 view .LVU552
	.loc 2 126 2 is_stmt 0 view .LVU553
.LBE850:
.LBE885:
	.loc 1 86 3 is_stmt 1 view .LVU554
.LBB886:
.LBI859:
	.loc 2 123 21 view .LVU555
.LBB863:
	.loc 2 126 2 view .LVU556
	.loc 2 126 2 is_stmt 0 view .LVU557
.LBE863:
.LBE886:
	.loc 1 86 83 discriminator 2 view .LVU558
	movmi	r1, #1
	movpl	r1, #0
	.loc 1 87 83 discriminator 2 view .LVU559
	vmrs	APSR_nzcv, FPSCR
	.loc 1 88 83 discriminator 2 view .LVU560
	vcmpe.f32	s13, #0
	.loc 1 86 7 discriminator 2 view .LVU561
	add	r1, r1, ip
.LVL90:
	.loc 1 87 3 is_stmt 1 view .LVU562
.LBB887:
.LBI854:
	.loc 2 123 21 view .LVU563
.LBB858:
	.loc 2 126 2 view .LVU564
	.loc 2 126 2 is_stmt 0 view .LVU565
.LBE858:
.LBE887:
.LBB888:
.LBB878:
	.loc 2 126 49 view .LVU566
	vadd.f32	s15, s15, s11
.LBE878:
.LBE888:
	.loc 1 87 83 discriminator 2 view .LVU567
	movmi	ip, #1
	movpl	ip, #0
	.loc 1 88 83 discriminator 2 view .LVU568
	vmrs	APSR_nzcv, FPSCR
	.loc 1 89 83 discriminator 2 view .LVU569
	vcmpe.f32	s14, #0
	.loc 1 87 7 discriminator 2 view .LVU570
	add	ip, ip, r1
.LVL91:
	.loc 1 88 3 is_stmt 1 view .LVU571
.LBB889:
.LBI868:
	.loc 2 123 21 view .LVU572
.LBB871:
	.loc 2 126 2 view .LVU573
	.loc 2 126 2 is_stmt 0 view .LVU574
.LBE871:
.LBE889:
	.loc 1 88 83 discriminator 2 view .LVU575
	movmi	r1, #1
	movpl	r1, #0
	.loc 1 89 83 discriminator 2 view .LVU576
	vmrs	APSR_nzcv, FPSCR
	.loc 1 90 83 discriminator 2 view .LVU577
	vcmpe.f32	s15, #0
	.loc 1 88 7 discriminator 2 view .LVU578
	add	r1, r1, ip
.LVL92:
	.loc 1 89 3 is_stmt 1 view .LVU579
.LBB890:
.LBI872:
	.loc 2 123 21 view .LVU580
.LBB875:
	.loc 2 126 2 view .LVU581
	.loc 2 126 2 is_stmt 0 view .LVU582
.LBE875:
.LBE890:
	.loc 1 89 83 discriminator 2 view .LVU583
	movmi	ip, #1
	movpl	ip, #0
	.loc 1 90 83 discriminator 2 view .LVU584
	vmrs	APSR_nzcv, FPSCR
	.loc 1 89 7 discriminator 2 view .LVU585
	add	ip, ip, r1
.LVL93:
	.loc 1 90 3 is_stmt 1 view .LVU586
.LBB891:
.LBI876:
	.loc 2 123 21 view .LVU587
.LBB879:
	.loc 2 126 2 view .LVU588
	.loc 2 126 2 is_stmt 0 view .LVU589
.LBE879:
.LBE891:
	.loc 1 91 3 is_stmt 1 view .LVU590
	.loc 1 90 83 is_stmt 0 discriminator 2 view .LVU591
	movmi	r1, #1
	movpl	r1, #0
	.loc 1 90 7 discriminator 2 view .LVU592
	add	r1, r1, ip
	.loc 1 91 6 view .LVU593
	cmp	r1, #8
.LBE892:
	.loc 1 81 20 discriminator 1 view .LVU594
	add	r3, r3, #16
.LVL94:
.LBB893:
	.loc 1 91 6 view .LVU595
	beq	.L30
.LBE893:
	.loc 1 81 20 discriminator 1 view .LVU596
	cmp	r2, r3
	bne	.L19
	mov	r3, r0
.LVL95:
	.loc 1 81 20 discriminator 1 view .LVU597
.LBE896:
	.loc 1 96 6 view .LVU598
	mov	r1, #0
.L20:
.LVL96:
.LBB897:
	.loc 1 97 30 is_stmt 1 discriminator 3 view .LVU599
	.loc 1 97 64 is_stmt 0 discriminator 3 view .LVU600
	vldr.32	s15, [r3, #288]
	vcmpe.f32	s4, s15
	vmrs	APSR_nzcv, FPSCR
	movmi	ip, #1
	movpl	ip, #0
	.loc 1 97 20 discriminator 1 view .LVU601
	add	r3, r3, #12
	cmp	r2, r3
	.loc 1 97 34 discriminator 3 view .LVU602
	add	r1, r1, ip
.LVL97:
	.loc 1 97 26 is_stmt 1 discriminator 3 view .LVU603
	.loc 1 97 20 discriminator 1 view .LVU604
	bne	.L20
.LBE897:
	.loc 1 98 2 view .LVU605
	.loc 1 98 5 is_stmt 0 view .LVU606
	cmp	r1, #8
	beq	.L30
	mov	r3, r0
	.loc 1 99 6 view .LVU607
	mov	r1, #0
.LVL98:
.L21:
.LBB898:
	.loc 1 100 30 is_stmt 1 discriminator 3 view .LVU608
	.loc 1 100 64 is_stmt 0 discriminator 3 view .LVU609
	vldr.32	s15, [r3, #288]
	vcmpe.f32	s15, s3
	vmrs	APSR_nzcv, FPSCR
	movmi	ip, #1
	movpl	ip, #0
	.loc 1 100 20 discriminator 1 view .LVU610
	add	r3, r3, #12
	cmp	r2, r3
	.loc 1 100 34 discriminator 3 view .LVU611
	add	r1, r1, ip
.LVL99:
	.loc 1 100 26 is_stmt 1 discriminator 3 view .LVU612
	.loc 1 100 20 discriminator 1 view .LVU613
	bne	.L21
.LBE898:
	.loc 1 101 2 view .LVU614
	.loc 1 101 5 is_stmt 0 view .LVU615
	cmp	r1, #8
	beq	.L30
	mov	r3, r0
	.loc 1 102 6 view .LVU616
	mov	r1, #0
.LVL100:
.L22:
.LBB899:
	.loc 1 103 30 is_stmt 1 discriminator 3 view .LVU617
	.loc 1 103 64 is_stmt 0 discriminator 3 view .LVU618
	vldr.32	s15, [r3, #292]
	vcmpe.f32	s0, s15
	vmrs	APSR_nzcv, FPSCR
	movmi	ip, #1
	movpl	ip, #0
	.loc 1 103 20 discriminator 1 view .LVU619
	add	r3, r3, #12
	cmp	r2, r3
	.loc 1 103 34 discriminator 3 view .LVU620
	add	r1, r1, ip
.LVL101:
	.loc 1 103 26 is_stmt 1 discriminator 3 view .LVU621
	.loc 1 103 20 discriminator 1 view .LVU622
	bne	.L22
.LBE899:
	.loc 1 104 2 view .LVU623
	.loc 1 104 5 is_stmt 0 view .LVU624
	cmp	r1, #8
	beq	.L30
	mov	r3, r0
	.loc 1 105 6 view .LVU625
	mov	r1, #0
.LVL102:
.L23:
.LBB900:
	.loc 1 106 30 is_stmt 1 discriminator 3 view .LVU626
	.loc 1 106 64 is_stmt 0 discriminator 3 view .LVU627
	vldr.32	s15, [r3, #292]
	vcmpe.f32	s15, s2
	vmrs	APSR_nzcv, FPSCR
	movmi	ip, #1
	movpl	ip, #0
	.loc 1 106 20 discriminator 1 view .LVU628
	add	r3, r3, #12
	cmp	r2, r3
	.loc 1 106 34 discriminator 3 view .LVU629
	add	r1, r1, ip
.LVL103:
	.loc 1 106 26 is_stmt 1 discriminator 3 view .LVU630
	.loc 1 106 20 discriminator 1 view .LVU631
	bne	.L23
.LBE900:
	.loc 1 107 2 view .LVU632
	.loc 1 107 5 is_stmt 0 view .LVU633
	cmp	r1, #8
	beq	.L30
	.loc 1 108 6 view .LVU634
	mov	r3, #0
.LVL104:
.L24:
.LBB901:
	.loc 1 109 30 is_stmt 1 discriminator 3 view .LVU635
	.loc 1 109 64 is_stmt 0 discriminator 3 view .LVU636
	vldr.32	s15, [r0, #296]
	vcmpe.f32	s16, s15
	vmrs	APSR_nzcv, FPSCR
	movmi	r1, #1
	movpl	r1, #0
	.loc 1 109 20 discriminator 1 view .LVU637
	add	r0, r0, #12
	cmp	r2, r0
	.loc 1 109 34 discriminator 3 view .LVU638
	add	r3, r3, r1
.LVL105:
	.loc 1 109 26 is_stmt 1 discriminator 3 view .LVU639
	.loc 1 109 20 discriminator 1 view .LVU640
	bne	.L24
.LBE901:
	.loc 1 110 2 view .LVU641
	.loc 1 110 5 is_stmt 0 view .LVU642
	cmp	r3, #8
.LBB902:
.LBB894:
	.loc 1 91 23 discriminator 1 view .LVU643
	mov	r0, #0
.LBE894:
.LBE902:
	.loc 1 110 5 view .LVU644
	beq	.L18
.LVL106:
.L25:
.LBB903:
	.loc 1 112 30 is_stmt 1 discriminator 3 view .LVU645
	.loc 1 112 64 is_stmt 0 discriminator 3 view .LVU646
	vldr.32	s15, [lr, #296]
	vcmpe.f32	s15, s1
	vmrs	APSR_nzcv, FPSCR
	movmi	r3, #1
	movpl	r3, #0
	.loc 1 112 20 discriminator 1 view .LVU647
	add	lr, lr, #12
	cmp	r2, lr
	.loc 1 112 34 discriminator 3 view .LVU648
	add	r0, r0, r3
.LVL107:
	.loc 1 112 26 is_stmt 1 discriminator 3 view .LVU649
	.loc 1 112 20 discriminator 1 view .LVU650
	bne	.L25
.LBE903:
	.loc 1 113 2 view .LVU651
	.loc 1 113 5 is_stmt 0 view .LVU652
	subs	r0, r0, #8
.LVL108:
	.loc 1 113 5 view .LVU653
	movne	r0, #1
.LVL109:
	.loc 1 117 1 view .LVU654
	add	sp, sp, #36
	.cfi_remember_state
	.cfi_def_cfa_offset 12
	@ sp needed
	vldm	sp!, {d8}
	.cfi_restore 80
	.cfi_restore 81
	.cfi_def_cfa_offset 4
	.loc 1 117 1 view .LVU655
	ldr	pc, [sp], #4
.LVL110:
.L30:
	.cfi_restore_state
.LBB904:
.LBB895:
	.loc 1 91 23 discriminator 1 view .LVU656
	mov	r0, #0
.LVL111:
.L18:
	.loc 1 91 23 discriminator 1 view .LVU657
.LBE895:
.LBE904:
	.loc 1 117 1 view .LVU658
	add	sp, sp, #36
	.cfi_def_cfa_offset 12
	@ sp needed
	vldm	sp!, {d8}
	.cfi_restore 80
	.cfi_restore 81
	.cfi_def_cfa_offset 4
	.loc 1 117 1 view .LVU659
	ldr	pc, [sp], #4
	.cfi_endproc
.LFE233:
	.size	Camera_IsAABBVisible, .-Camera_IsAABBVisible
	.text
.Letext0:
	.file 4 "C:/devkitPro/devkitARM/arm-none-eabi/include/machine/_default_types.h"
	.file 5 "C:/devkitPro/devkitARM/arm-none-eabi/include/sys/_stdint.h"
	.file 6 "C:/Users/Elias/CLionProjects/3DSCraft/include/world/Direction.h"
	.file 7 "C:/Users/Elias/CLionProjects/3DSCraft/include/blocks/Block.h"
	.file 8 "C:/Users/Elias/CLionProjects/3DSCraft/include/misc/Xorshift.h"
	.file 9 "C:/devkitPro/devkitARM/lib/gcc/arm-none-eabi/13.2.0/include/stddef.h"
	.file 10 "C:/devkitPro/devkitARM/arm-none-eabi/include/sys/lock.h"
	.file 11 "C:/Users/Elias/CLionProjects/3DSCraft/include/rendering/VBOCache.h"
	.file 12 "C:/Users/Elias/CLionProjects/3DSCraft/include/world/Chunk.h"
	.file 13 "C:/devkitPro/libctru/include/3ds/synchronization.h"
	.file 14 "C:/Users/Elias/CLionProjects/3DSCraft/include/world/WorkQueue.h"
	.file 15 "C:/Users/Elias/CLionProjects/3DSCraft/include/world/World.h"
	.file 16 "C:/Users/Elias/CLionProjects/3DSCraft/include/inventory/ItemStack.h"
	.file 17 "C:/Users/Elias/CLionProjects/3DSCraft/include/misc/Raycast.h"
	.file 18 "C:/Users/Elias/CLionProjects/3DSCraft/include/entity/Player.h"
	.file 19 "C:/devkitPro/libctru/include/c3d/types.h"
	.file 20 "C:/Users/Elias/CLionProjects/3DSCraft/include/rendering/Camera.h"
	.file 21 "C:/devkitPro/devkitARM/arm-none-eabi/include/math.h"
	.file 22 "C:/devkitPro/devkitARM/arm-none-eabi/include/string.h"
	.file 23 "C:/devkitPro/libctru/include/3ds/types.h"
	.file 24 "<built-in>"