	.arch armv6k
	.fpu vfp
	.eabi_attribute 28, 1
	.eabi_attribute 20, 1
	.eabi_attribute 21, 1
	.eabi_attribute 23, 3
	.eabi_attribute 24, 1
	.eabi_attribute 25, 1
	.eabi_attribute 26, 1
	.eabi_attribute 30, 2
	.eabi_attribute 34, 1
	.eabi_attribute 18, 4
	.file	"CommandLine.c"
	.text
.Ltext0:
	.cfi_sections	.debug_frame
	.file 1 "C:/Users/Elias/CLionProjects/3DSCraft/source/misc/CommandLine.c"
	.section	.rodata.str1.4,"aMS",%progbits,1
	.align	2
.LC0:
	.ascii	"tp %f %f %f\000"
	.align	2
.LC1:
	.ascii	"Teleported to %f, %f %f\000"
	.align	2
.LC2:
	.ascii	"Killed player\000"
	.align	2
.LC3:
	.ascii	"hp %i\000"
	.align	2
.LC4:
	.ascii	"Set player hp to %i\000"
	.align	2
.LC5:
	.ascii	"Cannot set hp to %i\000"
	.align	2
.LC6:
	.ascii	"ws %f %f %f\000"
	.align	2
.LC7:
	.ascii	"sx\000"
	.align	2
.LC8:
	.ascii	"sy\000"
	.align	2
.LC9:
	.ascii	"sz\000"
	.align	2
.LC10:
	.ascii	"ss\000"
	.align	2
.LC11:
	.ascii	"Set spawn to %f, %f %f\000"
	.align	2
.LC12:
	.ascii	"Mpack error %d while saving world manifest\000"
	.align	2
.LC13:
	.ascii	"Save file possibly corrupted, don't hit me plz\000"
	.align	2
.LC14:
	.ascii	"gm %i\000"
	.align	2
.LC15:
	.ascii	"Set gamemode to %i\000"
	.align	2
.LC16:
	.ascii	"Cannot set gamemode to %i\000"
	.align	2
.LC17:
	.ascii	"hunger %i\000"
	.align	2
.LC18:
	.ascii	"Set hunger to %i\000"
	.align	2
.LC19:
	.ascii	"Cannot set hunger to %i\000"
	.align	2
.LC20:
	.ascii	"diff %i\000"
	.align	2
.LC21:
	.ascii	"Set difficulty to %i\000"
	.align	2
.LC22:
	.ascii	"Cannot set difficulty to %i\000"
	.section	.text.CommandLine_Execute,"ax",%progbits
	.align	2
	.global	CommandLine_Execute
	.syntax unified
	.arm
	.type	CommandLine_Execute, %function
CommandLine_Execute:
.LVL0:
.LFB279:
	.loc 1 24 74 view -0
	.cfi_startproc
	@ args = 0, pretend = 0, frame = 72
	@ frame_needed = 0, uses_anonymous_args = 0
	.loc 1 25 2 view .LVU1
	.loc 1 24 74 is_stmt 0 view .LVU2
	push	{r4, r5, r6, r7, r8, r9, lr}
	.cfi_def_cfa_offset 28
	.cfi_offset 4, -28
	.cfi_offset 5, -24
	.cfi_offset 6, -20
	.cfi_offset 7, -16
	.cfi_offset 8, -12
	.cfi_offset 9, -8
	.cfi_offset 14, -4
	.loc 1 25 15 view .LVU3
	mov	r0, r2
.LVL1:
	.loc 1 24 74 view .LVU4
	sub	sp, sp, #92
	.cfi_def_cfa_offset 120
	.loc 1 24 74 view .LVU5
	mov	r4, r2
	mov	r7, r1
	.loc 1 25 15 view .LVU6
	bl	strlen
.LVL2:
	.loc 1 25 15 view .LVU7
	mov	r5, r0
	.loc 1 27 22 view .LVU8
	add	r0, sp, #48
.LVL3:
	.loc 1 26 2 is_stmt 1 view .LVU9
	.loc 1 27 2 view .LVU10
	.loc 1 27 22 is_stmt 0 view .LVU11
	bl	mpack_writer_destroy
.LVL4:
	.loc 1 28 5 view .LVU12
	cmp	r5, #0
.LVL5:
	.loc 1 28 2 is_stmt 1 view .LVU13
	.loc 1 28 5 is_stmt 0 view .LVU14
	beq	.L1
	.loc 1 28 18 discriminator 1 view .LVU15
	ldrb	r3, [r4]	@ zero_extendqisi2
	cmp	r3, #47
	beq	.L45
.LVL6:
.L1:
	.loc 1 109 1 view .LVU16
	add	sp, sp, #92
	.cfi_remember_state
	.cfi_def_cfa_offset 28
	@ sp needed
	pop	{r4, r5, r6, r7, r8, r9, pc}
.LVL7:
.L45:
	.cfi_restore_state
	.loc 1 28 35 discriminator 2 view .LVU17
	ldrb	r3, [r7, #128]	@ zero_extendqisi2
	cmp	r3, #0
	beq	.L1
.LBB6:
	.loc 1 29 6 view .LVU18
	cmp	r5, #8
	mov	r6, r0
	.loc 1 29 3 is_stmt 1 view .LVU19
.LBB7:
	.loc 1 31 8 is_stmt 0 view .LVU20
	add	r8, r4, #1
.LBE7:
	.loc 1 29 6 view .LVU21
	bhi	.L46
	.loc 1 39 3 is_stmt 1 view .LVU22
	.loc 1 39 6 is_stmt 0 view .LVU23
	cmp	r5, #2
	bne	.L43
	.loc 1 39 19 discriminator 1 view .LVU24
	ldrb	r3, [r4, #1]	@ zero_extendqisi2
	cmp	r3, #107
	beq	.L41
.LVL8:
.L43:
	.loc 1 39 19 discriminator 1 view .LVU25
	add	r5, sp, #40
.LVL9:
	.loc 1 39 19 discriminator 1 view .LVU26
	add	r9, sp, #36
	add	r4, sp, #44
.LVL10:
.L5:
	.loc 1 43 3 is_stmt 1 view .LVU27
	.loc 1 44 3 view .LVU28
	.loc 1 44 7 is_stmt 0 view .LVU29
	mov	r0, r8
	ldr	r1, .L48+4
	add	r2, sp, #20
	bl	sscanf
.LVL11:
	.loc 1 44 6 discriminator 1 view .LVU30
	cmp	r0, #0
	beq	.L6
	.loc 1 45 4 is_stmt 1 view .LVU31
	.loc 1 45 12 is_stmt 0 view .LVU32
	ldr	r1, [sp, #20]
	sub	r3, r1, #1
	.loc 1 45 7 view .LVU33
	cmp	r3, #19
	.loc 1 46 5 is_stmt 1 view .LVU34
	.loc 1 47 5 is_stmt 0 view .LVU35
	ldrls	r0, .L48+8
	.loc 1 49 5 view .LVU36
	ldrhi	r0, .L48+12
	.loc 1 46 15 view .LVU37
	strls	r1, [r7, #84]
	.loc 1 47 5 is_stmt 1 view .LVU38
	.loc 1 49 5 view .LVU39
	bl	DebugUI_Log
.LVL12:
.L6:
	.loc 1 52 3 view .LVU40
	.loc 1 53 3 view .LVU41
	.loc 1 53 7 is_stmt 0 view .LVU42
	add	r3, sp, #32
	str	r3, [sp]
	mov	r0, r8
	ldr	r1, .L48+16
	add	r3, sp, #28
	add	r2, sp, #24
	bl	sscanf
.LVL13:
	.loc 1 53 6 discriminator 1 view .LVU43
	cmp	r0, #3
	beq	.L47
.L9:
	.loc 1 72 3 is_stmt 1 view .LVU44
	.loc 1 73 3 view .LVU45
	.loc 1 73 7 is_stmt 0 view .LVU46
	mov	r2, r9
	mov	r0, r8
	ldr	r1, .L48+20
	bl	sscanf
.LVL14:
	.loc 1 73 6 discriminator 1 view .LVU47
	cmp	r0, #0
	beq	.L11
	.loc 1 74 4 is_stmt 1 view .LVU48
	.loc 1 74 12 is_stmt 0 view .LVU49
	ldr	r1, [sp, #36]
	sub	r3, r1, #1
	.loc 1 74 7 view .LVU50
	cmp	r3, #3
	.loc 1 75 5 is_stmt 1 view .LVU51
	.loc 1 76 5 is_stmt 0 view .LVU52
	ldrls	r0, .L48+24
	.loc 1 78 5 view .LVU53
	ldrhi	r0, .L48+28
	.loc 1 75 21 view .LVU54
	strls	r1, [r7, #124]
	.loc 1 76 5 is_stmt 1 view .LVU55
	.loc 1 78 5 view .LVU56
	bl	DebugUI_Log
.LVL15:
.L11:
	.loc 1 82 3 view .LVU57
	.loc 1 83 3 view .LVU58
	.loc 1 83 7 is_stmt 0 view .LVU59
	mov	r2, r5
	mov	r0, r8
	ldr	r1, .L48+32
	bl	sscanf
.LVL16:
	.loc 1 83 6 discriminator 1 view .LVU60
	cmp	r0, #0
	beq	.L13
	.loc 1 84 4 is_stmt 1 view .LVU61
	.loc 1 84 16 is_stmt 0 view .LVU62
	ldr	r1, [sp, #40]
	sub	r3, r1, #1
	.loc 1 84 7 view .LVU63
	cmp	r3, #3
	.loc 1 85 5 is_stmt 1 view .LVU64
	.loc 1 86 5 is_stmt 0 view .LVU65
	ldrls	r0, .L48+36
	.loc 1 88 5 view .LVU66
	ldrhi	r0, .L48+40
	.loc 1 85 19 view .LVU67
	strls	r1, [r7, #96]
	.loc 1 86 5 is_stmt 1 view .LVU68
	.loc 1 88 5 view .LVU69
	bl	DebugUI_Log
.LVL17:
.L13:
	.loc 1 92 3 view .LVU70
	.loc 1 93 3 view .LVU71
	.loc 1 93 7 is_stmt 0 view .LVU72
	mov	r2, r4
	mov	r0, r8
	ldr	r1, .L48+44
	bl	sscanf
.LVL18:
	.loc 1 93 6 discriminator 1 view .LVU73
	cmp	r0, #0
	beq	.L1
	.loc 1 94 4 is_stmt 1 view .LVU74
	.loc 1 94 14 is_stmt 0 view .LVU75
	ldr	r1, [sp, #44]
	sub	r3, r1, #1
	.loc 1 94 7 view .LVU76
	cmp	r3, #4
	.loc 1 95 5 is_stmt 1 view .LVU77
	.loc 1 96 5 is_stmt 0 view .LVU78
	ldrls	r0, .L48+48
	.loc 1 98 5 view .LVU79
	ldrhi	r0, .L48+52
	.loc 1 95 23 view .LVU80
	strls	r1, [r7, #100]
	.loc 1 98 5 is_stmt 1 view .LVU81
	bl	DebugUI_Log
.LVL19:
.LBE6:
	.loc 1 109 1 is_stmt 0 view .LVU82
	b	.L1
.LVL20:
.L46:
.LBB11:
.LBB8:
	.loc 1 30 4 is_stmt 1 view .LVU83
	.loc 1 31 4 view .LVU84
	.loc 1 31 8 is_stmt 0 view .LVU85
	add	r5, sp, #40
.LVL21:
	.loc 1 31 8 view .LVU86
	add	r9, sp, #36
	add	r4, sp, #44
.LVL22:
	.loc 1 31 8 view .LVU87
	mov	r3, r5
	mov	r2, r9
	mov	r0, r8
.LVL23:
	.loc 1 31 8 view .LVU88
	ldr	r1, .L48+56
	str	r4, [sp]
	bl	sscanf
.LVL24:
	.loc 1 31 7 discriminator 1 view .LVU89
	cmp	r0, #3
	bne	.L5
	.loc 1 32 5 is_stmt 1 view .LVU90
	.loc 1 33 28 is_stmt 0 view .LVU91
	vldr.32	s15, [sp, #40]
	.loc 1 34 24 view .LVU92
	vldr.32	s13, [sp, #44]
	.loc 1 33 28 view .LVU93
	vldr.32	s12, .L48
	.loc 1 35 5 view .LVU94
	vcvt.f64.f32	d4, s15
	.loc 1 32 24 view .LVU95
	vldr.32	s14, [sp, #36]
	.loc 1 33 28 view .LVU96
	vadd.f32	s15, s15, s12
	.loc 1 35 5 view .LVU97
	vcvt.f64.f32	d5, s13
	.loc 1 32 24 view .LVU98
	vstr.32	s14, [r7]
	.loc 1 33 5 is_stmt 1 view .LVU99
	.loc 1 34 24 is_stmt 0 view .LVU100
	vstr.32	s13, [r7, #8]
	.loc 1 35 5 view .LVU101
	vstr.64	d4, [sp]
	vstr.64	d5, [sp, #8]
	.loc 1 33 24 view .LVU102
	vstr.32	s15, [r7, #4]
	.loc 1 34 5 is_stmt 1 view .LVU103
	.loc 1 35 5 view .LVU104
	vcvt.f64.f32	d7, s14
	ldr	r0, .L48+60
	vmov	r2, r3, d7
	bl	DebugUI_Log
.LVL25:
.LBE8:
	.loc 1 39 3 view .LVU105
	b	.L5
.L47:
	.loc 1 54 4 view .LVU106
	.loc 1 57 20 is_stmt 0 view .LVU107
	mov	r3, #1
	str	r3, [r7, #120]
	.loc 1 54 19 view .LVU108
	ldr	r3, [sp, #24]	@ float
	.loc 1 58 4 view .LVU109
	ldr	r1, .L48+64
	.loc 1 54 19 view .LVU110
	str	r3, [r7, #108]	@ float
	.loc 1 55 4 is_stmt 1 view .LVU111
	.loc 1 55 19 is_stmt 0 view .LVU112
	ldr	r3, [sp, #28]	@ float
	.loc 1 58 4 view .LVU113
	add	r0, sp, #48
	.loc 1 55 19 view .LVU114
	str	r3, [r7, #112]	@ float
	.loc 1 56 4 is_stmt 1 view .LVU115
	.loc 1 56 19 is_stmt 0 view .LVU116
	ldr	r3, [sp, #32]	@ float
	str	r3, [r7, #116]	@ float
	.loc 1 57 4 is_stmt 1 view .LVU117
	.loc 1 58 4 view .LVU118
	bl	mpack_write_cstr
.LVL26:
	.loc 1 59 4 view .LVU119
	vldr.32	s0, [r7, #108]
	add	r0, sp, #48
	bl	mpack_write_float
.LVL27:
	.loc 1 60 4 view .LVU120
	ldr	r1, .L48+68
	add	r0, sp, #48
	bl	mpack_write_cstr
.LVL28:
	.loc 1 61 4 view .LVU121
	vldr.32	s0, [r7, #112]
	add	r0, sp, #48
	bl	mpack_write_float
.LVL29:
	.loc 1 62 4 view .LVU122
	ldr	r1, .L48+72
	add	r0, sp, #48
	bl	mpack_write_cstr
.LVL30:
	.loc 1 63 4 view .LVU123
	vldr.32	s0, [r7, #116]
	add	r0, sp, #48
	bl	mpack_write_float
.LVL31:
	.loc 1 64 4 view .LVU124
	ldr	r1, .L48+76
	add	r0, sp, #48
	bl	mpack_write_cstr
.LVL32:
	.loc 1 65 4 view .LVU125
.LBB9:
.LBI9:
	.file 2 "C:/Users/Elias/CLionProjects/3DSCraft/dependencies/mpack/mpack.h"
	.loc 2 1750 13 view .LVU126
.LBB10:
	.loc 2 1751 5 view .LVU127
	ldr	r2, [r7, #120]
	add	r0, sp, #48
.LVL33:
	.loc 2 1751 5 is_stmt 0 view .LVU128
	asr	r3, r2, #31
	bl	mpack_write_i64
.LVL34:
	.loc 2 1751 5 view .LVU129
.LBE10:
.LBE9:
	.loc 1 66 4 is_stmt 1 view .LVU130
	vldr.32	s14, [sp, #28]
	vldr.32	s12, [sp, #32]
	vcvt.f64.f32	d7, s14
	vldr.32	s11, [sp, #24]
	vcvt.f64.f32	d6, s12
	vstr.64	d7, [sp]
	vcvt.f64.f32	d7, s11
	vstr.64	d6, [sp, #8]
	vmov	r2, r3, d7
	ldr	r0, .L48+80
	bl	DebugUI_Log
.LVL35:
	.loc 1 67 4 view .LVU131
	.loc 1 67 7 is_stmt 0 view .LVU132
	cmp	r6, #0
	beq	.L9
	.loc 1 68 5 is_stmt 1 view .LVU133
	mov	r1, r6
	ldr	r0, .L48+84
	bl	DebugUI_Log
.LVL36:
	.loc 1 69 5 view .LVU134
	ldr	r0, .L48+88
	bl	DebugUI_Log
.LVL37:
	b	.L9
.LVL38:
.L41:
	.loc 1 40 4 view .LVU135
	.loc 1 40 14 is_stmt 0 view .LVU136
	mov	r3, #0
	.loc 1 41 4 view .LVU137
	ldr	r0, .L48+92
.LVL39:
	.loc 1 40 14 view .LVU138
	str	r3, [r7, #84]
	.loc 1 41 4 is_stmt 1 view .LVU139
	bl	DebugUI_Log
.LVL40:
	b	.L43
.L49:
	.align	2
.L48:
	.word	1065353216
	.word	.LC3
	.word	.LC4
	.word	.LC5
	.word	.LC6
	.word	.LC14
	.word	.LC15
	.word	.LC16
	.word	.LC17
	.word	.LC18
	.word	.LC19
	.word	.LC20
	.word	.LC21
	.word	.LC22
	.word	.LC0
	.word	.LC1
	.word	.LC7
	.word	.LC8
	.word	.LC9
	.word	.LC10
	.word	.LC11
	.word	.LC12
	.word	.LC13
	.word	.LC2
.LBE11:
	.cfi_endproc
.LFE279:
	.size	CommandLine_Execute, .-CommandLine_Execute
	.section	.rodata.str1.4
	.align	2
.LC23:
	.ascii	"Enter command\000"
	.section	.text.CommandLine_Activate,"ax",%progbits
	.align	2
	.global	CommandLine_Activate
	.syntax unified
	.arm
	.type	CommandLine_Activate, %function
CommandLine_Activate:
.LVL41:
.LFB278:
	.loc 1 12 57 view -0
	.cfi_startproc
	@ args = 0, pretend = 0, frame = 0
	@ frame_needed = 0, uses_anonymous_args = 0
	.loc 1 13 2 view .LVU141
	.loc 1 14 2 view .LVU142
	.loc 1 15 2 view .LVU143
	.loc 1 12 57 is_stmt 0 view .LVU144
	push	{r4, r5, r6, lr}
	.cfi_def_cfa_offset 16
	.cfi_offset 4, -16
	.cfi_offset 5, -12
	.cfi_offset 6, -8
	.cfi_offset 14, -4
	.loc 1 15 2 view .LVU145
	mov	r3, #64
	mov	r2, #2
	.loc 1 12 57 view .LVU146
	mov	r4, r0
	mov	r5, r1
	.loc 1 15 2 view .LVU147
	ldr	r0, .L53
.LVL42:
	.loc 1 15 2 view .LVU148
	mov	r1, #3
.LVL43:
	.loc 1 15 2 view .LVU149
	bl	swkbdInit
.LVL44:
	.loc 1 16 2 is_stmt 1 view .LVU150
	ldr	r1, .L53+4
	ldr	r0, .L53
	bl	swkbdSetHintText
.LVL45:
	.loc 1 18 2 view .LVU151
	.loc 1 18 15 is_stmt 0 view .LVU152
	ldr	r1, .L53+8
	mov	r2, #64
	sub	r0, r1, #1024
	bl	swkbdInputText
.LVL46:
	.loc 1 19 2 is_stmt 1 view .LVU153
	.loc 1 19 5 is_stmt 0 view .LVU154
	cmp	r0, #2
	popne	{r4, r5, r6, pc}
	.loc 1 20 3 is_stmt 1 view .LVU155
	mov	r1, r5
	mov	r0, r4
.LVL47:
	.loc 1 22 1 is_stmt 0 view .LVU156
	pop	{r4, r5, r6, lr}
	.cfi_restore 14
	.cfi_restore 6
	.cfi_restore 5
	.cfi_restore 4
	.cfi_def_cfa_offset 0
.LVL48:
	.loc 1 20 3 view .LVU157
	ldr	r2, .L53+8
	b	CommandLine_Execute
.LVL49:
.L54:
	.loc 1 20 3 view .LVU158
	.align	2
.L53:
	.word	.LANCHOR0
	.word	.LC23
	.word	.LANCHOR0+1024
	.cfi_endproc
.LFE278:
	.size	CommandLine_Activate, .-CommandLine_Activate
	.bss
	.align	2
	.set	.LANCHOR0,. + 0
	.type	swkbd.1, %object
	.size	swkbd.1, 1024
swkbd.1:
	.space	1024
	.type	textBuffer.0, %object
	.size	textBuffer.0, 64
textBuffer.0:
	.space	64
	.text
.Letext0:
	.file 3 "C:/devkitPro/devkitARM/arm-none-eabi/include/machine/_default_types.h"
	.file 4 "C:/devkitPro/devkitARM/arm-none-eabi/include/sys/_stdint.h"
	.file 5 "C:/Users/Elias/CLionProjects/3DSCraft/include/world/Direction.h"
	.file 6 "C:/Users/Elias/CLionProjects/3DSCraft/include/blocks/Block.h"
	.file 7 "C:/Users/Elias/CLionProjects/3DSCraft/include/misc/Xorshift.h"
	.file 8 "C:/devkitPro/devkitARM/lib/gcc/arm-none-eabi/13.2.0/include/stddef.h"
	.file 9 "C:/devkitPro/devkitARM/arm-none-eabi/include/sys/lock.h"
	.file 10 "C:/Users/Elias/CLionProjects/3DSCraft/include/rendering/VBOCache.h"
	.file 11 "C:/Users/Elias/CLionProjects/3DSCraft/include/world/Chunk.h"
	.file 12 "C:/devkitPro/libctru/include/3ds/types.h"
	.file 13 "C:/devkitPro/libctru/include/3ds/synchronization.h"
	.file 14 "C:/devkitPro/libctru/include/3ds/applets/swkbd.h"
	.file 15 "C:/Users/Elias/CLionProjects/3DSCraft/include/world/WorkQueue.h"
	.file 16 "C:/Users/Elias/CLionProjects/3DSCraft/include/world/World.h"
	.file 17 "C:/Users/Elias/CLionProjects/3DSCraft/include/inventory/ItemStack.h"
	.file 18 "C:/Users/Elias/CLionProjects/3DSCraft/include/misc/VecMath.h"
	.file 19 "C:/Users/Elias/CLionProjects/3DSCraft/include/misc/Raycast.h"
	.file 20 "C:/Users/Elias/CLionProjects/3DSCraft/include/entity/Player.h"
	.file 21 "C:/Users/Elias/CLionProjects/3DSCraft/include/gui/DebugUI.h"
	.file 22 "C:/devkitPro/devkitARM/arm-none-eabi/include/stdio.h"
	.file 23 "C:/devkitPro/devkitARM/arm-none-eabi/include/string.h"