	.arch armv6k
	.fpu vfp
	.eabi_attribute 28, 1
	.eabi_attribute 20, 1
	.eabi_attribute 21, 1
	.eabi_attribute 23, 3
	.eabi_attribute 24, 1
	.eabi_attribute 25, 1
	.eabi_attribute 26, 1
	.eabi_attribute 30, 2
	.eabi_attribute 34, 1
	.eabi_attribute 18, 4
	.file	"Cursor.c"
	.text
.Ltext0:
	.cfi_sections	.debug_frame
	.file 1 "C:/Users/Elias/CLionProjects/3DSCraft/source/rendering/Cursor.c"
	.section	.text.Cursor_Init,"ax",%progbits
	.align	2
	.global	Cursor_Init
	.syntax unified
	.arm
	.type	Cursor_Init, %function
Cursor_Init:
.LFB212:
	.loc 1 11 20 view -0
	.cfi_startproc
	@ args = 0, pretend = 0, frame = 0
	@ frame_needed = 0, uses_anonymous_args = 0
	.loc 1 12 2 view .LVU1
	.loc 1 11 20 is_stmt 0 view .LVU2
	push	{r4, lr}
	.cfi_def_cfa_offset 8
	.cfi_offset 4, -8
	.cfi_offset 14, -4
	.loc 1 12 14 view .LVU3
	mov	r0, #576
	bl	linearAlloc
.LVL0:
	mov	r4, r0
	.loc 1 12 12 discriminator 1 view .LVU4
	ldr	r3, .L7
	.loc 1 13 2 view .LVU5
	mov	r2, #576
	ldr	r1, .L7+4
	.loc 1 12 12 discriminator 1 view .LVU6
	str	r0, [r3]
	.loc 1 13 2 is_stmt 1 view .LVU7
	bl	memcpy
.LVL1:
	.loc 1 15 2 view .LVU8
.LBB22:
	.loc 1 15 7 view .LVU9
	.loc 1 15 20 discriminator 1 view .LVU10
	.loc 1 16 23 is_stmt 0 view .LVU11
	mvn	r3, #0
	mov	r0, r4
	add	r2, r4, #576
.LVL2:
.L2:
	.loc 1 16 3 is_stmt 1 view .LVU12
	.loc 1 17 3 view .LVU13
	.loc 1 16 23 is_stmt 0 view .LVU14
	strh	r3, [r0, #10]	@ movhi
	.loc 1 18 3 is_stmt 1 view .LVU15
	.loc 1 18 23 is_stmt 0 view .LVU16
	strb	r3, [r0, #12]
	.loc 1 15 30 is_stmt 1 discriminator 3 view .LVU17
	.loc 1 15 20 discriminator 1 view .LVU18
	add	r0, r0, #16
	cmp	r0, r2
	bne	.L2
	pop	{r4, pc}
.L8:
	.align	2
.L7:
	.word	.LANCHOR0
	.word	cube_sides_lut
.LBE22:
	.cfi_endproc
.LFE212:
	.size	Cursor_Init, .-Cursor_Init
	.section	.text.Cursor_Deinit,"ax",%progbits
	.align	2
	.global	Cursor_Deinit
	.syntax unified
	.arm
	.type	Cursor_Deinit, %function
Cursor_Deinit:
.LFB213:
	.loc 1 22 22 view -0
	.cfi_startproc
	@ args = 0, pretend = 0, frame = 0
	@ frame_needed = 0, uses_anonymous_args = 0
	@ link register save eliminated.
	.loc 1 22 24 view .LVU20
	ldr	r3, .L10
	ldr	r0, [r3]
	b	linearFree
.LVL3:
.L11:
	.align	2
.L10:
	.word	.LANCHOR0
	.cfi_endproc
.LFE213:
	.size	Cursor_Deinit, .-Cursor_Deinit
	.section	.text.Cursor_Draw,"ax",%progbits
	.align	2
	.global	Cursor_Draw
	.syntax unified
	.arm
	.type	Cursor_Draw, %function
Cursor_Draw:
.LVL4:
.LFB214:
	.loc 1 24 116 view -0
	.cfi_startproc
	@ args = 12, pretend = 0, frame = 136
	@ frame_needed = 0, uses_anonymous_args = 0
	.loc 1 25 2 view .LVU22
	.loc 1 26 2 view .LVU23
	.loc 1 24 116 is_stmt 0 view .LVU24
	mov	ip, r0
	push	{r4, r5, r6, r7, r8, r9, r10, fp, lr}
	.cfi_def_cfa_offset 36
	.cfi_offset 4, -36
	.cfi_offset 5, -32
	.cfi_offset 6, -28
	.cfi_offset 7, -24
	.cfi_offset 8, -20
	.cfi_offset 9, -16
	.cfi_offset 10, -12
	.cfi_offset 11, -8
	.cfi_offset 14, -4
	sub	sp, sp, #148
	.cfi_def_cfa_offset 184
.LVL5:
.LBB45:
.LBI45:
	.file 2 "C:/devkitPro/libctru/include/c3d/maths.h"
	.loc 2 324 20 is_stmt 1 view .LVU25
	.loc 2 326 2 view .LVU26
.LBB46:
.LBI46:
	.loc 2 311 20 view .LVU27
.LBB47:
	.loc 2 313 2 view .LVU28
.LBB48:
.LBI48:
	.loc 2 288 20 view .LVU29
.LBB49:
	.loc 2 290 2 view .LVU30
.LBE49:
.LBE48:
.LBE47:
.LBE46:
.LBE45:
	.loc 1 24 116 is_stmt 0 view .LVU31
	ldrb	lr, [sp, #192]	@ zero_extendqisi2
	ldr	r10, [sp, #188]
	mov	r4, r1
	mov	r8, r2
.LBB62:
.LBB58:
.LBB54:
.LBB52:
.LBB50:
	.loc 2 290 2 view .LVU32
	mov	r1, #0
.LVL6:
	.loc 2 290 2 view .LVU33
	mov	r2, #64
.LVL7:
	.loc 2 290 2 view .LVU34
	add	r0, sp, #16
.LVL8:
	.loc 2 290 2 view .LVU35
.LBE50:
.LBE52:
.LBE54:
.LBE58:
.LBE62:
	.loc 1 24 116 view .LVU36
	mov	r7, r3
	str	lr, [sp, #12]
	str	ip, [sp, #8]
	ldr	r9, [sp, #184]
.LBB63:
.LBB59:
.LBB55:
.LBB53:
.LBB51:
	.loc 2 290 2 view .LVU37
	bl	memset
.LVL9:
	.loc 2 290 2 view .LVU38
.LBE51:
.LBE53:
	.loc 2 314 2 is_stmt 1 view .LVU39
.LBE55:
.LBE59:
.LBE63:
	.loc 1 27 2 is_stmt 0 view .LVU40
	vmov	s15, r10	@ int
	vcvt.f32.s32	s2, s15
	vmov	s15, r9	@ int
	vcvt.f32.s32	s1, s15
	vmov	s15, r7	@ int
.LBB64:
.LBB60:
.LBB56:
	.loc 2 314 14 view .LVU41
	mov	r3, #1065353216
.LBE56:
.LBE60:
.LBE64:
.LBB65:
	.loc 1 34 11 view .LVU42
	mov	r6, #0
.LBE65:
	.loc 1 27 2 view .LVU43
	mov	r1, #1
	vcvt.f32.s32	s0, s15
	add	r0, sp, #16
.LVL10:
.LBB71:
.LBB61:
.LBB57:
	.loc 2 314 14 view .LVU44
	str	r3, [sp, #28]	@ float
	.loc 2 315 2 is_stmt 1 view .LVU45
	.loc 2 315 14 is_stmt 0 view .LVU46
	str	r3, [sp, #40]	@ float
	.loc 2 316 2 is_stmt 1 view .LVU47
	.loc 2 316 14 is_stmt 0 view .LVU48
	str	r3, [sp, #52]	@ float
	.loc 2 317 2 is_stmt 1 view .LVU49
	.loc 2 317 14 is_stmt 0 view .LVU50
	str	r3, [sp, #64]	@ float
.LVL11:
	.loc 2 317 14 view .LVU51
.LBE57:
.LBE61:
.LBE71:
	.loc 1 27 2 is_stmt 1 view .LVU52
	bl	Mtx_Translate
.LVL12:
	.loc 1 29 2 view .LVU53
	.loc 1 30 2 view .LVU54
	mov	r1, r4
	add	r2, sp, #16
	add	r0, sp, #80
	bl	Mtx_Multiply
.LVL13:
	.loc 1 32 2 view .LVU55
	.loc 1 33 2 view .LVU56
	.loc 1 33 15 is_stmt 0 view .LVU57
	ldr	r3, .L22+12
	.loc 1 32 9 view .LVU58
	mov	fp, r6
	ldr	r5, .L22+16
	.loc 1 33 15 view .LVU59
	ldr	r4, [r3]
.LVL14:
	.loc 1 34 2 is_stmt 1 view .LVU60
.LBB72:
	.loc 1 34 7 view .LVU61
	.loc 1 34 20 discriminator 1 view .LVU62
	b	.L16
.LVL15:
.L13:
	.loc 1 34 26 discriminator 2 view .LVU63
	add	r6, r6, #1
.LVL16:
	.loc 1 34 20 discriminator 1 view .LVU64
	cmp	r6, #6
	add	r5, r5, #12
.LVL17:
	.loc 1 34 20 is_stmt 0 discriminator 1 view .LVU65
	beq	.L21
.LVL18:
.L16:
.LBB66:
	.loc 1 35 3 is_stmt 1 view .LVU66
	.loc 1 36 3 view .LVU67
	.loc 1 36 7 is_stmt 0 view .LVU68
	ldr	r3, [r5, #8]
	ldr	r2, [r5, #4]
	ldr	r1, [r5]
	mov	r0, r8
	add	r3, r10, r3
	add	r2, r9, r2
	add	r1, r7, r1
	bl	World_GetBlock
.LVL19:
	.loc 1 36 6 discriminator 1 view .LVU69
	cmp	r0, #0
	bne	.L13
.LBB67:
	.loc 1 37 4 is_stmt 1 view .LVU70
	.loc 1 37 16 is_stmt 0 view .LVU71
	ldr	r3, .L22+20
	add	r1, r6, r6, lsl #1
	.loc 1 37 4 view .LVU72
	add	r1, r3, r1, lsl #5
	mov	r2, #96
	mov	r0, r4
	bl	memcpy
.LVL20:
	.loc 1 38 4 is_stmt 1 view .LVU73
	.loc 1 38 12 is_stmt 0 discriminator 1 view .LVU74
	ldr	r3, [sp, #12]
	add	r1, r4, #96
	cmp	r3, r6
	movne	r3, #32
	moveq	r3, #65
	orr	r2, r3, r3, lsl #8
.LVL21:
	.loc 1 39 4 is_stmt 1 view .LVU75
.LBB68:
	.loc 1 39 9 view .LVU76
	.loc 1 39 22 discriminator 1 view .LVU77
.L15:
	.loc 1 40 5 view .LVU78
	.loc 1 41 5 view .LVU79
	.loc 1 40 19 is_stmt 0 view .LVU80
	strh	r2, [r4, #10]	@ movhi
	.loc 1 42 5 is_stmt 1 view .LVU81
	.loc 1 42 19 is_stmt 0 view .LVU82
	strb	r3, [r4, #12]
	.loc 1 39 28 is_stmt 1 discriminator 3 view .LVU83
	.loc 1 39 22 discriminator 1 view .LVU84
	add	r4, r4, #16
	cmp	r4, r1
	bne	.L15
	.loc 1 39 22 is_stmt 0 discriminator 1 view .LVU85
.LBE68:
	.loc 1 44 4 is_stmt 1 view .LVU86
.LVL22:
	.loc 1 45 4 view .LVU87
.LBE67:
.LBE66:
	.loc 1 34 26 is_stmt 0 discriminator 2 view .LVU88
	add	r6, r6, #1
.LVL23:
	.loc 1 34 20 discriminator 1 view .LVU89
	cmp	r6, #6
.LBB70:
.LBB69:
	.loc 1 45 13 view .LVU90
	add	fp, fp, #6
.LVL24:
	.loc 1 45 13 view .LVU91
.LBE69:
.LBE70:
	.loc 1 34 26 is_stmt 1 discriminator 2 view .LVU92
	.loc 1 34 20 discriminator 1 view .LVU93
	add	r5, r5, #12
.LVL25:
	.loc 1 34 20 is_stmt 0 discriminator 1 view .LVU94
	bne	.L16
.LVL26:
.L21:
	.loc 1 34 20 discriminator 1 view .LVU95
.LBE72:
	.loc 1 49 2 is_stmt 1 view .LVU96
.LBB73:
.LBI73:
	.file 3 "C:/devkitPro/libctru/include/c3d/uniforms.h"
	.loc 3 38 20 view .LVU97
	.loc 3 40 2 view .LVU98
.LBB74:
.LBI74:
	.loc 3 30 20 view .LVU99
.LBB75:
	.loc 3 32 2 view .LVU100
	.loc 3 33 2 view .LVU101
.LBB76:
.LBI76:
	.loc 3 15 25 view .LVU102
.LBB77:
	.loc 3 17 2 view .LVU103
	.loc 3 18 2 view .LVU104
	.loc 3 18 16 discriminator 1 view .LVU105
	.loc 3 19 3 view .LVU106
	.loc 3 18 26 discriminator 3 view .LVU107
	.loc 3 18 16 discriminator 1 view .LVU108
	.loc 3 19 3 view .LVU109
	.loc 3 18 26 discriminator 3 view .LVU110
	.loc 3 18 16 discriminator 1 view .LVU111
	.loc 3 19 3 view .LVU112
	.loc 3 18 26 discriminator 3 view .LVU113
	.loc 3 18 16 discriminator 1 view .LVU114
	.loc 3 19 3 view .LVU115
.LBE77:
.LBE76:
	.loc 3 35 10 is_stmt 0 view .LVU116
	ldr	r1, [sp, #8]
.LBB80:
.LBB78:
	.loc 3 19 31 view .LVU117
	ldr	r3, .L22+24
	ldr	r2, .L22+28
.LBE78:
.LBE80:
	.loc 3 35 10 view .LVU118
	ldr	lr, .L22+32
.LBB81:
.LBB79:
	.loc 3 19 31 view .LVU119
	str	r2, [r3, r1]	@ unaligned
	.loc 3 18 26 is_stmt 1 discriminator 3 view .LVU120
.LVL27:
	.loc 3 18 16 discriminator 1 view .LVU121
	.loc 3 20 2 view .LVU122
	.loc 3 20 2 is_stmt 0 view .LVU123
.LBE79:
.LBE81:
	.loc 3 34 2 is_stmt 1 view .LVU124
	.loc 3 34 16 discriminator 1 view .LVU125
	.loc 3 35 10 is_stmt 0 view .LVU126
	add	ip, sp, #80
.LVL28:
	.loc 3 35 10 view .LVU127
	add	lr, lr, r1, lsl #4
	ldmia	ip!, {r0, r1, r2, r3}
.LVL29:
	.loc 3 35 10 view .LVU128
	stmia	lr!, {r0, r1, r2, r3}
	ldmia	ip!, {r0, r1, r2, r3}
	stmia	lr!, {r0, r1, r2, r3}
	ldmia	ip!, {r0, r1, r2, r3}
	stmia	lr!, {r0, r1, r2, r3}
	ldm	ip, {r0, r1, r2, r3}
.LBE75:
.LBE74:
.LBE73:
	.loc 1 51 2 view .LVU129
	mov	r4, #0
.LVL30:
.LBB84:
.LBB83:
.LBB82:
	.loc 3 35 10 view .LVU130
	stm	lr, {r0, r1, r2, r3}
.LVL31:
	.loc 3 35 10 view .LVU131
.LBE82:
.LBE83:
.LBE84:
	.loc 1 51 2 is_stmt 1 view .LVU132
	mov	r5, #7
	mov	r3, #1
	mov	r1, r4
	mov	r2, r3
	mov	r0, r4
	strd	r4, [sp]
	bl	C3D_AlphaBlend
.LVL32:
	.loc 1 53 2 view .LVU133
	vldr.32	s1, .L22
	vldr.32	s0, .L22+4
	mov	r0, #1
	bl	C3D_DepthMap
.LVL33:
	.loc 1 55 2 view .LVU134
	.loc 1 55 20 is_stmt 0 view .LVU135
	mov	r0, r4
	bl	C3D_GetTexEnv
.LVL34:
.LBB85:
.LBB86:
	.file 4 "C:/devkitPro/libctru/include/c3d/texenv.h"
	.loc 4 38 13 view .LVU136
	mvn	r3, #0
.LVL35:
	.loc 4 38 13 view .LVU137
.LBE86:
.LBE85:
	.loc 1 56 2 is_stmt 1 view .LVU138
.LBB88:
.LBI85:
	.loc 4 31 20 view .LVU139
.LBB87:
	.loc 4 33 2 view .LVU140
	.loc 4 34 2 view .LVU141
	.loc 4 35 2 view .LVU142
	.loc 4 35 13 is_stmt 0 view .LVU143
	str	r4, [r0, #4]
	.loc 4 36 2 is_stmt 1 view .LVU144
	.loc 4 37 2 view .LVU145
	.loc 4 38 13 is_stmt 0 view .LVU146
	str	r3, [r0, #12]
	.loc 4 36 15 view .LVU147
	str	r4, [r0, #8]
	.loc 4 38 2 is_stmt 1 view .LVU148
	.loc 4 39 2 view .LVU149
	.loc 4 40 2 view .LVU150
	.loc 4 39 16 is_stmt 0 view .LVU151
	str	r4, [r0, #16]
.LVL36:
	.loc 4 39 16 view .LVU152
.LBE87:
.LBE88:
	.loc 1 57 2 is_stmt 1 view .LVU153
.LBB89:
.LBI89:
	.loc 4 49 20 view .LVU154
.LBB90:
	.loc 4 54 2 view .LVU155
	.loc 4 55 2 view .LVU156
	.loc 4 56 3 view .LVU157
	.loc 4 57 2 view .LVU158
	.loc 4 58 3 view .LVU159
	.loc 4 56 15 is_stmt 0 view .LVU160
	str	r4, [r0]
.LVL37:
	.loc 4 56 15 view .LVU161
.LBE90:
.LBE89:
	.loc 1 58 2 is_stmt 1 view .LVU162
	.loc 1 60 2 view .LVU163
	.loc 1 60 25 is_stmt 0 view .LVU164
	bl	C3D_GetBufInfo
.LVL38:
	.loc 1 62 2 view .LVU165
	mov	r9, #0
	.loc 1 60 25 view .LVU166
	mov	r7, r0
.LVL39:
	.loc 1 61 2 is_stmt 1 view .LVU167
	.loc 1 62 2 is_stmt 0 view .LVU168
	ldr	r8, .L22+36
.LVL40:
	.loc 1 61 2 view .LVU169
	bl	BufInfo_Init
.LVL41:
	.loc 1 62 2 is_stmt 1 view .LVU170
	ldr	r1, .L22+12
	mov	r3, #4
	ldr	r1, [r1]
	mov	r2, #16
	mov	r0, r7
	strd	r8, [sp]
	bl	BufInfo_Add
.LVL42:
	.loc 1 64 2 view .LVU171
	mov	r2, fp
	mov	r1, r4
	mov	r0, r4
	bl	C3D_DrawArrays
.LVL43:
	.loc 1 66 2 view .LVU172
	mov	r3, r5
	mov	r2, r6
	mov	r1, r4
	mov	r0, r4
	str	r5, [sp, #4]
	str	r6, [sp]
	bl	C3D_AlphaBlend
.LVL44:
	.loc 1 68 2 view .LVU173
	vldr.32	s1, .L22+8
	vldr.32	s0, .L22+4
	mov	r0, #1
	bl	C3D_DepthMap
.LVL45:
	.loc 1 69 1 is_stmt 0 view .LVU174
	add	sp, sp, #148
	.cfi_def_cfa_offset 36
	@ sp needed
	pop	{r4, r5, r6, r7, r8, r9, r10, fp, pc}
.LVL46:
.L23:
	.loc 1 69 1 view .LVU175
	.align	2
.L22:
	.word	981668463
	.word	-1082130432
	.word	0
	.word	.LANCHOR0
	.word	DirectionToOffset
	.word	cube_sides_lut
	.word	C3D_FVUnifDirty
	.word	16843009
	.word	C3D_FVUnif
	.word	12816
	.cfi_endproc
.LFE214:
	.size	Cursor_Draw, .-Cursor_Draw
	.bss
	.align	2
	.set	.LANCHOR0,. + 0
	.type	cursorVBO, %object
	.size	cursorVBO, 4
cursorVBO:
	.space	4
	.text
.Letext0:
	.file 5 "C:/Users/Elias/CLionProjects/3DSCraft/include/world/Direction.h"
	.file 6 "C:/devkitPro/devkitARM/arm-none-eabi/include/machine/_default_types.h"
	.file 7 "C:/devkitPro/devkitARM/arm-none-eabi/include/sys/_stdint.h"
	.file 8 "C:/Users/Elias/CLionProjects/3DSCraft/include/blocks/Block.h"
	.file 9 "C:/Users/Elias/CLionProjects/3DSCraft/include/misc/Xorshift.h"
	.file 10 "C:/devkitPro/devkitARM/lib/gcc/arm-none-eabi/13.2.0/include/stddef.h"
	.file 11 "C:/devkitPro/devkitARM/arm-none-eabi/include/sys/lock.h"
	.file 12 "C:/Users/Elias/CLionProjects/3DSCraft/include/rendering/VBOCache.h"
	.file 13 "C:/Users/Elias/CLionProjects/3DSCraft/include/world/Chunk.h"
	.file 14 "C:/devkitPro/libctru/include/3ds/types.h"
	.file 15 "C:/devkitPro/libctru/include/3ds/synchronization.h"
	.file 16 "C:/devkitPro/libctru/include/3ds/services/csnd.h"
	.file 17 "C:/devkitPro/libctru/include/3ds/services/ndm.h"
	.file 18 "C:/devkitPro/libctru/include/3ds/gpu/enums.h"
	.file 19 "C:/devkitPro/libctru/include/3ds/ndsp/channel.h"
	.file 20 "C:/devkitPro/libctru/include/3ds/applets/error.h"
	.file 21 "C:/Users/Elias/CLionProjects/3DSCraft/include/world/WorkQueue.h"
	.file 22 "C:/Users/Elias/CLionProjects/3DSCraft/include/world/World.h"
	.file 23 "C:/devkitPro/libctru/include/c3d/types.h"
	.file 24 "C:/devkitPro/libctru/include/c3d/buffers.h"
	.file 25 "C:/Users/Elias/CLionProjects/3DSCraft/include/rendering/VertexFmt.h"
	.file 26 "C:/devkitPro/devkitARM/arm-none-eabi/include/string.h"
	.file 27 "C:/devkitPro/libctru/include/c3d/base.h"
	.file 28 "C:/devkitPro/libctru/include/c3d/effect.h"
	.file 29 "C:/devkitPro/libctru/include/3ds/allocator/linear.h"
	.file 30 "<built-in>"