	.arch armv6k
	.fpu vfp
	.eabi_attribute 28, 1
	.eabi_attribute 20, 1
	.eabi_attribute 21, 1
	.eabi_attribute 23, 3
	.eabi_attribute 24, 1
	.eabi_attribute 25, 1
	.eabi_attribute 26, 1
	.eabi_attribute 30, 2
	.eabi_attribute 34, 1
	.eabi_attribute 18, 4
	.file	"Hand.c"
	.text
.Ltext0:
	.cfi_sections	.debug_frame
	.file 1 "C:/Users/Elias/CLionProjects/3DSCraft/source/rendering/Hand.c"
	.section	.rodata.str1.4,"aMS",%progbits,1
	.align	2
.LC2:
	.ascii	"romfs:/assets/textures/entity/player.png\000"
	.section	.text.Hand_Init,"ax",%progbits
	.align	2
	.global	Hand_Init
	.syntax unified
	.arm
	.type	Hand_Init, %function
Hand_Init:
.LFB230:
	.loc 1 15 18 view -0
	.cfi_startproc
	@ args = 0, pretend = 0, frame = 0
	@ frame_needed = 0, uses_anonymous_args = 0
	.loc 1 16 2 view .LVU1
	.loc 1 15 18 is_stmt 0 view .LVU2
	push	{r4, lr}
	.cfi_def_cfa_offset 8
	.cfi_offset 4, -8
	.cfi_offset 14, -4
	.loc 1 16 12 view .LVU3
	mov	r0, #576
	bl	linearAlloc
.LVL0:
	.loc 1 19 1 view .LVU4
	pop	{r4, lr}
	.cfi_restore 14
	.cfi_restore 4
	.cfi_def_cfa_offset 0
	.loc 1 16 10 discriminator 1 view .LVU5
	ldr	r3, .L4
	.loc 1 18 2 view .LVU6
	ldr	r1, .L4+4
	.loc 1 16 10 discriminator 1 view .LVU7
	str	r0, [r3], #4
	.loc 1 18 2 is_stmt 1 view .LVU8
	mov	r0, r3
	b	Texture_Load
.LVL1:
.L5:
	.align	2
.L4:
	.word	.LANCHOR0
	.word	.LC2
	.cfi_endproc
.LFE230:
	.size	Hand_Init, .-Hand_Init
	.section	.text.Hand_Deinit,"ax",%progbits
	.align	2
	.global	Hand_Deinit
	.syntax unified
	.arm
	.type	Hand_Deinit, %function
Hand_Deinit:
.LFB231:
	.loc 1 20 20 view -0
	.cfi_startproc
	@ args = 0, pretend = 0, frame = 0
	@ frame_needed = 0, uses_anonymous_args = 0
	.loc 1 21 2 view .LVU10
	.loc 1 20 20 is_stmt 0 view .LVU11
	push	{r4, lr}
	.cfi_def_cfa_offset 8
	.cfi_offset 4, -8
	.cfi_offset 14, -4
	.loc 1 21 2 view .LVU12
	ldr	r4, .L8
	ldr	r0, [r4], #4
	bl	linearFree
.LVL2:
	.loc 1 22 2 is_stmt 1 view .LVU13
	mov	r0, r4
	.loc 1 23 1 is_stmt 0 view .LVU14
	pop	{r4, lr}
	.cfi_restore 14
	.cfi_restore 4
	.cfi_def_cfa_offset 0
	.loc 1 22 2 view .LVU15
	b	C3D_TexDelete
.LVL3:
.L9:
	.align	2
.L8:
	.word	.LANCHOR0
	.cfi_endproc
.LFE231:
	.size	Hand_Deinit, .-Hand_Deinit
	.section	.text.Hand_Draw,"ax",%progbits
	.align	2
	.global	Hand_Draw
	.syntax unified
	.arm
	.type	Hand_Draw, %function
Hand_Draw:
.LVL4:
.LFB232:
	.loc 1 25 87 is_stmt 1 view -0
	.cfi_startproc
	@ args = 0, pretend = 0, frame = 192
	@ frame_needed = 0, uses_anonymous_args = 0
	.loc 1 25 87 is_stmt 0 view .LVU17
	push	{r4, r5, r6, r7, r8, r9, r10, fp, lr}
	.cfi_def_cfa_offset 36
	.cfi_offset 4, -36
	.cfi_offset 5, -32
	.cfi_offset 6, -28
	.cfi_offset 7, -24
	.cfi_offset 8, -20
	.cfi_offset 9, -16
	.cfi_offset 10, -12
	.cfi_offset 11, -8
	.cfi_offset 14, -4
	vpush.64	{d8, d9}
	.cfi_def_cfa_offset 52
	.cfi_offset 80, -52
	.cfi_offset 81, -48
	.cfi_offset 82, -44
	.cfi_offset 83, -40
	sub	sp, sp, #204
	.cfi_def_cfa_offset 256
	.loc 1 25 87 view .LVU18
	mov	r6, r3
	mov	r10, r2
	mov	r7, r2
	mov	r5, r2
	str	r2, [sp, #12]
	mov	r4, r0
.LBB46:
.LBB47:
.LBB48:
.LBB49:
.LBB50:
	.file 2 "C:/devkitPro/libctru/include/c3d/maths.h"
	.loc 2 290 2 view .LVU19
	mov	r2, #64
.LBE50:
.LBE49:
.LBE48:
.LBE47:
.LBE46:
	.loc 1 25 87 view .LVU20
	mov	r8, r1
.LBB61:
.LBB58:
.LBB55:
.LBB53:
.LBB51:
	.loc 2 290 2 view .LVU21
	add	r0, sp, #136
.LVL5:
	.loc 2 290 2 view .LVU22
	mov	r1, #0
.LVL6:
	.loc 2 290 2 view .LVU23
	bl	memset
.LVL7:
	.loc 2 290 2 view .LVU24
.LBE51:
.LBE53:
	.loc 2 314 14 view .LVU25
	mov	r3, #1065353216
.LBE55:
.LBE58:
.LBE61:
	.loc 1 29 31 view .LVU26
	vldr.32	s0, [r6, #20]
.LBB62:
.LBB59:
.LBB56:
	.loc 2 314 14 view .LVU27
	str	r3, [sp, #148]	@ float
	.loc 2 315 14 view .LVU28
	str	r3, [sp, #160]	@ float
	.loc 2 316 14 view .LVU29
	str	r3, [sp, #172]	@ float
	.loc 2 317 14 view .LVU30
	str	r3, [sp, #184]	@ float
.LBE56:
.LBE59:
.LBE62:
	.loc 1 29 31 view .LVU31
	bl	sinf
.LVL8:
	.loc 1 29 53 discriminator 1 view .LVU32
	vldr.32	s13, .L53
	.loc 1 29 29 discriminator 1 view .LVU33
	vldr.32	s14, .L53+4
	.loc 1 25 87 view .LVU34
	lsr	r5, r5, #16
	uxtb	r5, r5
	lsr	r7, r7, #8
	.loc 1 29 83 discriminator 1 view .LVU35
	cmp	r5, #0
	.loc 1 29 31 view .LVU36
	vmov.f32	s15, s0
	.loc 1 29 29 discriminator 1 view .LVU37
	vmla.f32	s14, s0, s13
	uxtb	r10, r10
.LVL9:
	.loc 1 29 29 discriminator 1 view .LVU38
	uxtb	r7, r7
.LVL10:
	.loc 1 26 2 is_stmt 1 view .LVU39
	.loc 1 27 2 view .LVU40
	.loc 1 28 2 view .LVU41
.LBB63:
.LBI46:
	.loc 2 324 20 view .LVU42
	.loc 2 326 2 view .LVU43
.LBB60:
.LBI47:
	.loc 2 311 20 view .LVU44
.LBB57:
	.loc 2 313 2 view .LVU45
.LBB54:
.LBI49:
	.loc 2 288 20 view .LVU46
.LBB52:
	.loc 2 290 2 view .LVU47
	.loc 2 290 2 is_stmt 0 view .LVU48
.LBE52:
.LBE54:
	.loc 2 314 2 is_stmt 1 view .LVU49
	.loc 2 315 2 view .LVU50
	.loc 2 316 2 view .LVU51
	.loc 2 317 2 view .LVU52
	.loc 2 317 2 is_stmt 0 view .LVU53
.LBE57:
.LBE60:
.LBE63:
	.loc 1 29 2 is_stmt 1 view .LVU54
	.loc 1 29 83 is_stmt 0 discriminator 1 view .LVU55
	bne	.L48
	.loc 1 30 74 discriminator 1 view .LVU56
	vcmpe.f32	s0, #0
	.loc 1 29 2 discriminator 4 view .LVU57
	vldr.32	s13, .L53+8
	.loc 1 30 74 discriminator 1 view .LVU58
	vmrs	APSR_nzcv, FPSCR
	.loc 1 29 2 discriminator 4 view .LVU59
	vadd.f32	s0, s14, s13
	.loc 1 30 74 discriminator 1 view .LVU60
	bmi	.L49
	.loc 1 30 101 discriminator 4 view .LVU61
	vldr.32	s14, .L53+12
	.loc 1 29 2 view .LVU62
	vldr.32	s1, .L53+16
	vldr.32	s2, .L53+20
	mov	r1, #1
	vnmls.f32	s1, s15, s14
	add	r0, sp, #136
	bl	Mtx_Translate
.LVL11:
	.loc 1 31 2 is_stmt 1 view .LVU63
.L27:
	.loc 1 25 87 is_stmt 0 view .LVU64
	vldr.32	s0, .L53+24
	b	.L13
.L48:
	.loc 1 30 74 discriminator 1 view .LVU65
	vcmpe.f32	s0, #0
	.loc 1 29 2 discriminator 4 view .LVU66
	vldr.32	s13, .L53+28
	.loc 1 30 74 discriminator 1 view .LVU67
	vmrs	APSR_nzcv, FPSCR
	.loc 1 29 2 discriminator 4 view .LVU68
	vadd.f32	s0, s14, s13
	.loc 1 30 74 discriminator 1 view .LVU69
	bmi	.L50
	.loc 1 30 101 discriminator 4 view .LVU70
	vldr.32	s14, .L53+12
	.loc 1 29 2 view .LVU71
	vldr.32	s1, .L53+16
	vldr.32	s2, .L53+32
	mov	r1, #1
	vnmls.f32	s1, s15, s14
	add	r0, sp, #136
	bl	Mtx_Translate
.LVL12:
	.loc 1 31 2 is_stmt 1 view .LVU72
.L30:
	.loc 1 25 87 is_stmt 0 view .LVU73
	vldr.32	s0, .L53+36
.L13:
	.loc 1 31 2 discriminator 4 view .LVU74
	mov	r1, #1
	add	r0, sp, #136
	bl	Mtx_RotateX
.LVL13:
	.loc 1 32 2 is_stmt 1 view .LVU75
	vldr.32	s0, .L53+36
	mov	r1, #1
	add	r0, sp, #136
	bl	Mtx_RotateY
.LVL14:
	.loc 1 33 2 view .LVU76
	.loc 1 33 5 is_stmt 0 view .LVU77
	vldr.32	s14, .L53+40
	.loc 1 33 12 view .LVU78
	vldr.32	s15, [r6, #76]
	.loc 1 33 5 view .LVU79
	vcmpe.f32	s15, s14
	vmrs	APSR_nzcv, FPSCR
	bgt	.L51
	.loc 1 39 2 is_stmt 1 view .LVU80
	.loc 1 39 5 is_stmt 0 view .LVU81
	cmp	r5, #0
	.loc 1 40 2 discriminator 2 view .LVU82
	vldrne.32	s2, .L53+44
	.loc 1 39 5 view .LVU83
	beq	.L52
.L16:
	.loc 1 40 2 discriminator 4 view .LVU84
	vldr.32	s1, .L53+44
	add	r0, sp, #136
	vmov.f32	s0, s1
	bl	Mtx_Scale
.LVL15:
	.loc 1 42 2 is_stmt 1 view .LVU85
	mov	r1, r8
	add	r2, sp, #136
	add	r0, sp, #72
	bl	Mtx_Multiply
.LVL16:
	.loc 1 44 2 view .LVU86
.LBB64:
.LBI64:
	.file 3 "C:/devkitPro/libctru/include/c3d/uniforms.h"
	.loc 3 38 20 view .LVU87
	.loc 3 40 2 view .LVU88
.LBB65:
.LBI65:
	.loc 3 30 20 view .LVU89
.LBB66:
	.loc 3 32 2 view .LVU90
	.loc 3 33 2 view .LVU91
.LBB67:
.LBI67:
	.loc 3 15 25 view .LVU92
.LBB68:
	.loc 3 17 2 view .LVU93
	.loc 3 18 2 view .LVU94
	.loc 3 18 16 discriminator 1 view .LVU95
	.loc 3 19 3 view .LVU96
	.loc 3 18 26 discriminator 3 view .LVU97
	.loc 3 18 16 discriminator 1 view .LVU98
	.loc 3 19 3 view .LVU99
	.loc 3 18 26 discriminator 3 view .LVU100
	.loc 3 18 16 discriminator 1 view .LVU101
	.loc 3 19 3 view .LVU102
	.loc 3 18 26 discriminator 3 view .LVU103
	.loc 3 18 16 discriminator 1 view .LVU104
	.loc 3 19 3 view .LVU105
	.loc 3 19 31 is_stmt 0 view .LVU106
	ldr	r3, .L53+48
	ldr	r2, .L53+52
.LBE68:
.LBE67:
	.loc 3 35 10 view .LVU107
	ldr	lr, .L53+56
.LBB70:
.LBB69:
	.loc 3 19 31 view .LVU108
	str	r2, [r3, r4]	@ unaligned
	.loc 3 18 26 is_stmt 1 discriminator 3 view .LVU109
.LVL17:
	.loc 3 18 16 discriminator 1 view .LVU110
	.loc 3 20 2 view .LVU111
	.loc 3 20 2 is_stmt 0 view .LVU112
.LBE69:
.LBE70:
	.loc 3 34 2 is_stmt 1 view .LVU113
	.loc 3 34 16 discriminator 1 view .LVU114
	.loc 3 35 10 is_stmt 0 view .LVU115
	add	lr, lr, r4, lsl #4
.LVL18:
	.loc 3 35 10 view .LVU116
	add	ip, sp, #72
.LVL19:
	.loc 3 35 10 view .LVU117
	ldmia	ip!, {r0, r1, r2, r3}
.LVL20:
	.loc 3 35 10 view .LVU118
	stmia	lr!, {r0, r1, r2, r3}
.LVL21:
	.loc 3 35 10 view .LVU119
	ldmia	ip!, {r0, r1, r2, r3}
	stmia	lr!, {r0, r1, r2, r3}
.LVL22:
	.loc 3 35 10 view .LVU120
	ldmia	ip!, {r0, r1, r2, r3}
	stmia	lr!, {r0, r1, r2, r3}
.LVL23:
	.loc 3 35 10 view .LVU121
	ldm	ip, {r0, r1, r2, r3}
	stm	lr, {r0, r1, r2, r3}
.LVL24:
	.loc 3 35 10 view .LVU122
.LBE66:
.LBE65:
.LBE64:
	.loc 1 46 2 is_stmt 1 view .LVU123
	ldr	r3, .L53+60
	mov	r2, #576
	ldr	r1, .L53+64
	ldr	r0, [r3]
	bl	memcpy
.LVL25:
	.loc 1 47 2 view .LVU124
.LBB71:
	.loc 1 47 7 view .LVU125
	.loc 1 47 20 discriminator 1 view .LVU126
	.loc 1 48 3 view .LVU127
	.loc 1 48 6 is_stmt 0 view .LVU128
	cmp	r5, #0
	beq	.L34
	mov	r5, #0
.LVL26:
	.loc 1 48 6 view .LVU129
	mov	r6, r5
.LVL27:
.LBB72:
.LBB73:
.LBB74:
	.loc 1 60 76 discriminator 1 view .LVU130
	ldr	r4, .L53+68
.LVL28:
	.loc 1 60 76 discriminator 1 view .LVU131
	add	fp, sp, #24
.LVL29:
.L21:
	.loc 1 60 76 discriminator 1 view .LVU132
.LBE74:
.LBE73:
	.loc 1 49 4 is_stmt 1 view .LVU133
	.loc 1 50 4 view .LVU134
	.loc 1 51 4 view .LVU135
	uxtb	r8, r5
	mov	r1, r8
	mov	r3, fp
	mov	r2, r7
	mov	r0, r10
	bl	Block_GetTexture
.LVL30:
	.loc 1 52 4 view .LVU136
	mov	r2, r8
	mov	r1, r7
	mov	r0, r10
	add	r3, sp, #20
	bl	Block_GetColor
.LVL31:
	.loc 1 57 4 view .LVU137
.LBB78:
	.loc 1 57 9 view .LVU138
	.loc 1 57 22 discriminator 1 view .LVU139
.LBB75:
	.loc 1 60 34 is_stmt 0 view .LVU140
	ldr	r3, .L53+60
	.loc 1 60 84 discriminator 4 view .LVU141
	ldrh	r8, [sp, #24]
	.loc 1 60 34 view .LVU142
	ldr	r3, [r3]
	.loc 1 61 84 discriminator 4 view .LVU143
	ldrh	lr, [sp, #26]
	add	r1, r3, #96
	.loc 1 63 32 view .LVU144
	ldrh	ip, [sp, #20]
	.loc 1 65 32 view .LVU145
	ldrb	r0, [sp, #22]	@ zero_extendqisi2
	add	r3, r3, r6
	add	r1, r1, r6
.LVL32:
.L20:
	.loc 1 58 5 is_stmt 1 view .LVU146
	.loc 1 60 5 view .LVU147
	.loc 1 60 76 is_stmt 0 view .LVU148
	ldrsh	r2, [r3, #6]
	.loc 1 63 25 view .LVU149
	strh	ip, [r3, #10]	@ movhi
	.loc 1 60 76 discriminator 1 view .LVU150
	cmp	r2, #1
	.loc 1 61 76 view .LVU151
	ldrsh	r2, [r3, #8]
	.loc 1 60 76 discriminator 1 view .LVU152
	movne	r9, #1
	moveq	r9, r4
	.loc 1 61 76 discriminator 1 view .LVU153
	cmp	r2, #1
	movne	r2, #1
	moveq	r2, r4
	.loc 1 65 25 view .LVU154
	strb	r0, [r3, #12]
.LBE75:
	.loc 1 57 22 discriminator 1 view .LVU155
	add	r3, r3, #16
.LBB76:
	.loc 1 60 76 discriminator 4 view .LVU156
	add	r9, r8, r9
	.loc 1 61 76 discriminator 4 view .LVU157
	add	r2, lr, r2
.LBE76:
	.loc 1 57 22 discriminator 1 view .LVU158
	cmp	r3, r1
.LBB77:
	.loc 1 60 24 discriminator 4 view .LVU159
	strh	r9, [r3, #-10]	@ movhi
	.loc 1 61 5 is_stmt 1 view .LVU160
	.loc 1 61 24 is_stmt 0 discriminator 4 view .LVU161
	strh	r2, [r3, #-8]	@ movhi
	.loc 1 63 5 is_stmt 1 view .LVU162
	.loc 1 64 5 view .LVU163
	.loc 1 65 5 view .LVU164
.LBE77:
	.loc 1 57 28 discriminator 2 view .LVU165
	.loc 1 57 22 discriminator 1 view .LVU166
	bne	.L20
.LBE78:
.LBE72:
	.loc 1 47 26 discriminator 2 view .LVU167
	add	r5, r5, #1
.LVL33:
	.loc 1 47 20 discriminator 1 view .LVU168
	cmp	r5, #6
	add	r6, r6, #96
	bne	.L21
.LVL34:
.L22:
	.loc 1 47 20 is_stmt 0 discriminator 1 view .LVU169
.LBE71:
	.loc 1 101 2 is_stmt 1 view .LVU170
	mov	r2, #255
	mov	r1, #7
	mov	r0, #1
	bl	C3D_AlphaTest
.LVL35:
	.loc 1 103 2 view .LVU171
	.loc 1 103 25 is_stmt 0 view .LVU172
	bl	C3D_GetBufInfo
.LVL36:
	.loc 1 105 2 view .LVU173
	mov	r7, #0
	.loc 1 103 25 view .LVU174
	mov	r4, r0
.LVL37:
	.loc 1 104 2 is_stmt 1 view .LVU175
	.loc 1 105 2 is_stmt 0 view .LVU176
	ldr	r6, .L53+72
	.loc 1 104 2 view .LVU177
	bl	BufInfo_Init
.LVL38:
	.loc 1 105 2 is_stmt 1 view .LVU178
	strd	r6, [sp]
	ldr	r1, .L53+60
	mov	r3, #4
	mov	r2, #16
	mov	r0, r4
	ldr	r1, [r1]
	bl	BufInfo_Add
.LVL39:
	.loc 1 107 2 view .LVU179
	mov	r1, #0
	mov	r2, #36
	mov	r0, r1
	bl	C3D_DrawArrays
.LVL40:
	.loc 1 109 2 view .LVU180
	mov	r2, #0
	mov	r1, #6
	mov	r0, r2
	bl	C3D_AlphaTest
.LVL41:
	.loc 1 110 1 is_stmt 0 view .LVU181
	add	sp, sp, #204
	.cfi_remember_state
	.cfi_def_cfa_offset 52
	@ sp needed
	vldm	sp!, {d8-d9}
	.cfi_restore 82
	.cfi_restore 83
	.cfi_restore 80
	.cfi_restore 81
	.cfi_def_cfa_offset 36
	pop	{r4, r5, r6, r7, r8, r9, r10, fp, pc}
.LVL42:
.L49:
	.cfi_restore_state
	.loc 1 30 101 discriminator 4 view .LVU182
	vldr.32	s14, .L53+12
	.loc 1 29 2 view .LVU183
	vldr.32	s1, .L53+16
	vldr.32	s2, .L53+20
	mov	r1, #1
	vnmla.f32	s1, s15, s14
	add	r0, sp, #136
	bl	Mtx_Translate
.LVL43:
	.loc 1 31 2 is_stmt 1 view .LVU184
	b	.L27
.L50:
	.loc 1 30 101 is_stmt 0 discriminator 4 view .LVU185
	vldr.32	s14, .L53+12
	.loc 1 29 2 view .LVU186
	vldr.32	s1, .L53+16
	vldr.32	s2, .L53+32
	mov	r1, #1
	vnmla.f32	s1, s15, s14
	add	r0, sp, #136
	bl	Mtx_Translate
.LVL44:
	.loc 1 31 2 is_stmt 1 view .LVU187
	b	.L30
.LVL45:
.L34:
.LBB93:
	.loc 1 31 2 is_stmt 0 view .LVU188
	mov	r6, r5
.LVL46:
	.loc 1 31 2 view .LVU189
	add	fp, sp, #24
.LVL47:
.L17:
	.loc 1 68 4 is_stmt 1 view .LVU190
	mov	r0, #0
	ldr	r1, .L53+76
	bl	C3D_TexBind
.LVL48:
	.loc 1 70 4 view .LVU191
	.loc 1 70 7 is_stmt 0 view .LVU192
	cmp	r5, #1
	ble	.L23
.LBB79:
.LBB80:
	.loc 1 95 45 view .LVU193
	ldr	r3, .L53+60
	ldr	r4, [r3]
	add	ip, r4, r6
.L24:
	add	r6, r6, #96
	add	r4, r4, r6
	lsl	r8, r5, #2
.L26:
	.loc 1 84 5 is_stmt 1 view .LVU194
	.loc 1 86 5 view .LVU195
	.loc 1 86 19 is_stmt 0 view .LVU196
	mov	lr, fp
	ldr	r7, .L53+80
.LBE80:
	.loc 1 83 22 discriminator 1 view .LVU197
	add	ip, ip, #16
.LBB81:
	.loc 1 86 19 view .LVU198
	ldmia	r7!, {r0, r1, r2, r3}
	stmia	lr!, {r0, r1, r2, r3}
	ldmia	r7!, {r0, r1, r2, r3}
	stmia	lr!, {r0, r1, r2, r3}
	ldm	r7, {r0, r1, r2, r3}
	stm	lr, {r0, r1, r2, r3}
	.loc 1 95 5 is_stmt 1 view .LVU199
	.loc 1 95 53 is_stmt 0 view .LVU200
	ldrsh	r2, [ip, #-10]
	.loc 1 96 53 view .LVU201
	ldrsh	r3, [ip, #-8]
	.loc 1 95 37 view .LVU202
	add	r1, sp, #200
	add	r2, r8, r2
	add	r2, r1, r2, lsl #1
	.loc 1 95 24 view .LVU203
	ldrh	r2, [r2, #-176]
	.loc 1 96 37 view .LVU204
	add	r3, r3, #2
	add	r3, r8, r3
	.loc 1 95 24 view .LVU205
	strh	r2, [ip, #-10]	@ movhi
	.loc 1 96 5 is_stmt 1 view .LVU206
	.loc 1 96 37 is_stmt 0 view .LVU207
	add	r3, r1, r3, lsl #1
	.loc 1 96 24 view .LVU208
	ldrh	r3, [r3, #-176]
.LBE81:
	.loc 1 83 22 discriminator 1 view .LVU209
	cmp	ip, r4
.LBB82:
	.loc 1 96 24 view .LVU210
	strh	r3, [ip, #-8]	@ movhi
.LBE82:
	.loc 1 83 28 is_stmt 1 discriminator 3 view .LVU211
	.loc 1 83 22 discriminator 1 view .LVU212
	bne	.L26
.LBE79:
	.loc 1 47 26 discriminator 2 view .LVU213
	add	r5, r5, #1
.LVL49:
	.loc 1 47 20 discriminator 1 view .LVU214
	cmp	r5, #6
	bne	.L17
	b	.L22
.LVL50:
.L23:
.LBB83:
	.loc 1 72 5 view .LVU215
	.loc 1 72 19 is_stmt 0 view .LVU216
	mov	lr, fp
.LBB84:
.LBB85:
	.loc 1 77 21 view .LVU217
	ldr	r3, .L53+60
.LBE85:
.LBE84:
	.loc 1 72 19 view .LVU218
	ldr	r7, .L53+84
.LBB90:
.LBB86:
	.loc 1 77 21 view .LVU219
	ldr	r4, [r3]
.LBE86:
.LBE90:
	.loc 1 72 19 view .LVU220
	ldmia	r7!, {r0, r1, r2, r3}
	stmia	lr!, {r0, r1, r2, r3}
	ldm	r7, {r0, r1, r2, r3}
	add	ip, r4, r6
	stm	lr, {r0, r1, r2, r3}
	.loc 1 75 5 is_stmt 1 view .LVU221
.LBB91:
	.loc 1 75 10 view .LVU222
.LVL51:
	.loc 1 75 23 discriminator 1 view .LVU223
.LBE91:
	.loc 1 72 19 is_stmt 0 view .LVU224
	mov	lr, ip
	eor	r9, r5, #1
	add	r8, r4, #96
	lsl	r9, r9, #1
	add	r8, r8, r6
	lsl	r10, r5, #1
.LVL52:
.L25:
.LBB92:
.LBB87:
	.loc 1 76 6 is_stmt 1 view .LVU225
	.loc 1 77 6 view .LVU226
	.loc 1 78 10 is_stmt 0 view .LVU227
	ldrsh	r1, [lr, #8]
	.loc 1 77 10 view .LVU228
	ldrsh	r3, [lr, #6]
.LVL53:
	.loc 1 78 6 is_stmt 1 view .LVU229
	.loc 1 79 6 view .LVU230
	.loc 1 79 79 is_stmt 0 view .LVU231
	add	r2, r9, r1
	add	r2, r3, r2, lsl #1
	add	r0, sp, #200
	add	r2, r0, r2, lsl #2
	.loc 1 79 25 view .LVU232
	ldrh	r2, [r2, #-176]
	.loc 1 80 79 view .LVU233
	add	r1, r10, r1
.LVL54:
	.loc 1 80 79 view .LVU234
	add	r3, r3, r1, lsl #1
.LVL55:
	.loc 1 80 79 view .LVU235
	add	r3, r0, r3, lsl #2
	.loc 1 79 25 view .LVU236
	strh	r2, [lr, #6]	@ movhi
.LVL56:
	.loc 1 80 6 is_stmt 1 view .LVU237
.LBE87:
	.loc 1 75 23 is_stmt 0 discriminator 1 view .LVU238
	add	lr, lr, #16
.LVL57:
.LBB88:
	.loc 1 80 25 view .LVU239
	ldrh	r3, [r3, #-174]
.LBE88:
	.loc 1 75 23 discriminator 1 view .LVU240
	cmp	lr, r8
.LBB89:
	.loc 1 80 25 view .LVU241
	strh	r3, [lr, #-8]	@ movhi
.LVL58:
	.loc 1 80 25 view .LVU242
.LBE89:
	.loc 1 75 29 is_stmt 1 discriminator 3 view .LVU243
	.loc 1 75 23 discriminator 1 view .LVU244
	bne	.L25
	b	.L24
.L54:
	.align	2
.L53:
	.word	1022739087
	.word	1056964608
	.word	1045220557
	.word	1008981770
	.word	1059984507
	.word	-1077097267
	.word	1062045612
	.word	0
	.word	-1080452710
	.word	1043511490
	.word	-1110651699
	.word	1049582633
	.word	C3D_FVUnifDirty
	.word	16843009
	.word	C3D_FVUnif
	.word	.LANCHOR0
	.word	cube_sides_lut
	.word	4095
	.word	12816
	.word	.LANCHOR0+4
	.word	.LANCHOR1+32
	.word	.LANCHOR1
	.word	1036831949
	.word	1050253722
.LVL59:
.L51:
	.loc 1 75 23 is_stmt 0 discriminator 1 view .LVU245
.LBE92:
.LBE83:
.LBE93:
.LBB94:
	.loc 1 34 3 is_stmt 1 view .LVU246
	.loc 1 34 48 is_stmt 0 view .LVU247
	vldr.32	s14, .L53+88
	.loc 1 34 56 view .LVU248
	vldr.32	s18, .L53+92
	.loc 1 34 48 view .LVU249
	vadd.f32	s15, s15, s14
	.loc 1 34 56 view .LVU250
	vdiv.f32	s14, s15, s18
	.loc 1 34 74 view .LVU251
	vldr.64	d6, .L55
	.loc 1 34 56 view .LVU252
	vcvt.f64.f32	d7, s14
	.loc 1 34 74 view .LVU253
	vmul.f64	d7, d7, d6
	.loc 1 34 16 view .LVU254
	vcvt.f32.f64	s16, d7
	vmov.f32	s0, s16
	bl	sinf
.LVL60:
	vmov.f32	s15, s0
	.loc 1 35 13 view .LVU255
	vmov.f32	s0, s16
	.loc 1 34 16 view .LVU256
	vmov.f32	s16, s15
.LVL61:
	.loc 1 35 3 is_stmt 1 view .LVU257
	.loc 1 35 13 is_stmt 0 view .LVU258
	bl	cosf
.LVL62:
	.loc 1 36 3 view .LVU259
	vneg.f32	s16, s16
.LVL63:
	.loc 1 36 3 view .LVU260
	mov	r1, #1
	.loc 1 35 13 view .LVU261
	vmov.f32	s17, s0
.LVL64:
	.loc 1 36 3 is_stmt 1 view .LVU262
	add	r0, sp, #136
	vmov.f32	s0, s16
.LVL65:
	.loc 1 36 3 is_stmt 0 view .LVU263
	bl	Mtx_RotateX
.LVL66:
	.loc 1 37 3 is_stmt 1 view .LVU264
	vldr.32	s2, .L55+8
	vldr.32	s0, .L55+12
	vmul.f32	s2, s16, s2
	mov	r1, #1
	vnmul.f32	s1, s17, s18
	add	r0, sp, #136
	bl	Mtx_Translate
.LVL67:
.LBE94:
	.loc 1 39 2 view .LVU265
	.loc 1 39 5 is_stmt 0 view .LVU266
	cmp	r5, #0
	.loc 1 40 2 discriminator 2 view .LVU267
	vldrne.32	s2, .L55+16
	.loc 1 39 5 view .LVU268
	bne	.L16
.LVL68:
.L52:
	.loc 1 39 25 is_stmt 1 discriminator 1 view .LVU269
	vldr.32	s0, .L55+20
	mov	r1, #1
	add	r0, sp, #136
	bl	Mtx_RotateZ
.LVL69:
	.loc 1 40 2 view .LVU270
	.loc 1 40 2 is_stmt 0 discriminator 1 view .LVU271
	vldr.32	s2, .L55+24
	b	.L16
.L56:
	.align	3
.L55:
	.word	1413754136
	.word	1074340347
	.word	1048576000
	.word	0
	.word	1049582633
	.word	1060288706
	.word	1061997773
	.cfi_endproc
.LFE232:
	.size	Hand_Draw, .-Hand_Draw
	.section	.rodata
	.align	2
	.set	.LANCHOR1,. + 0
.LC0:
	.short	0
	.short	1
	.short	0
	.short	0
	.short	1
	.short	1
	.short	1
	.short	0
	.short	1
	.short	0
	.short	1
	.short	1
	.short	0
	.short	0
	.short	0
	.short	1
.LC1:
	.short	24576
	.short	26624
	.short	10240
	.short	16384
	.short	20480
	.short	22528
	.short	10240
	.short	16384
	.short	26624
	.short	28672
	.short	10240
	.short	16384
	.short	22528
	.short	24576
	.short	10240
	.short	16384
	.short	24576
	.short	26624
	.short	8192
	.short	10240
	.short	22528
	.short	24576
	.short	8192
	.short	10240
	.bss
	.align	2
	.set	.LANCHOR0,. + 0
	.type	handVBO, %object
	.size	handVBO, 4
handVBO:
	.space	4
	.type	SkinTexture, %object
	.size	SkinTexture, 24
SkinTexture:
	.space	24
	.text
.Letext0:
	.file 4 "C:/devkitPro/devkitARM/arm-none-eabi/include/machine/_default_types.h"
	.file 5 "C:/devkitPro/devkitARM/arm-none-eabi/include/sys/_stdint.h"
	.file 6 "C:/devkitPro/devkitARM/lib/gcc/arm-none-eabi/13.2.0/include/stddef.h"
	.file 7 "C:/devkitPro/libctru/include/3ds/types.h"
	.file 8 "C:/devkitPro/devkitARM/arm-none-eabi/include/sys/lock.h"
	.file 9 "C:/devkitPro/libctru/include/3ds/synchronization.h"
	.file 10 "C:/devkitPro/libctru/include/3ds/services/csnd.h"
	.file 11 "C:/devkitPro/libctru/include/3ds/services/ndm.h"
	.file 12 "C:/devkitPro/libctru/include/3ds/gpu/enums.h"
	.file 13 "C:/devkitPro/libctru/include/3ds/ndsp/channel.h"
	.file 14 "C:/devkitPro/libctru/include/3ds/applets/error.h"
	.file 15 "C:/devkitPro/libctru/include/c3d/types.h"
	.file 16 "C:/devkitPro/libctru/include/c3d/buffers.h"
	.file 17 "C:/devkitPro/libctru/include/c3d/texture.h"
	.file 18 "C:/Users/Elias/CLionProjects/3DSCraft/include/world/Direction.h"
	.file 19 "C:/Users/Elias/CLionProjects/3DSCraft/include/blocks/Block.h"
	.file 20 "C:/Users/Elias/CLionProjects/3DSCraft/include/misc/Xorshift.h"
	.file 21 "C:/Users/Elias/CLionProjects/3DSCraft/include/rendering/VBOCache.h"
	.file 22 "C:/Users/Elias/CLionProjects/3DSCraft/include/world/Chunk.h"
	.file 23 "C:/Users/Elias/CLionProjects/3DSCraft/include/world/WorkQueue.h"
	.file 24 "C:/Users/Elias/CLionProjects/3DSCraft/include/world/World.h"
	.file 25 "C:/Users/Elias/CLionProjects/3DSCraft/include/blocks/Item.h"
	.file 26 "C:/Users/Elias/CLionProjects/3DSCraft/include/inventory/ItemStack.h"
	.file 27 "C:/Users/Elias/CLionProjects/3DSCraft/include/misc/VecMath.h"
	.file 28 "C:/Users/Elias/CLionProjects/3DSCraft/include/misc/Raycast.h"
	.file 29 "C:/Users/Elias/CLionProjects/3DSCraft/include/entity/Player.h"
	.file 30 "C:/Users/Elias/CLionProjects/3DSCraft/include/rendering/VertexFmt.h"
	.file 31 "C:/devkitPro/devkitARM/arm-none-eabi/include/string.h"
	.file 32 "C:/devkitPro/libctru/include/c3d/base.h"
	.file 33 "C:/devkitPro/libctru/include/c3d/effect.h"
	.file 34 "C:/devkitPro/devkitARM/arm-none-eabi/include/math.h"
	.file 35 "C:/devkitPro/libctru/include/3ds/allocator/linear.h"
	.file 36 "C:/Users/Elias/CLionProjects/3DSCraft/include/rendering/TextureMap.h"
	.file 37 "<built-in>"