	.arch armv6k
	.fpu vfp
	.eabi_attribute 28, 1
	.eabi_attribute 20, 1
	.eabi_attribute 21, 1
	.eabi_attribute 23, 3
	.eabi_attribute 24, 1
	.eabi_attribute 25, 1
	.eabi_attribute 26, 1
	.eabi_attribute 30, 2
	.eabi_attribute 34, 1
	.eabi_attribute 18, 4
	.file	"Inventory.c"
	.text
.Ltext0:
	.cfi_sections	.debug_frame
	.file 1 "C:/Users/Elias/CLionProjects/3DSCraft/source/gui/Inventory.c"
	.section	.text.clickAtStack,"ax",%progbits
	.align	2
	.syntax unified
	.arm
	.type	clickAtStack, %function
clickAtStack:
.LVL0:
.LFB216:
	.loc 1 9 44 view -0
	.cfi_startproc
	@ args = 0, pretend = 0, frame = 0
	@ frame_needed = 0, uses_anonymous_args = 0
	.loc 1 10 2 view .LVU1
	.loc 1 10 18 is_stmt 0 view .LVU2
	ldr	r1, .L18
	ldr	r3, [r1]
	.loc 1 10 34 discriminator 1 view .LVU3
	ldr	r2, [r1, #4]
	.loc 1 10 5 view .LVU4
	cmp	r3, #0
	beq	.L16
	.loc 1 12 9 is_stmt 1 view .LVU5
	.loc 1 12 12 is_stmt 0 view .LVU6
	cmp	r0, r2
	beq	.L3
	.loc 1 15 9 is_stmt 1 view .LVU7
	.loc 1 16 3 view .LVU8
	.loc 1 16 6 is_stmt 0 view .LVU9
	cmp	r3, r0
	beq	.L12
	.loc 1 16 29 is_stmt 1 discriminator 1 view .LVU10
.LVL1:
.LBB6:
.LBI6:
	.file 2 "C:/Users/Elias/CLionProjects/3DSCraft/include/inventory/ItemStack.h"
	.loc 2 18 13 view .LVU11
.LBB7:
	.loc 2 19 2 view .LVU12
.LBE7:
.LBE6:
	.loc 1 9 44 is_stmt 0 view .LVU13
	push	{r4, lr}
	.cfi_def_cfa_offset 8
	.cfi_offset 4, -8
	.cfi_offset 14, -4
.LBB12:
.LBB10:
	.loc 2 19 10 view .LVU14
	ldrh	ip, [r3]	@ unaligned
	.loc 2 19 5 view .LVU15
	ldrb	r4, [r0]	@ zero_extendqisi2
	uxtb	lr, ip
	cmp	r4, lr
	.loc 2 19 65 discriminator 3 view .LVU16
	ldrb	r2, [r0, #2]	@ zero_extendqisi2
	.loc 2 19 5 view .LVU17
	beq	.L17
.L7:
	.loc 2 19 59 discriminator 3 view .LVU18
	cmp	r2, #0
	beq	.L8
.LBB8:
	.loc 2 26 13 view .LVU19
	ldrb	r2, [r3, #2]	@ zero_extendqisi2
	.loc 2 26 3 is_stmt 1 view .LVU20
.LVL2:
	.loc 2 27 3 view .LVU21
	.loc 2 27 8 is_stmt 0 view .LVU22
	ldrh	r4, [r0]	@ unaligned
	ldrb	lr, [r0, #2]	@ zero_extendqisi2
	strh	r4, [r3]	@ unaligned
.LVL3:
	.loc 2 27 8 view .LVU23
	strb	lr, [r3, #2]
.LVL4:
	.loc 2 28 3 is_stmt 1 view .LVU24
	.loc 2 28 8 is_stmt 0 view .LVU25
	strh	ip, [r0]	@ unaligned
	strb	r2, [r0, #2]
.LVL5:
.L6:
	.loc 2 28 8 view .LVU26
.LBE8:
.LBE10:
.LBE12:
	.loc 1 17 3 is_stmt 1 view .LVU27
	.loc 1 17 15 is_stmt 0 view .LVU28
	mov	r3, #0
	str	r3, [r1]
	.loc 1 19 1 view .LVU29
	pop	{r4, pc}
.L3:
	.cfi_def_cfa_offset 0
	.cfi_restore 4
	.cfi_restore 14
	.loc 1 13 3 is_stmt 1 view .LVU30
	.loc 1 14 23 is_stmt 0 view .LVU31
	mov	r3, #0
	stm	r1, {r0, r3}
	bx	lr
.L16:
	.loc 1 10 25 discriminator 1 view .LVU32
	cmp	r0, r2
	beq	.L3
	.loc 1 11 3 is_stmt 1 view .LVU33
	.loc 1 11 23 is_stmt 0 view .LVU34
	str	r0, [r1, #4]
	bx	lr
.LVL6:
.L17:
	.cfi_def_cfa_offset 8
	.cfi_offset 4, -8
	.cfi_offset 14, -4
.LBB13:
.LBB11:
	.loc 2 19 32 discriminator 1 view .LVU35
	ldrb	lr, [r0, #1]	@ zero_extendqisi2
	cmp	lr, ip, lsr #8
	bne	.L7
.L8:
.LBB9:
	.loc 2 20 3 is_stmt 1 view .LVU36
	.loc 2 20 18 is_stmt 0 view .LVU37
	ldrb	lr, [r3, #2]	@ zero_extendqisi2
.LVL7:
	.loc 2 21 3 is_stmt 1 view .LVU38
	.loc 2 20 36 is_stmt 0 view .LVU39
	rsb	r2, r2, #64
.LVL8:
	.loc 2 20 7 view .LVU40
	cmp	r2, lr
	movge	r2, lr
	.loc 2 21 15 view .LVU41
	uxtb	r2, r2
	sub	lr, lr, r2
.LVL9:
	.loc 2 21 15 view .LVU42
	strb	lr, [r3, #2]
.LVL10:
	.loc 2 22 3 is_stmt 1 view .LVU43
	.loc 2 22 15 is_stmt 0 view .LVU44
	ldrb	r3, [r0, #2]	@ zero_extendqisi2
.LVL11:
	.loc 2 23 14 view .LVU45
	strh	ip, [r0]	@ unaligned
	.loc 2 22 15 view .LVU46
	add	r2, r2, r3
	strb	r2, [r0, #2]
	.loc 2 23 3 is_stmt 1 view .LVU47
	.loc 2 24 3 view .LVU48
.LBE9:
	.loc 2 19 80 is_stmt 0 view .LVU49
	b	.L6
.LVL12:
.L12:
	.cfi_def_cfa_offset 0
	.cfi_restore 4
	.cfi_restore 14
	.loc 2 19 80 view .LVU50
.LBE11:
.LBE13:
	.loc 1 17 3 is_stmt 1 view .LVU51
	.loc 1 17 15 is_stmt 0 view .LVU52
	mov	r3, #0
	str	r3, [r1]
	bx	lr
.L19:
	.align	2
.L18:
	.word	.LANCHOR0
	.cfi_endproc
.LFE216:
	.size	clickAtStack, .-clickAtStack
	.section	.text.Inventory_DrawQuickSelect,"ax",%progbits
	.align	2
	.global	Inventory_DrawQuickSelect
	.syntax unified
	.arm
	.type	Inventory_DrawQuickSelect, %function
Inventory_DrawQuickSelect:
.LVL13:
.LFB217:
	.loc 1 21 91 is_stmt 1 view -0
	.cfi_startproc
	@ args = 4, pretend = 0, frame = 16
	@ frame_needed = 0, uses_anonymous_args = 0
	.loc 1 22 2 view .LVU54
	.loc 1 21 91 is_stmt 0 view .LVU55
	push	{r4, r5, r6, r7, r8, r9, r10, fp, lr}
	.cfi_def_cfa_offset 36
	.cfi_offset 4, -36
	.cfi_offset 5, -32
	.cfi_offset 6, -28
	.cfi_offset 7, -24
	.cfi_offset 8, -20
	.cfi_offset 9, -16
	.cfi_offset 10, -12
	.cfi_offset 11, -8
	.cfi_offset 14, -4
	mov	r10, r3
	mov	r7, r0
	sub	sp, sp, #44
	.cfi_def_cfa_offset 80
	.loc 1 22 2 view .LVU56
	mov	r0, #3
.LVL14:
	.loc 1 21 91 view .LVU57
	mov	r9, r1
	mov	r4, r2
	.loc 1 22 2 view .LVU58
	bl	SpriteBatch_BindGuiTexture
.LVL15:
	.loc 1 24 2 is_stmt 1 view .LVU59
.LBB14:
	.loc 1 24 7 view .LVU60
	.loc 1 24 20 discriminator 1 view .LVU61
	cmp	r10, #0
.LBE14:
	.loc 1 47 40 is_stmt 0 view .LVU62
	sub	r8, r10, #2
.LBB18:
	.loc 1 24 20 discriminator 1 view .LVU63
	ble	.L27
.LBB15:
	.loc 1 27 15 view .LVU64
	add	ip, r9, #3
	.loc 1 27 7 view .LVU65
	lsl	ip, ip, #1
	.loc 1 31 7 view .LVU66
	sub	r3, ip, #4
.LBE15:
	.loc 1 24 11 view .LVU67
	mov	r5, #0
	ldr	fp, .L42
.LBB16:
	.loc 1 31 7 view .LVU68
	str	r3, [sp, #28]
	add	r6, r7, #1
	str	ip, [sp, #32]
	str	r7, [sp, #36]
	b	.L26
.LVL16:
.L22:
	.loc 1 31 3 is_stmt 1 view .LVU69
	.loc 1 31 7 is_stmt 0 view .LVU70
	mov	r3, #36
	mov	r0, r7
	mov	r2, r3
	ldr	r1, [sp, #28]
	bl	Gui_EnteredCursorInside
.LVL17:
	.loc 1 31 6 discriminator 1 view .LVU71
	cmp	r0, #0
	bne	.L39
.L23:
	.loc 1 35 3 is_stmt 1 view .LVU72
	mov	r0, #2
	bl	SpriteBatch_SetScale
.LVL18:
	.loc 1 36 3 view .LVU73
	.loc 1 36 6 is_stmt 0 view .LVU74
	ldr	r3, [fp]
	cmp	r4, r3
	beq	.L40
.L24:
	.loc 1 40 3 is_stmt 1 view .LVU75
	.loc 1 41 4 view .LVU76
	.loc 1 40 6 is_stmt 0 view .LVU77
	cmp	r5, r8
	.loc 1 41 4 view .LVU78
	add	r7, r6, #20
.LVL19:
	.loc 1 40 6 view .LVU79
	bge	.L25
	.loc 1 41 4 view .LVU80
	mov	r2, #22
	mov	r1, #0
	mov	r3, #20
	str	r2, [sp, #16]
	str	r2, [sp]
	mov	r2, #21
	str	r1, [sp, #8]
	str	r2, [sp, #4]
	mov	r1, r9
	mov	r2, #10
	mov	r0, r7
	str	r3, [sp, #12]
	bl	SpriteBatch_PushQuad
.LVL20:
.L25:
	.loc 1 41 4 view .LVU81
.LBE16:
	.loc 1 24 30 is_stmt 1 discriminator 2 view .LVU82
	add	r5, r5, #1
.LVL21:
	.loc 1 24 20 discriminator 1 view .LVU83
	cmp	r10, r5
	mov	r6, r7
.LVL22:
	.loc 1 24 20 is_stmt 0 discriminator 1 view .LVU84
	add	r4, r4, #3
	beq	.L41
.LVL23:
.L26:
.LBB17:
	.loc 1 25 3 is_stmt 1 view .LVU85
	mov	r0, #1
	bl	SpriteBatch_SetScale
.LVL24:
	.loc 1 26 3 view .LVU86
	.loc 1 28 6 is_stmt 0 view .LVU87
	ldrb	r3, [r4, #2]	@ zero_extendqisi2
	lsl	r7, r6, #1
.LVL25:
	.loc 1 27 3 is_stmt 1 view .LVU88
	.loc 1 28 3 view .LVU89
	.loc 1 28 6 is_stmt 0 view .LVU90
	cmp	r3, #0
	beq	.L22
	.loc 1 29 4 is_stmt 1 view .LVU91
	mov	r3, #11
	ldrb	r1, [r4, #1]	@ zero_extendqisi2
	str	r3, [sp]
	ldrb	r0, [r4]	@ zero_extendqisi2
	ldr	r3, [sp, #32]
	add	r2, r7, #4
.LVL26:
	.loc 1 29 4 is_stmt 0 view .LVU92
	bl	SpriteBatch_PushIcon
.LVL27:
	.loc 1 29 4 view .LVU93
	b	.L22
.L39:
	.loc 1 32 4 is_stmt 1 view .LVU94
	.loc 1 32 14 is_stmt 0 view .LVU95
	ldr	r3, [sp, #80]
	.loc 1 33 4 view .LVU96
	mov	r0, r4
	.loc 1 32 14 view .LVU97
	str	r5, [r3]
	.loc 1 33 4 is_stmt 1 view .LVU98
	bl	clickAtStack
.LVL28:
	b	.L23
.L40:
	.loc 1 37 4 view .LVU99
	ldr	r3, .L42+4
	mov	r0, r6
	str	r3, [sp, #4]
	mov	r3, #18
	mov	r2, #9
	add	r1, r9, #1
	str	r3, [sp]
	bl	SpriteBatch_PushSingleColorQuad
.LVL29:
	.loc 1 38 4 view .LVU100
	mov	r0, #3
	bl	SpriteBatch_BindGuiTexture
.LVL30:
	b	.L24
.LVL31:
.L41:
	.loc 1 38 4 is_stmt 0 view .LVU101
.LBE17:
	ldr	r7, [sp, #36]
.LVL32:
.L27:
	.loc 1 38 4 view .LVU102
.LBE18:
	.loc 1 44 2 is_stmt 1 view .LVU103
	.loc 1 46 2 is_stmt 0 view .LVU104
	mov	r5, #22
	mov	r6, #21
	mov	r4, #0
	.loc 1 44 2 view .LVU105
	mov	r0, #2
	bl	SpriteBatch_SetScale
.LVL33:
	.loc 1 46 2 is_stmt 1 view .LVU106
	mov	r3, r6
	mov	r1, r9
	mov	r0, r7
	mov	r2, #10
	str	r5, [sp, #16]
	str	r6, [sp, #12]
	str	r4, [sp, #8]
	str	r4, [sp, #4]
	str	r5, [sp]
	bl	SpriteBatch_PushQuad
.LVL34:
	.loc 1 47 2 view .LVU107
	mov	r3, #161
	.loc 1 47 31 is_stmt 0 view .LVU108
	add	r8, r8, r8, lsl #2
	.loc 1 47 26 view .LVU109
	add	r0, r7, r8, lsl #2
	.loc 1 47 2 view .LVU110
	mov	r1, r9
	str	r3, [sp, #4]
	add	r0, r0, r6
	mov	r3, r6
	mov	r2, #10
	str	r5, [sp, #16]
	str	r6, [sp, #12]
	str	r4, [sp, #8]
	str	r5, [sp]
	bl	SpriteBatch_PushQuad
.LVL35:
	.loc 1 49 2 is_stmt 1 view .LVU111
	mov	r3, #24
	.loc 1 49 37 is_stmt 0 view .LVU112
	ldr	r2, [sp, #80]
	.loc 1 49 2 view .LVU113
	str	r5, [sp, #8]
	.loc 1 49 37 view .LVU114
	ldr	r0, [r2]
	.loc 1 49 2 view .LVU115
	sub	r1, r9, #1
	.loc 1 49 37 view .LVU116
	add	r0, r0, r0, lsl #2
	.loc 1 49 25 view .LVU117
	add	r0, r7, r0, lsl #2
	.loc 1 49 2 view .LVU118
	mov	r2, #14
	stm	sp, {r3, r4}
	str	r3, [sp, #16]
	str	r3, [sp, #12]
	sub	r0, r0, #1
	bl	SpriteBatch_PushQuad
.LVL36:
	.loc 1 50 1 view .LVU119
	add	sp, sp, #44
	.cfi_def_cfa_offset 36
	@ sp needed
	pop	{r4, r5, r6, r7, r8, r9, r10, fp, pc}
.LVL37:
.L43:
	.loc 1 50 1 view .LVU120
	.align	2
.L42:
	.word	.LANCHOR0
	.word	20642
	.cfi_endproc
.LFE217:
	.size	Inventory_DrawQuickSelect, .-Inventory_DrawQuickSelect
	.section	.rodata.str1.4,"aMS",%progbits,1
	.align	2
.LC1:
	.ascii	" << \000"
	.align	2
.LC2:
	.ascii	" >> \000"
	.section	.text.Inventory_Draw,"ax",%progbits
	.align	2
	.global	Inventory_Draw
	.syntax unified
	.arm
	.type	Inventory_Draw, %function
Inventory_Draw:
.LVL38:
.LFB218:
	.loc 1 52 82 is_stmt 1 view -0
	.cfi_startproc
	@ args = 8, pretend = 0, frame = 24
	@ frame_needed = 0, uses_anonymous_args = 0
	.loc 1 53 2 view .LVU122
	.loc 1 52 82 is_stmt 0 view .LVU123
	push	{r4, r5, r6, r7, r8, r9, r10, fp, lr}
	.cfi_def_cfa_offset 36
	.cfi_offset 4, -36
	.cfi_offset 5, -32
	.cfi_offset 6, -28
	.cfi_offset 7, -24
	.cfi_offset 8, -20
	.cfi_offset 9, -16
	.cfi_offset 10, -12
	.cfi_offset 11, -8
	.cfi_offset 14, -4
	vpush.64	{d8}
	.cfi_def_cfa_offset 44
	.cfi_offset 80, -44
	.cfi_offset 81, -40
	mov	ip, r0
	sub	sp, sp, #36
	.cfi_def_cfa_offset 80
	.loc 1 53 2 view .LVU124
	mov	r0, #1
.LVL39:
	.loc 1 52 82 view .LVU125
	mov	r4, r3
	mov	r8, r1
	ldr	fp, [sp, #84]
	str	ip, [sp, #16]
	str	r2, [sp, #12]
	.loc 1 53 2 view .LVU126
	bl	SpriteBatch_SetScale
.LVL40:
	.loc 1 55 2 is_stmt 1 view .LVU127
	.loc 1 56 2 view .LVU128
	.loc 1 57 2 view .LVU129
	.loc 1 58 1 view .LVU130
	.loc 1 59 1 view .LVU131
	.loc 1 61 2 view .LVU132
	.loc 1 61 16 is_stmt 0 view .LVU133
	ldr	r3, .L78
	str	r3, [sp, #28]
	.loc 1 62 2 is_stmt 1 view .LVU134
	.loc 1 62 5 is_stmt 0 view .LVU135
	ldr	r3, [sp, #80]
	cmp	r3, #32
	bgt	.L45
	.loc 1 70 38 discriminator 1 view .LVU136
	lsl	r3, fp, #5
	.loc 1 76 6 view .LVU137
	sub	r5, r3, #32
.L46:
	.loc 1 76 2 is_stmt 1 view .LVU138
.LVL41:
	.loc 1 77 2 view .LVU139
.LBB19:
	.loc 1 77 7 view .LVU140
	.loc 1 77 31 is_stmt 0 discriminator 1 view .LVU141
	vmov	s15, r3	@ int
	vcvt.f64.s32	d0, s15
	vldr.32	s15, [sp, #80]	@ int
	vcvt.f64.s32	d1, s15
	bl	fmin
.LVL42:
	.loc 1 77 29 discriminator 1 view .LVU142
	vmov	s15, r5	@ int
	vcvt.f64.s32	d7, s15
	vcmpe.f64	d0, d7
	vmrs	APSR_nzcv, FPSCR
	.loc 1 77 31 discriminator 1 view .LVU143
	vmov.f64	d8, d0
.LVL43:
	.loc 1 77 29 is_stmt 1 discriminator 1 view .LVU144
	ble	.L50
	.loc 1 77 29 is_stmt 0 discriminator 1 view .LVU145
.LBE19:
	.loc 1 58 6 view .LVU146
	mov	r10, #0
	add	r3, r5, r5, lsl #1
	.loc 1 55 6 view .LVU147
	ldr	r9, [sp, #16]
	add	r4, r4, r3
.LVL44:
.LBB20:
	.loc 1 92 88 view .LVU148
	str	fp, [sp, #20]
.LVL45:
.L57:
	.loc 1 79 3 is_stmt 1 view .LVU149
	.loc 1 79 16 is_stmt 0 view .LVU150
	ldrb	r0, [r4]	@ zero_extendqisi2
	.loc 1 79 6 view .LVU151
	cmp	r0, #0
	beq	.L52
	.loc 1 79 23 discriminator 1 view .LVU152
	ldrb	r3, [r4, #2]	@ zero_extendqisi2
	cmp	r3, #0
	beq	.L52
	.loc 1 81 4 is_stmt 1 view .LVU153
.LVL46:
	.loc 1 82 4 view .LVU154
	.loc 1 82 7 is_stmt 0 view .LVU155
	ldr	r2, [sp, #12]
	.loc 1 82 15 view .LVU156
	add	r3, r9, #16
	.loc 1 82 7 view .LVU157
	cmp	r3, r2
	.loc 1 84 5 is_stmt 1 view .LVU158
.LVL47:
	.loc 1 85 5 view .LVU159
	.loc 1 84 11 is_stmt 0 view .LVU160
	ldrge	r3, [sp, #16]
	movlt	r6, r9
	movge	r6, r3
	movlt	r9, r3
	.loc 1 94 10 view .LVU161
	addge	r9, r3, #16
	.loc 1 89 5 view .LVU162
	mov	r3, #10
	.loc 1 85 11 view .LVU163
	addge	r8, r8, #17
.LVL48:
	.loc 1 86 5 is_stmt 1 view .LVU164
	.loc 1 89 5 is_stmt 0 view .LVU165
	lsl	r6, r6, #1
	lsl	r7, r8, #1
	ldrb	r1, [r4, #1]	@ zero_extendqisi2
	mov	r2, r6
	str	r3, [sp]
	mov	r3, r7
	.loc 1 86 13 view .LVU166
	movge	fp, #1
	.loc 1 81 12 view .LVU167
	movlt	fp, #0
.LVL49:
	.loc 1 88 4 is_stmt 1 view .LVU168
	.loc 1 89 5 view .LVU169
	bl	SpriteBatch_PushIcon
.LVL50:
	.loc 1 90 4 view .LVU170
	.loc 1 90 8 is_stmt 0 view .LVU171
	mov	r3, #32
	mov	r1, r7
	mov	r2, r3
	mov	r0, r6
	bl	Gui_EnteredCursorInside
.LVL51:
	.loc 1 90 7 discriminator 1 view .LVU172
	cmp	r0, #0
	bne	.L76
.L54:
	.loc 1 92 4 is_stmt 1 view .LVU173
	ldr	r3, .L78+4
	.loc 1 92 4 is_stmt 0 discriminator 4 view .LVU174
	mov	r0, r6
	.loc 1 92 4 view .LVU175
	ldr	r3, [r3]
	.loc 1 92 4 discriminator 4 view .LVU176
	mov	r2, #9
	.loc 1 92 4 view .LVU177
	cmp	r4, r3
	.loc 1 92 4 discriminator 1 view .LVU178
	addne	r3, sp, #32
	addne	r3, r3, r10, lsl #1
	ldrshne	r3, [r3, #-4]
	.loc 1 92 4 discriminator 2 view .LVU179
	ldreq	r3, .L78+8
	.loc 1 92 4 discriminator 4 view .LVU180
	mov	r1, r7
	str	r3, [sp, #4]
	mov	r3, #32
	str	r3, [sp]
	bl	SpriteBatch_PushSingleColorQuad
.LVL52:
	.loc 1 93 4 is_stmt 1 view .LVU181
	.loc 1 94 4 view .LVU182
	.loc 1 95 4 view .LVU183
	.loc 1 95 7 is_stmt 0 view .LVU184
	cmp	fp, #0
	.loc 1 93 9 view .LVU185
	eoreq	r10, r10, #1
.LVL53:
	.loc 1 95 7 view .LVU186
	bne	.L77
.LVL54:
.L52:
	.loc 1 77 55 is_stmt 1 discriminator 2 view .LVU187
	add	r5, r5, #1
.LVL55:
	.loc 1 77 29 discriminator 1 view .LVU188
	vmov	s15, r5	@ int
	vcvt.f64.s32	d7, s15
	vcmpe.f64	d7, d8
	vmrs	APSR_nzcv, FPSCR
	add	r4, r4, #3
	bmi	.L57
	.loc 1 77 29 is_stmt 0 discriminator 1 view .LVU189
	ldr	fp, [sp, #20]
.LVL56:
.L50:
	.loc 1 77 29 discriminator 1 view .LVU190
.LBE20:
	.loc 1 104 2 is_stmt 1 view .LVU191
	mov	r0, #2
	bl	SpriteBatch_SetScale
.LVL57:
	.loc 1 105 2 view .LVU192
	.loc 1 106 1 is_stmt 0 view .LVU193
	mov	r0, fp
	add	sp, sp, #36
	.cfi_remember_state
	.cfi_def_cfa_offset 44
	@ sp needed
	vldm	sp!, {d8}
	.cfi_restore 80
	.cfi_restore 81
	.cfi_def_cfa_offset 36
	pop	{r4, r5, r6, r7, r8, r9, r10, fp, pc}
.LVL58:
.L77:
	.cfi_restore_state
.LBB21:
	.loc 1 97 5 is_stmt 1 view .LVU194
	.loc 1 99 5 view .LVU195
	mov	r6, #2
	.loc 1 99 68 is_stmt 0 view .LVU196
	ldr	r3, [sp, #12]
	.loc 1 99 5 view .LVU197
	ldr	r0, [sp, #16]
	sub	r1, r7, #2
	ldr	r7, .L78+12
	.loc 1 99 68 view .LVU198
	sub	r3, r3, #32
	.loc 1 99 5 view .LVU199
	mov	r2, #10
	strd	r6, [sp]
	lsl	r3, r3, #1
	lsl	r0, r0, #1
	bl	SpriteBatch_PushSingleColorQuad
.LVL59:
	.loc 1 97 10 view .LVU200
	mov	r10, #0
	b	.L52
.LVL60:
.L76:
	.loc 1 91 5 is_stmt 1 view .LVU201
	mov	r0, r4
	bl	clickAtStack
.LVL61:
	b	.L54
.LVL62:
.L45:
	.loc 1 91 5 is_stmt 0 view .LVU202
.LBE21:
	.loc 1 64 3 is_stmt 1 view .LVU203
	mov	r1, #60
	mov	r0, #0
	bl	Gui_Offset
.LVL63:
	.loc 1 65 3 view .LVU204
	.loc 1 65 7 is_stmt 0 view .LVU205
	ldr	r1, .L78+16
	mov	r0, #0
	bl	Gui_Button
.LVL64:
	.loc 1 65 31 discriminator 1 view .LVU206
	cmp	fp, #1
	movle	r0, #0
	andgt	r0, r0, #1
	.loc 1 69 3 view .LVU207
	mov	r1, #60
	.loc 1 65 31 discriminator 1 view .LVU208
	cmp	r0, #0
	.loc 1 67 4 is_stmt 1 view .LVU209
	.loc 1 69 3 is_stmt 0 view .LVU210
	ldr	r0, .L78+20
	.loc 1 67 8 view .LVU211
	subne	fp, fp, #1
.LVL65:
	.loc 1 69 3 is_stmt 1 view .LVU212
	bl	Gui_Offset
.LVL66:
	.loc 1 70 3 view .LVU213
	.loc 1 70 7 is_stmt 0 view .LVU214
	mov	r0, #0
	ldr	r1, .L78+24
	bl	Gui_Button
.LVL67:
	.loc 1 70 6 discriminator 1 view .LVU215
	cmp	r0, #0
	.loc 1 70 38 discriminator 1 view .LVU216
	lsl	r3, fp, #5
	.loc 1 70 6 discriminator 1 view .LVU217
	beq	.L75
	.loc 1 70 31 discriminator 1 view .LVU218
	ldr	r2, [sp, #80]
	cmp	r2, r3
	.loc 1 72 4 is_stmt 1 view .LVU219
.LBB22:
	.loc 1 77 40 is_stmt 0 discriminator 1 view .LVU220
	movgt	r5, r3
.LBE22:
	.loc 1 72 8 view .LVU221
	addgt	fp, fp, #1
.LVL68:
.LBB23:
	.loc 1 77 40 discriminator 1 view .LVU222
	addgt	r3, r3, #32
	bgt	.L46
.L75:
	.loc 1 77 40 discriminator 1 view .LVU223
.LBE23:
	.loc 1 76 6 view .LVU224
	sub	r5, r3, #32
	b	.L46
.L79:
	.align	2
.L78:
	.word	692727147
	.word	.LANCHOR0
	.word	20642
	.word	7399
	.word	.LC1
	.word	270
	.word	.LC2
	.cfi_endproc
.LFE218:
	.size	Inventory_Draw, .-Inventory_Draw
	.bss
	.align	2
	.set	.LANCHOR0,. + 0
	.type	sourceStack, %object
	.size	sourceStack, 4
sourceStack:
	.space	4
	.type	proposedSourceStack, %object
	.size	proposedSourceStack, 4
proposedSourceStack:
	.space	4
	.text
.Letext0:
	.file 3 "C:/devkitPro/devkitARM/arm-none-eabi/include/machine/_default_types.h"
	.file 4 "C:/devkitPro/devkitARM/arm-none-eabi/include/sys/_stdint.h"
	.file 5 "C:/Users/Elias/CLionProjects/3DSCraft/include/blocks/Block.h"
	.file 6 "C:/Users/Elias/CLionProjects/3DSCraft/include/blocks/Item.h"
	.file 7 "C:/devkitPro/libctru/include/3ds/services/csnd.h"
	.file 8 "C:/devkitPro/libctru/include/3ds/services/ndm.h"
	.file 9 "C:/devkitPro/libctru/include/3ds/gpu/enums.h"
	.file 10 "C:/devkitPro/libctru/include/3ds/ndsp/channel.h"
	.file 11 "C:/devkitPro/libctru/include/3ds/applets/error.h"
	.file 12 "C:/Users/Elias/CLionProjects/3DSCraft/include/gui/SpriteBatch.h"
	.file 13 "C:/devkitPro/devkitARM/arm-none-eabi/include/math.h"
	.file 14 "C:/Users/Elias/CLionProjects/3DSCraft/include/gui/Gui.h"
	.file 15 "C:/devkitPro/libctru/include/3ds/types.h"