	.arch armv6k
	.fpu vfp
	.eabi_attribute 28, 1
	.eabi_attribute 20, 1
	.eabi_attribute 21, 1
	.eabi_attribute 23, 3
	.eabi_attribute 24, 1
	.eabi_attribute 25, 1
	.eabi_attribute 26, 1
	.eabi_attribute 30, 2
	.eabi_attribute 34, 1
	.eabi_attribute 18, 4
	.file	"mpack.c"
	.text
.Ltext0:
	.cfi_sections	.debug_frame
	.file 1 "C:/Users/Elias/CLionProjects/3DSCraft/dependencies/mpack/mpack.c"
	.section	.text.mpack_utf8_check_impl,"ax",%progbits
	.align	2
	.syntax unified
	.arm
	.type	mpack_utf8_check_impl, %function
mpack_utf8_check_impl:
.LVL0:
.LFB145:
	.loc 1 546 85 view -0
	.cfi_startproc
	@ args = 0, pretend = 0, frame = 0
	@ frame_needed = 0, uses_anonymous_args = 0
	.loc 1 547 5 view .LVU1
	.loc 1 547 18 is_stmt 0 view .LVU2
	cmp	r1, #0
	.loc 1 547 18 is_stmt 1 view .LVU3
	beq	.L8
	.loc 1 546 85 is_stmt 0 view .LVU4
	push	{r4, r5, r6, r7, r8, r9, r10, fp, lr}
	.cfi_def_cfa_offset 36
	.cfi_offset 4, -36
	.cfi_offset 5, -32
	.cfi_offset 6, -28
	.cfi_offset 7, -24
	.cfi_offset 8, -20
	.cfi_offset 9, -16
	.cfi_offset 10, -12
	.cfi_offset 11, -8
	.cfi_offset 14, -4
	mov	ip, r0
.LBB2299:
.LBB2300:
	.loc 1 619 52 view .LVU5
	ldr	r5, .L28
	.loc 1 620 53 view .LVU6
	ldr	r4, .L28+4
	.loc 1 621 53 view .LVU7
	ldr	lr, .L28+8
.LBE2300:
.LBB2301:
	.loc 1 592 52 view .LVU8
	ldr	r7, .L28+12
.LBE2301:
.LBB2302:
	.loc 1 571 52 view .LVU9
	ldr	r6, .L28+16
.LBE2302:
	.loc 1 551 13 view .LVU10
	eor	r2, r2, #1
.LVL1:
	.loc 1 551 13 view .LVU11
	b	.L7
.LVL2:
.L4:
	.loc 1 551 13 view .LVU12
.LBE2299:
	.loc 1 547 18 is_stmt 1 view .LVU13
	cmp	r1, #0
	beq	.L25
.LVL3:
.L7:
.LBB2307:
	.loc 1 548 9 view .LVU14
	.loc 1 548 17 is_stmt 0 view .LVU15
	ldrb	r3, [ip]	@ zero_extendqisi2
.LVL4:
	.loc 1 551 9 is_stmt 1 view .LVU16
	.loc 1 551 25 is_stmt 0 view .LVU17
	cmp	r3, #0
	movne	r0, #0
	andeq	r0, r2, #1
	.loc 1 551 12 view .LVU18
	cmp	r0, #0
	bne	.L9
	.loc 1 555 9 is_stmt 1 view .LVU19
	.loc 1 555 12 is_stmt 0 view .LVU20
	tst	r3, #128
	.loc 1 556 13 view .LVU21
	addeq	ip, ip, #1
.LVL5:
	.loc 1 557 13 is_stmt 1 view .LVU22
	subeq	r1, r1, #1
.LVL6:
	.loc 1 555 12 is_stmt 0 view .LVU23
	beq	.L4
	.loc 1 560 16 is_stmt 1 view .LVU24
	.loc 1 560 19 is_stmt 0 view .LVU25
	and	r8, r3, #224
	cmp	r8, #192
	beq	.L26
	.loc 1 578 16 is_stmt 1 view .LVU26
	.loc 1 578 19 is_stmt 0 view .LVU27
	and	r8, r3, #240
	cmp	r8, #224
	beq	.L27
	.loc 1 602 16 is_stmt 1 view .LVU28
.LBB2303:
	.loc 1 603 13 view .LVU29
	.loc 1 603 16 is_stmt 0 view .LVU30
	cmp	r1, #3
	movhi	r8, #0
	movls	r8, #1
.LBE2303:
	.loc 1 602 19 view .LVU31
	and	r9, r3, #248
	cmp	r9, #240
	orrne	r8, r8, #1
.LBB2304:
	.loc 1 603 16 view .LVU32
	cmp	r8, #0
	popne	{r4, r5, r6, r7, r8, r9, r10, fp, pc}
	.loc 1 606 13 is_stmt 1 view .LVU33
	.loc 1 606 21 is_stmt 0 view .LVU34
	ldrb	r10, [ip, #1]	@ zero_extendqisi2
.LVL7:
	.loc 1 607 13 is_stmt 1 view .LVU35
	.loc 1 607 16 is_stmt 0 view .LVU36
	and	r8, r10, #192
	cmp	r8, #128
	popne	{r4, r5, r6, r7, r8, r9, r10, fp, pc}
	.loc 1 609 13 is_stmt 1 view .LVU37
	.loc 1 609 21 is_stmt 0 view .LVU38
	ldrb	r8, [ip, #2]	@ zero_extendqisi2
.LVL8:
	.loc 1 610 13 is_stmt 1 view .LVU39
	.loc 1 610 16 is_stmt 0 view .LVU40
	and	r9, r8, #192
	cmp	r9, #128
	popne	{r4, r5, r6, r7, r8, r9, r10, fp, pc}
	.loc 1 612 13 is_stmt 1 view .LVU41
	.loc 1 612 21 is_stmt 0 view .LVU42
	ldrb	r9, [ip, #3]	@ zero_extendqisi2
.LVL9:
	.loc 1 613 13 is_stmt 1 view .LVU43
	.loc 1 613 16 is_stmt 0 view .LVU44
	and	fp, r9, #192
	cmp	fp, #128
	popne	{r4, r5, r6, r7, r8, r9, r10, fp, pc}
	.loc 1 616 13 is_stmt 1 view .LVU45
	.loc 1 619 52 is_stmt 0 view .LVU46
	and	r3, r5, r3, lsl #18
.LVL10:
	.loc 1 620 53 view .LVU47
	and	r10, r4, r10, lsl #12
.LVL11:
	.loc 1 619 59 view .LVU48
	orr	r3, r3, r10
	.loc 1 622 27 view .LVU49
	bic	r9, r9, #192
.LVL12:
	.loc 1 619 22 view .LVU50
	orr	r3, r3, r9
	.loc 1 621 53 view .LVU51
	and	r8, lr, r8, lsl #6
.LVL13:
	.loc 1 619 22 view .LVU52
	orr	r3, r3, r8
	.loc 1 626 16 view .LVU53
	sub	r3, r3, #65536
	cmp	r3, #1048576
	.loc 1 616 17 view .LVU54
	add	ip, ip, #4
.LVL14:
	.loc 1 617 13 is_stmt 1 view .LVU55
	.loc 1 617 19 is_stmt 0 view .LVU56
	sub	r1, r1, #4
.LVL15:
	.loc 1 619 13 is_stmt 1 view .LVU57
	.loc 1 624 13 view .LVU58
	.loc 1 626 13 view .LVU59
	.loc 1 626 16 is_stmt 0 view .LVU60
	popcs	{r4, r5, r6, r7, r8, r9, r10, fp, pc}
	.loc 1 626 16 view .LVU61
.LBE2304:
.LBE2307:
	.loc 1 547 18 is_stmt 1 view .LVU62
	cmp	r1, #0
	bne	.L7
.LVL16:
.L25:
	.loc 1 633 11 is_stmt 0 view .LVU63
	mov	r0, #1
	pop	{r4, r5, r6, r7, r8, r9, r10, fp, pc}
.LVL17:
.L26:
.LBB2308:
.LBB2305:
	.loc 1 561 13 is_stmt 1 view .LVU64
	.loc 1 561 16 is_stmt 0 view .LVU65
	cmp	r1, #1
	popeq	{r4, r5, r6, r7, r8, r9, r10, fp, pc}
	.loc 1 564 13 is_stmt 1 view .LVU66
	.loc 1 564 21 is_stmt 0 view .LVU67
	ldrb	r8, [ip, #1]	@ zero_extendqisi2
.LVL18:
	.loc 1 565 13 is_stmt 1 view .LVU68
	.loc 1 565 16 is_stmt 0 view .LVU69
	and	r9, r8, #192
	cmp	r9, #128
	popne	{r4, r5, r6, r7, r8, r9, r10, fp, pc}
	.loc 1 568 13 is_stmt 1 view .LVU70
	.loc 1 571 52 is_stmt 0 view .LVU71
	and	r3, r6, r3, lsl #6
.LVL19:
	.loc 1 572 27 view .LVU72
	bic	r8, r8, #192
.LVL20:
	.loc 1 571 22 view .LVU73
	orr	r3, r3, r8
	.loc 1 574 16 view .LVU74
	cmp	r3, #127
	.loc 1 568 17 view .LVU75
	add	ip, ip, #2
.LVL21:
	.loc 1 569 13 is_stmt 1 view .LVU76
	.loc 1 569 19 is_stmt 0 view .LVU77
	sub	r1, r1, #2
.LVL22:
	.loc 1 571 13 is_stmt 1 view .LVU78
	.loc 1 574 13 view .LVU79
	.loc 1 574 16 is_stmt 0 view .LVU80
	bhi	.L4
	pop	{r4, r5, r6, r7, r8, r9, r10, fp, pc}
.LVL23:
.L27:
	.loc 1 574 16 view .LVU81
.LBE2305:
.LBB2306:
	.loc 1 579 13 is_stmt 1 view .LVU82
	.loc 1 579 16 is_stmt 0 view .LVU83
	cmp	r1, #2
	popls	{r4, r5, r6, r7, r8, r9, r10, fp, pc}
	.loc 1 582 13 is_stmt 1 view .LVU84
	.loc 1 582 21 is_stmt 0 view .LVU85
	ldrb	r8, [ip, #1]	@ zero_extendqisi2
.LVL24:
	.loc 1 583 13 is_stmt 1 view .LVU86
	.loc 1 583 16 is_stmt 0 view .LVU87
	and	r9, r8, #192
	cmp	r9, #128
	popne	{r4, r5, r6, r7, r8, r9, r10, fp, pc}
	.loc 1 585 13 is_stmt 1 view .LVU88
	.loc 1 585 21 is_stmt 0 view .LVU89
	ldrb	r9, [ip, #2]	@ zero_extendqisi2
.LVL25:
	.loc 1 586 13 is_stmt 1 view .LVU90
	.loc 1 586 16 is_stmt 0 view .LVU91
	and	r10, r9, #192
	cmp	r10, #128
	popne	{r4, r5, r6, r7, r8, r9, r10, fp, pc}
	.loc 1 589 13 is_stmt 1 view .LVU92
	.loc 1 592 52 is_stmt 0 view .LVU93
	and	r3, r7, r3, lsl #12
.LVL26:
	.loc 1 593 53 view .LVU94
	and	r8, lr, r8, lsl #6
.LVL27:
	.loc 1 592 59 view .LVU95
	orr	r3, r3, r8
	.loc 1 594 27 view .LVU96
	bic	r9, r9, #192
.LVL28:
	.loc 1 592 22 view .LVU97
	orr	r3, r3, r9
	.loc 1 596 16 view .LVU98
	cmp	r3, #2048
	.loc 1 589 17 view .LVU99
	add	ip, ip, #3
.LVL29:
	.loc 1 590 13 is_stmt 1 view .LVU100
	.loc 1 590 19 is_stmt 0 view .LVU101
	sub	r1, r1, #3
.LVL30:
	.loc 1 592 13 is_stmt 1 view .LVU102
	.loc 1 596 13 view .LVU103
	.loc 1 596 16 is_stmt 0 view .LVU104
	popcc	{r4, r5, r6, r7, r8, r9, r10, fp, pc}
	.loc 1 598 13 is_stmt 1 view .LVU105
	.loc 1 598 29 is_stmt 0 view .LVU106
	sub	r3, r3, #55296
.LVL31:
	.loc 1 598 16 view .LVU107
	cmp	r3, #2048
	bcs	.L4
	pop	{r4, r5, r6, r7, r8, r9, r10, fp, pc}
.LVL32:
.L9:
	.loc 1 598 16 view .LVU108
.LBE2306:
	.loc 1 552 19 view .LVU109
	mov	r0, #0
.LBE2308:
	.loc 1 634 1 view .LVU110
	pop	{r4, r5, r6, r7, r8, r9, r10, fp, pc}
.LVL33:
.L8:
	.cfi_def_cfa_offset 0
	.cfi_restore 4
	.cfi_restore 5
	.cfi_restore 6
	.cfi_restore 7
	.cfi_restore 8
	.cfi_restore 9
	.cfi_restore 10
	.cfi_restore 11
	.cfi_restore 14
	.loc 1 633 11 view .LVU111
	mov	r0, #1
.LVL34:
	.loc 1 634 1 view .LVU112
	bx	lr
.L29:
	.align	2
.L28:
	.word	-65273856
	.word	-790528
	.word	-12352
	.word	-987136
	.word	-14400
	.cfi_endproc
.LFE145:
	.size	mpack_utf8_check_impl, .-mpack_utf8_check_impl
	.section	.text.mpack_file_tree_teardown,"ax",%progbits
	.align	2
	.syntax unified
	.arm
	.type	mpack_file_tree_teardown, %function
mpack_file_tree_teardown:
.LVL35:
.LFB347:
	.loc 1 4328 58 is_stmt 1 view -0
	.cfi_startproc
	@ args = 0, pretend = 0, frame = 0
	@ frame_needed = 0, uses_anonymous_args = 0
	.loc 1 4329 5 view .LVU114
	.loc 1 4328 58 is_stmt 0 view .LVU115
	push	{r4, lr}
	.cfi_def_cfa_offset 8
	.cfi_offset 4, -8
	.cfi_offset 14, -4
	.loc 1 4329 24 view .LVU116
	ldr	r4, [r0, #8]
.LVL36:
	.loc 1 4330 5 is_stmt 1 view .LVU117
	ldr	r0, [r4]
.LVL37:
	.loc 1 4330 5 is_stmt 0 view .LVU118
	bl	free
.LVL38:
	.loc 1 4331 5 is_stmt 1 view .LVU119
	mov	r0, r4
	.loc 1 4332 1 is_stmt 0 view .LVU120
	pop	{r4, lr}
	.cfi_restore 14
	.cfi_restore 4
	.cfi_def_cfa_offset 0
.LVL39:
	.loc 1 4331 5 view .LVU121
	b	free
.LVL40:
	.loc 1 4331 5 view .LVU122
	.cfi_endproc
.LFE347:
	.size	mpack_file_tree_teardown, .-mpack_file_tree_teardown
	.section	.text.mpack_file_reader_fill,"ax",%progbits
	.align	2
	.syntax unified
	.arm
	.type	mpack_file_reader_fill, %function
mpack_file_reader_fill:
.LVL41:
.LFB235:
	.loc 1 1719 90 is_stmt 1 view -0
	.cfi_startproc
	@ args = 0, pretend = 0, frame = 0
	@ frame_needed = 0, uses_anonymous_args = 0
	@ link register save eliminated.
	.loc 1 1720 5 view .LVU124
	.loc 1 1719 90 is_stmt 0 view .LVU125
	mov	r3, r0
	mov	r0, r1
.LVL42:
	.loc 1 1720 12 view .LVU126
	ldr	r3, [r3]
.LVL43:
	.loc 1 1720 12 view .LVU127
	mov	r1, #1
.LVL44:
	.loc 1 1720 12 view .LVU128
	b	fread
.LVL45:
	.loc 1 1720 12 view .LVU129
	.cfi_endproc
.LFE235:
	.size	mpack_file_reader_fill, .-mpack_file_reader_fill
	.section	.text.mpack_growable_writer_teardown,"ax",%progbits
	.align	2
	.syntax unified
	.arm
	.type	mpack_growable_writer_teardown, %function
mpack_growable_writer_teardown:
.LVL46:
.LFB154:
	.loc 1 804 68 is_stmt 1 view -0
	.cfi_startproc
	@ args = 0, pretend = 0, frame = 0
	@ frame_needed = 0, uses_anonymous_args = 0
	.loc 1 805 5 view .LVU131
	.loc 1 804 68 is_stmt 0 view .LVU132
	push	{r4, r5, r6, lr}
	.cfi_def_cfa_offset 16
	.cfi_offset 4, -16
	.cfi_offset 5, -12
	.cfi_offset 6, -8
	.cfi_offset 14, -4
	.loc 1 807 8 discriminator 1 view .LVU133
	ldrb	r3, [r0, #28]	@ zero_extendqisi2
	.loc 1 804 68 view .LVU134
	mov	r4, r0
	.loc 1 807 8 discriminator 1 view .LVU135
	cmp	r3, #0
	.loc 1 805 30 view .LVU136
	ldr	r5, [r0, #12]
.LVL47:
	.loc 1 807 5 is_stmt 1 view .LVU137
.LBB2318:
.LBI2318:
	.file 2 "C:/Users/Elias/CLionProjects/3DSCraft/dependencies/mpack/mpack.h"
	.loc 2 1706 29 view .LVU138
.LBB2319:
	.loc 2 1707 5 view .LVU139
	.loc 2 1707 5 is_stmt 0 view .LVU140
.LBE2319:
.LBE2318:
.LBB2320:
	.loc 1 812 55 view .LVU141
	ldr	r0, [r0, #16]
.LVL48:
	.loc 1 812 55 view .LVU142
.LBE2320:
	.loc 1 807 8 discriminator 1 view .LVU143
	bne	.L34
	.loc 1 811 9 is_stmt 1 view .LVU144
	.loc 1 811 19 is_stmt 0 view .LVU145
	ldr	r1, [r4, #24]
	.loc 1 811 41 view .LVU146
	ldr	r3, [r4, #20]
	.loc 1 811 12 view .LVU147
	cmp	r1, r3, lsr #1
	bcc	.L48
.L35:
	.loc 1 822 9 is_stmt 1 view .LVU148
	.loc 1 822 39 is_stmt 0 view .LVU149
	ldr	r3, [r5]
	.loc 1 823 39 view .LVU150
	ldr	r2, [r5, #4]
	.loc 1 822 39 view .LVU151
	str	r0, [r3]
	.loc 1 823 9 is_stmt 1 view .LVU152
	.loc 1 824 24 is_stmt 0 view .LVU153
	mov	r3, #0
	.loc 1 823 39 view .LVU154
	str	r1, [r2]
	.loc 1 824 9 is_stmt 1 view .LVU155
	.loc 1 824 24 is_stmt 0 view .LVU156
	str	r3, [r4, #16]
.L40:
	.loc 1 831 5 is_stmt 1 view .LVU157
	.loc 1 831 21 is_stmt 0 view .LVU158
	mov	r3, #0
	str	r3, [r4, #12]
	.loc 1 832 1 view .LVU159
	pop	{r4, r5, r6, pc}
.L34:
	.loc 1 826 12 is_stmt 1 view .LVU160
	.loc 1 826 15 is_stmt 0 view .LVU161
	cmp	r0, #0
	beq	.L40
	.loc 1 827 9 is_stmt 1 view .LVU162
	bl	free
.LVL49:
	.loc 1 828 9 view .LVU163
	.loc 1 828 24 is_stmt 0 view .LVU164
	mov	r3, #0
	str	r3, [r4, #16]
	b	.L40
.L48:
.LBB2331:
	.loc 1 812 13 is_stmt 1 view .LVU165
.LVL50:
.LBB2321:
.LBI2321:
	.loc 2 741 28 view .LVU166
.LBB2322:
	.loc 2 742 13 view .LVU167
	.loc 2 743 13 view .LVU168
	.loc 2 743 20 is_stmt 0 view .LVU169
	bl	realloc
.LVL51:
	.loc 2 743 20 view .LVU170
.LBE2322:
.LBE2321:
	.loc 1 813 13 is_stmt 1 view .LVU171
	.loc 1 813 16 is_stmt 0 view .LVU172
	cmp	r0, #0
	.loc 1 819 34 view .LVU173
	ldrne	r1, [r4, #24]
	.loc 1 819 26 view .LVU174
	strne	r1, [r4, #20]
	.loc 1 813 16 view .LVU175
	bne	.L35
	.loc 1 814 17 is_stmt 1 view .LVU176
	ldr	r0, [r4, #16]
.LVL52:
	.loc 1 814 17 is_stmt 0 view .LVU177
	bl	free
.LVL53:
	.loc 1 815 17 is_stmt 1 view .LVU178
.LBB2323:
.LBI2323:
	.loc 1 915 6 view .LVU179
.LBB2324:
	.loc 1 916 5 view .LVU180
	.loc 1 918 5 view .LVU181
	.loc 1 918 8 is_stmt 0 view .LVU182
	ldrb	r3, [r4, #28]	@ zero_extendqisi2
	cmp	r3, #0
	popne	{r4, r5, r6, pc}
.LVL54:
.LBB2325:
.LBI2325:
	.loc 1 915 6 is_stmt 1 view .LVU183
.LBB2326:
	.loc 1 919 9 view .LVU184
	.loc 1 919 23 is_stmt 0 view .LVU185
	mov	r1, #6
	.loc 1 920 19 view .LVU186
	ldr	r3, [r4, #4]
	.loc 1 919 23 view .LVU187
	strb	r1, [r4, #28]
	.loc 1 920 9 is_stmt 1 view .LVU188
	.loc 1 920 12 is_stmt 0 view .LVU189
	cmp	r3, #0
	popeq	{r4, r5, r6, pc}
	.loc 1 921 13 is_stmt 1 view .LVU190
	mov	r0, r4
.LBE2326:
.LBE2325:
.LBE2324:
.LBE2323:
.LBE2331:
	.loc 1 832 1 is_stmt 0 view .LVU191
	pop	{r4, r5, r6, lr}
	.cfi_restore 14
	.cfi_restore 6
	.cfi_restore 5
	.cfi_restore 4
	.cfi_def_cfa_offset 0
.LVL55:
.LBB2332:
.LBB2330:
.LBB2329:
.LBB2328:
.LBB2327:
	.loc 1 921 13 view .LVU192
	bx	r3	@ indirect register sibling call
.LVL56:
	.loc 1 921 13 view .LVU193
.LBE2327:
.LBE2328:
.LBE2329:
.LBE2330:
.LBE2332:
	.cfi_endproc
.LFE154:
	.size	mpack_growable_writer_teardown, .-mpack_growable_writer_teardown
	.section	.text.mpack_tree_flag_error.part.0,"ax",%progbits
	.align	2
	.syntax unified
	.arm
	.type	mpack_tree_flag_error.part.0, %function
mpack_tree_flag_error.part.0:
.LVL57:
.LFB410:
	.loc 1 4445 6 is_stmt 1 view -0
	.cfi_startproc
	@ args = 0, pretend = 0, frame = 0
	@ frame_needed = 0, uses_anonymous_args = 0
	@ link register save eliminated.
	.loc 1 4447 9 view .LVU195
	.loc 1 4448 9 view .LVU196
	.loc 1 4449 17 is_stmt 0 view .LVU197
	ldr	r2, [r0]
	.loc 1 4448 21 view .LVU198
	strb	r1, [r0, #32]
	.loc 1 4449 9 is_stmt 1 view .LVU199
	.loc 1 4449 12 is_stmt 0 view .LVU200
	cmp	r2, #0
	bxeq	lr
	.loc 1 4450 13 is_stmt 1 view .LVU201
	bx	r2	@ indirect register sibling call
.LVL58:
	.loc 1 4450 13 is_stmt 0 view .LVU202
	.cfi_endproc
.LFE410:
	.size	mpack_tree_flag_error.part.0, .-mpack_tree_flag_error.part.0
	.section	.text.mpack_partial_fill,"ax",%progbits
	.align	2
	.syntax unified
	.arm
	.type	mpack_partial_fill, %function
mpack_partial_fill:
.LVL59:
.LFB243:
	.loc 1 1843 56 is_stmt 1 view -0
	.cfi_startproc
	@ args = 0, pretend = 0, frame = 0
	@ frame_needed = 0, uses_anonymous_args = 0
	.loc 1 1844 5 view .LVU204
	.loc 1 1843 56 is_stmt 0 view .LVU205
	push	{r4, lr}
	.cfi_def_cfa_offset 8
	.cfi_offset 4, -8
	.cfi_offset 14, -4
	.loc 1 1843 56 view .LVU206
	mov	r4, r0
	.loc 1 1844 19 view .LVU207
	ldr	r0, [r0, #20]
.LVL60:
	.loc 1 1844 44 view .LVU208
	ldr	r1, [r4, #32]
	.loc 1 1844 5 view .LVU209
	ldr	r2, [r4, #28]
	add	r1, r0, r1
	bl	memmove
.LVL61:
	.loc 1 1845 5 is_stmt 1 view .LVU210
	.loc 1 1846 21 is_stmt 0 view .LVU211
	ldrd	r2, [r4, #24]
	.loc 1 1845 17 view .LVU212
	mov	r0, #0
	.loc 1 1846 21 view .LVU213
	ldr	r1, [r4, #20]
	.loc 1 1845 17 view .LVU214
	str	r0, [r4, #32]
	.loc 1 1846 5 is_stmt 1 view .LVU215
.LVL62:
.LBB2335:
.LBI2335:
	.loc 1 1831 15 view .LVU216
.LBB2336:
	.loc 1 1832 5 view .LVU217
	.loc 1 1834 5 view .LVU218
	.loc 1 1834 18 is_stmt 0 view .LVU219
	sub	r2, r2, r3
.LVL63:
	.loc 1 1834 18 view .LVU220
	add	r1, r1, r3
.LVL64:
	.loc 1 1834 18 view .LVU221
	mov	r0, r4
	ldr	r3, [r4, #4]
	blx	r3
.LVL65:
	.loc 1 1836 16 view .LVU222
	cmn	r0, #1
	moveq	r0, #0
.LBE2336:
.LBE2335:
	.loc 1 1846 18 discriminator 1 view .LVU223
	ldr	r3, [r4, #28]
.LBB2338:
.LBB2337:
	.loc 1 1835 5 is_stmt 1 view .LVU224
.LVL66:
	.loc 1 1835 5 is_stmt 0 view .LVU225
.LBE2337:
.LBE2338:
	.loc 1 1846 18 discriminator 1 view .LVU226
	add	r3, r3, r0
	str	r3, [r4, #28]
	.loc 1 1847 1 view .LVU227
	pop	{r4, pc}
	.cfi_endproc
.LFE243:
	.size	mpack_partial_fill, .-mpack_partial_fill
	.section	.text.mpack_file_writer_flush,"ax",%progbits
	.align	2
	.syntax unified
	.arm
	.type	mpack_file_writer_flush, %function
mpack_file_writer_flush:
.LVL67:
.LFB157:
	.loc 1 870 95 is_stmt 1 view -0
	.cfi_startproc
	@ args = 0, pretend = 0, frame = 0
	@ frame_needed = 0, uses_anonymous_args = 0
	.loc 1 870 95 is_stmt 0 view .LVU229
	push	{r4, r5, r6, lr}
	.cfi_def_cfa_offset 16
	.cfi_offset 4, -16
	.cfi_offset 5, -12
	.cfi_offset 6, -8
	.cfi_offset 14, -4
	.loc 1 870 95 view .LVU230
	mov	r4, r0
	mov	r0, r1
.LVL68:
	.loc 1 872 22 view .LVU231
	ldr	r3, [r4, #12]
	mov	r1, #1
.LVL69:
	.loc 1 871 5 is_stmt 1 view .LVU232
	.loc 1 872 5 view .LVU233
	.loc 1 870 95 is_stmt 0 view .LVU234
	mov	r5, r2
	.loc 1 872 22 view .LVU235
	bl	fwrite
.LVL70:
	.loc 1 873 5 is_stmt 1 view .LVU236
	.loc 1 873 8 is_stmt 0 view .LVU237
	cmp	r5, r0
	popeq	{r4, r5, r6, pc}
	.loc 1 874 9 is_stmt 1 view .LVU238
.LVL71:
.LBB2347:
.LBI2347:
	.loc 1 915 6 view .LVU239
.LBB2348:
	.loc 1 916 5 view .LVU240
	.loc 1 918 5 view .LVU241
	.loc 1 918 8 is_stmt 0 view .LVU242
	ldrb	r3, [r4, #28]	@ zero_extendqisi2
	cmp	r3, #0
	popne	{r4, r5, r6, pc}
.LVL72:
	.loc 1 918 8 view .LVU243
.LBE2348:
.LBE2347:
.LBB2349:
.LBI2349:
	.loc 1 870 13 is_stmt 1 view .LVU244
.LBB2350:
.LBB2351:
.LBB2352:
.LBI2352:
	.loc 1 915 6 view .LVU245
.LBB2353:
	.loc 1 919 9 view .LVU246
	.loc 1 919 23 is_stmt 0 view .LVU247
	mov	r1, #2
	.loc 1 920 19 view .LVU248
	ldr	r3, [r4, #4]
	.loc 1 919 23 view .LVU249
	strb	r1, [r4, #28]
	.loc 1 920 9 is_stmt 1 view .LVU250
	.loc 1 920 12 is_stmt 0 view .LVU251
	cmp	r3, #0
	popeq	{r4, r5, r6, pc}
	.loc 1 921 13 is_stmt 1 view .LVU252
	mov	r0, r4
.LVL73:
	.loc 1 921 13 is_stmt 0 view .LVU253
.LBE2353:
.LBE2352:
.LBE2351:
.LBE2350:
.LBE2349:
	.loc 1 875 1 view .LVU254
	pop	{r4, r5, r6, lr}
	.cfi_restore 14
	.cfi_restore 6
	.cfi_restore 5
	.cfi_restore 4
	.cfi_def_cfa_offset 0
.LVL74:
.LBB2358:
.LBB2357:
.LBB2356:
.LBB2355:
.LBB2354:
	.loc 1 921 13 view .LVU255
	bx	r3	@ indirect register sibling call
.LVL75:
	.loc 1 921 13 view .LVU256
.LBE2354:
.LBE2355:
.LBE2356:
.LBE2357:
.LBE2358:
	.cfi_endproc
.LFE157:
	.size	mpack_file_writer_flush, .-mpack_file_writer_flush
	.section	.text.mpack_file_writer_teardown,"ax",%progbits
	.align	2
	.syntax unified
	.arm
	.type	mpack_file_writer_teardown, %function
mpack_file_writer_teardown:
.LVL76:
.LFB158:
	.loc 1 877 64 is_stmt 1 view -0
	.cfi_startproc
	@ args = 0, pretend = 0, frame = 0
	@ frame_needed = 0, uses_anonymous_args = 0
	.loc 1 878 5 view .LVU258
	.loc 1 877 64 is_stmt 0 view .LVU259
	push	{r4, lr}
	.cfi_def_cfa_offset 8
	.cfi_offset 4, -8
	.cfi_offset 14, -4
	.loc 1 877 64 view .LVU260
	mov	r4, r0
	.loc 1 878 11 view .LVU261
	ldr	r0, [r0, #12]
.LVL77:
	.loc 1 880 5 is_stmt 1 view .LVU262
	.loc 1 880 8 is_stmt 0 view .LVU263
	cmp	r0, #0
	beq	.L65
.LBB2364:
	.loc 1 881 9 is_stmt 1 view .LVU264
	.loc 1 881 19 is_stmt 0 view .LVU265
	bl	fclose
.LVL78:
	.loc 1 882 9 is_stmt 1 view .LVU266
	.loc 1 882 25 is_stmt 0 view .LVU267
	mov	r3, #0
	.loc 1 883 12 view .LVU268
	cmp	r0, r3
	.loc 1 882 25 view .LVU269
	str	r3, [r4, #12]
	.loc 1 883 9 is_stmt 1 view .LVU270
	.loc 1 883 12 is_stmt 0 view .LVU271
	beq	.L65
	.loc 1 884 13 is_stmt 1 view .LVU272
.LVL79:
.LBB2365:
.LBI2365:
	.loc 1 915 6 view .LVU273
.LBB2366:
	.loc 1 916 5 view .LVU274
	.loc 1 918 5 view .LVU275
	.loc 1 918 8 is_stmt 0 view .LVU276
	ldrb	r3, [r4, #28]	@ zero_extendqisi2
	cmp	r3, #0
	bne	.L65
.LVL80:
.LBB2367:
.LBI2367:
	.loc 1 915 6 is_stmt 1 view .LVU277
.LBB2368:
	.loc 1 919 9 view .LVU278
	.loc 1 919 23 is_stmt 0 view .LVU279
	mov	r1, #2
	.loc 1 920 19 view .LVU280
	ldr	r3, [r4, #4]
	.loc 1 919 23 view .LVU281
	strb	r1, [r4, #28]
	.loc 1 920 9 is_stmt 1 view .LVU282
	.loc 1 920 12 is_stmt 0 view .LVU283
	cmp	r3, #0
	beq	.L65
	.loc 1 921 13 is_stmt 1 view .LVU284
	mov	r0, r4
.LVL81:
	.loc 1 921 13 is_stmt 0 view .LVU285
	blx	r3
.LVL82:
.L65:
	.loc 1 921 13 view .LVU286
.LBE2368:
.LBE2367:
.LBE2366:
.LBE2365:
.LBE2364:
	.loc 1 887 5 is_stmt 1 view .LVU287
	ldr	r0, [r4, #16]
	bl	free
.LVL83:
	.loc 1 888 5 view .LVU288
	.loc 1 888 20 is_stmt 0 view .LVU289
	mov	r3, #0
	str	r3, [r4, #16]
	.loc 1 889 1 view .LVU290
	pop	{r4, pc}
	.cfi_endproc
.LFE158:
	.size	mpack_file_writer_teardown, .-mpack_file_writer_teardown
	.section	.text.mpack_writer_ensure,"ax",%progbits
	.align	2
	.syntax unified
	.arm
	.type	mpack_writer_ensure, %function
mpack_writer_ensure:
.LVL84:
.LFB162:
	.loc 1 937 70 is_stmt 1 view -0
	.cfi_startproc
	@ args = 0, pretend = 0, frame = 0
	@ frame_needed = 0, uses_anonymous_args = 0
	.loc 1 938 5 view .LVU292
	.loc 1 939 5 view .LVU293
	.loc 1 942 5 view .LVU294
.LBB2387:
.LBI2387:
	.loc 2 1678 22 view .LVU295
.LBB2388:
	.loc 2 1679 5 view .LVU296
.LBE2388:
.LBE2387:
	.loc 1 948 8 is_stmt 0 discriminator 1 view .LVU297
	ldrb	r3, [r0, #28]	@ zero_extendqisi2
.LBB2390:
.LBB2389:
	.loc 2 1679 33 view .LVU298
	ldr	r2, [r0, #24]
.LVL85:
	.loc 2 1679 33 view .LVU299
.LBE2389:
.LBE2390:
	.loc 1 946 5 is_stmt 1 view .LVU300
	.loc 1 948 5 view .LVU301
.LBB2391:
.LBI2391:
	.loc 2 1706 29 view .LVU302
.LBB2392:
	.loc 2 1707 5 view .LVU303
	.loc 2 1707 5 is_stmt 0 view .LVU304
.LBE2392:
.LBE2391:
	.loc 1 948 8 discriminator 1 view .LVU305
	cmp	r3, #0
	bne	.L88
	.loc 1 937 70 view .LVU306
	push	{r4, r5, r6, lr}
	.cfi_def_cfa_offset 16
	.cfi_offset 4, -16
	.cfi_offset 5, -12
	.cfi_offset 6, -8
	.cfi_offset 14, -4
	.loc 1 951 15 view .LVU307
	ldr	r6, [r0]
	mov	r4, r0
	.loc 1 951 5 is_stmt 1 view .LVU308
	.loc 1 951 8 is_stmt 0 view .LVU309
	cmp	r6, #0
	beq	.L91
	.loc 1 956 5 is_stmt 1 view .LVU310
.LVL86:
.LBB2393:
.LBI2393:
	.loc 1 925 20 view .LVU311
.LBB2394:
	.loc 1 929 5 view .LVU312
	.loc 1 930 5 view .LVU313
	.loc 1 930 18 is_stmt 0 view .LVU314
	str	r3, [r0, #24]
	.loc 1 931 5 is_stmt 1 view .LVU315
	mov	r5, r1
	ldr	r1, [r0, #16]
.LVL87:
	.loc 1 931 5 is_stmt 0 view .LVU316
	blx	r6
.LVL88:
	.loc 1 931 5 view .LVU317
.LBE2394:
.LBE2393:
	.loc 1 957 5 is_stmt 1 view .LVU318
.LBB2395:
.LBI2395:
	.loc 2 1706 29 view .LVU319
.LBB2396:
	.loc 2 1707 5 view .LVU320
	.loc 2 1707 5 is_stmt 0 view .LVU321
.LBE2396:
.LBE2395:
	.loc 1 957 8 discriminator 1 view .LVU322
	ldrb	r3, [r4, #28]	@ zero_extendqisi2
	cmp	r3, #0
	bne	.L76
	.loc 1 960 5 is_stmt 1 view .LVU323
.LVL89:
.LBB2397:
.LBI2397:
	.loc 2 1678 22 view .LVU324
.LBB2398:
	.loc 2 1679 5 view .LVU325
	.loc 2 1679 25 is_stmt 0 view .LVU326
	ldr	r3, [r4, #20]
	ldr	r2, [r4, #24]
	sub	r3, r3, r2
.LBE2398:
.LBE2397:
	.loc 1 960 8 discriminator 1 view .LVU327
	cmp	r5, r3
	bhi	.L92
	.loc 1 961 15 view .LVU328
	mov	r0, #1
	.loc 1 965 1 view .LVU329
	pop	{r4, r5, r6, pc}
.L92:
	.loc 1 963 5 is_stmt 1 view .LVU330
.LVL90:
.LBB2399:
.LBI2399:
	.loc 1 915 6 view .LVU331
	.loc 1 916 5 view .LVU332
	.loc 1 918 5 view .LVU333
.LBB2400:
.LBI2400:
	.loc 1 915 6 view .LVU334
.LBB2401:
	.loc 1 919 9 view .LVU335
	.loc 1 919 23 is_stmt 0 view .LVU336
	mov	r1, #2
	.loc 1 920 19 view .LVU337
	ldr	r3, [r4, #4]
	.loc 1 919 23 view .LVU338
	strb	r1, [r4, #28]
	.loc 1 920 9 is_stmt 1 view .LVU339
	.loc 1 920 12 is_stmt 0 view .LVU340
	cmp	r3, #0
	beq	.L76
	.loc 1 921 13 is_stmt 1 view .LVU341
	mov	r0, r4
	blx	r3
.LVL91:
.L76:
	.loc 1 921 13 is_stmt 0 view .LVU342
.LBE2401:
.LBE2400:
.LBE2399:
	.loc 1 949 15 view .LVU343
	mov	r0, #0
	pop	{r4, r5, r6, pc}
.LVL92:
.L91:
	.loc 1 952 9 is_stmt 1 view .LVU344
.LBB2402:
.LBI2402:
	.loc 1 915 6 view .LVU345
	.loc 1 916 5 view .LVU346
	.loc 1 918 5 view .LVU347
.LBB2403:
.LBI2403:
	.loc 1 915 6 view .LVU348
.LBB2404:
	.loc 1 919 9 view .LVU349
	.loc 1 919 23 is_stmt 0 view .LVU350
	mov	r1, #5
.LVL93:
	.loc 1 920 19 view .LVU351
	ldr	r3, [r0, #4]
	.loc 1 919 23 view .LVU352
	strb	r1, [r0, #28]
	.loc 1 920 9 is_stmt 1 view .LVU353
	.loc 1 920 12 is_stmt 0 view .LVU354
	cmp	r3, #0
	beq	.L76
	.loc 1 921 13 is_stmt 1 view .LVU355
	blx	r3
.LVL94:
	.loc 1 921 13 is_stmt 0 view .LVU356
	b	.L76
.LVL95:
.L88:
	.cfi_def_cfa_offset 0
	.cfi_restore 4
	.cfi_restore 5
	.cfi_restore 6
	.cfi_restore 14
	.loc 1 921 13 view .LVU357
.LBE2404:
.LBE2403:
.LBE2402:
	.loc 1 949 15 view .LVU358
	mov	r0, #0
.LVL96:
	.loc 1 965 1 view .LVU359
	bx	lr
	.cfi_endproc
.LFE162:
	.size	mpack_writer_ensure, .-mpack_writer_ensure
	.section	.text.mpack_write_u64.part.0,"ax",%progbits
	.align	2
	.syntax unified
	.arm
	.type	mpack_write_u64.part.0, %function
mpack_write_u64.part.0:
.LVL97:
.LFB387:
	.loc 1 1347 6 is_stmt 1 view -0
	.cfi_startproc
	@ args = 0, pretend = 0, frame = 0
	@ frame_needed = 0, uses_anonymous_args = 0
	.loc 1 1352 12 view .LVU361
	.loc 1 1347 6 is_stmt 0 view .LVU362
	push	{r4, r5, r6, lr}
	.cfi_def_cfa_offset 16
	.cfi_offset 4, -16
	.cfi_offset 5, -12
	.cfi_offset 6, -8
	.cfi_offset 14, -4
	.loc 1 1347 6 view .LVU363
	mov	r5, r2
	mov	r6, r3
	.loc 1 1352 15 view .LVU364
	cmp	r5, #256
.LBB2405:
.LBB2406:
	.loc 2 1679 33 view .LVU365
	ldr	r2, [r0, #24]
.LVL98:
	.loc 2 1679 33 view .LVU366
.LBE2406:
.LBE2405:
	.loc 1 1352 15 view .LVU367
	sbcs	r3, r6, #0
.LBB2410:
.LBB2407:
	.loc 2 1679 25 view .LVU368
	ldr	r3, [r0, #20]
.LBE2407:
.LBE2410:
	.loc 1 1347 6 view .LVU369
	mov	r4, r0
.LBB2411:
.LBB2408:
	.loc 2 1679 25 view .LVU370
	sub	r3, r3, r2
.LBE2408:
.LBE2411:
	.loc 1 1352 15 view .LVU371
	bcs	.L94
	.loc 1 1353 9 is_stmt 1 view .LVU372
	.loc 1 1353 14 view .LVU373
.LVL99:
.LBB2412:
.LBI2405:
	.loc 2 1678 22 view .LVU374
.LBB2409:
	.loc 2 1679 5 view .LVU375
	.loc 2 1679 5 is_stmt 0 view .LVU376
.LBE2409:
.LBE2412:
	.loc 1 1353 17 discriminator 1 view .LVU377
	cmp	r3, #1
	bls	.L114
.LVL100:
.L95:
	.loc 1 1353 93 is_stmt 1 discriminator 3 view .LVU378
.LBB2413:
.LBB2414:
.LBB2415:
	.loc 2 1142 10 is_stmt 0 view .LVU379
	mvn	r0, #51
.LBE2415:
.LBE2414:
.LBE2413:
	.loc 1 1353 93 discriminator 3 view .LVU380
	ldr	r3, [r4, #16]
	add	r1, r3, r2
.LVL101:
.LBB2420:
.LBI2413:
	.loc 1 1100 20 is_stmt 1 view .LVU381
	.loc 1 1101 5 view .LVU382
	.loc 1 1102 5 view .LVU383
.LBB2417:
.LBI2414:
	.loc 2 1140 20 view .LVU384
.LBB2416:
	.loc 2 1141 5 view .LVU385
	.loc 2 1142 5 view .LVU386
	.loc 2 1142 10 is_stmt 0 view .LVU387
	strb	r0, [r3, r2]
.LVL102:
	.loc 2 1142 10 view .LVU388
.LBE2416:
.LBE2417:
	.loc 1 1103 5 is_stmt 1 view .LVU389
.LBB2418:
.LBI2418:
	.loc 2 1140 20 view .LVU390
.LBB2419:
	.loc 2 1141 5 view .LVU391
	.loc 2 1142 5 view .LVU392
.LBE2419:
.LBE2418:
.LBE2420:
	.loc 1 1353 93 is_stmt 0 discriminator 3 view .LVU393
	strb	r5, [r1, #1]
.LVL103:
	.loc 1 1353 157 is_stmt 1 discriminator 1 view .LVU394
	.loc 1 1353 170 is_stmt 0 discriminator 1 view .LVU395
	ldr	r3, [r4, #24]
	add	r3, r3, #2
	str	r3, [r4, #24]
	pop	{r4, r5, r6, pc}
.LVL104:
.L94:
	.loc 1 1354 12 is_stmt 1 view .LVU396
	.loc 1 1354 15 is_stmt 0 view .LVU397
	cmp	r5, #65536
	sbcs	r1, r6, #0
	bcs	.L98
	.loc 1 1355 9 is_stmt 1 view .LVU398
	.loc 1 1355 14 view .LVU399
	.loc 1 1355 17 is_stmt 0 discriminator 1 view .LVU400
	cmp	r3, #2
	bls	.L115
.LVL105:
.L99:
	.loc 1 1355 93 is_stmt 1 discriminator 3 view .LVU401
.LBB2421:
.LBB2422:
.LBB2423:
	.loc 2 1142 10 is_stmt 0 view .LVU402
	mvn	r0, #50
.LBE2423:
.LBE2422:
.LBE2421:
	.loc 1 1355 93 discriminator 3 view .LVU403
	ldr	r3, [r4, #16]
.LBB2430:
.LBB2426:
.LBB2424:
	.loc 2 1142 10 view .LVU404
	strb	r0, [r3, r2]
.LBE2424:
.LBE2426:
.LBE2430:
	.loc 1 1355 93 discriminator 3 view .LVU405
	add	r1, r3, r2
.LVL106:
.LBB2431:
.LBI2421:
	.loc 1 1106 20 is_stmt 1 view .LVU406
	.loc 1 1107 5 view .LVU407
	.loc 1 1108 5 view .LVU408
.LBB2427:
.LBI2422:
	.loc 2 1140 20 view .LVU409
.LBB2425:
	.loc 2 1141 5 view .LVU410
	.loc 2 1142 5 view .LVU411
	.loc 2 1142 5 is_stmt 0 view .LVU412
.LBE2425:
.LBE2427:
	.loc 1 1109 5 is_stmt 1 view .LVU413
.LBB2428:
.LBI2428:
	.loc 2 1145 20 view .LVU414
.LBB2429:
	.loc 2 1150 5 view .LVU415
	.loc 2 1151 5 view .LVU416
	.loc 2 1151 12 is_stmt 0 view .LVU417
	uxth	r3, r5
	lsr	r3, r3, #8
	strb	r3, [r1, #1]
	.loc 2 1152 5 is_stmt 1 view .LVU418
	.loc 2 1152 12 is_stmt 0 view .LVU419
	strb	r5, [r1, #2]
.LVL107:
	.loc 2 1152 12 view .LVU420
.LBE2429:
.LBE2428:
.LBE2431:
	.loc 1 1355 159 is_stmt 1 discriminator 1 view .LVU421
	.loc 1 1355 172 is_stmt 0 discriminator 1 view .LVU422
	ldr	r3, [r4, #24]
	add	r3, r3, #3
	str	r3, [r4, #24]
	pop	{r4, r5, r6, pc}
.LVL108:
.L98:
	.loc 1 1356 12 is_stmt 1 view .LVU423
	.loc 1 1356 15 is_stmt 0 view .LVU424
	cmp	r6, #0
	bne	.L101
	.loc 1 1357 9 is_stmt 1 view .LVU425
	.loc 1 1357 14 view .LVU426
	.loc 1 1357 17 is_stmt 0 discriminator 1 view .LVU427
	cmp	r3, #4
	bls	.L116
.LVL109:
.L102:
	.loc 1 1357 93 is_stmt 1 discriminator 3 view .LVU428
.LBB2432:
.LBB2433:
.LBB2434:
	.loc 2 1142 10 is_stmt 0 view .LVU429
	mvn	r0, #49
.LBE2434:
.LBE2433:
.LBE2432:
	.loc 1 1357 93 discriminator 3 view .LVU430
	ldr	r1, [r4, #16]
.LBB2441:
.LBB2437:
.LBB2435:
	.loc 2 1142 10 view .LVU431
	strb	r0, [r1, r2]
.LBE2435:
.LBE2437:
.LBE2441:
	.loc 1 1357 93 discriminator 3 view .LVU432
	add	r3, r1, r2
.LVL110:
.LBB2442:
.LBI2432:
	.loc 1 1112 20 is_stmt 1 view .LVU433
	.loc 1 1113 5 view .LVU434
	.loc 1 1114 5 view .LVU435
.LBB2438:
.LBI2433:
	.loc 2 1140 20 view .LVU436
.LBB2436:
	.loc 2 1141 5 view .LVU437
	.loc 2 1142 5 view .LVU438
	.loc 2 1142 5 is_stmt 0 view .LVU439
.LBE2436:
.LBE2438:
	.loc 1 1115 5 is_stmt 1 view .LVU440
.LBB2439:
.LBI2439:
	.loc 2 1156 20 view .LVU441
.LBB2440:
	.loc 2 1161 5 view .LVU442
	.loc 2 1162 5 view .LVU443
	.loc 2 1163 27 is_stmt 0 view .LVU444
	lsr	r2, r5, #16
	.loc 2 1163 12 view .LVU445
	strb	r2, [r3, #2]
	.loc 2 1162 27 view .LVU446
	lsr	r1, r5, #24
	.loc 2 1164 27 view .LVU447
	lsr	r2, r5, #8
	.loc 2 1162 12 view .LVU448
	strb	r1, [r3, #1]
	.loc 2 1163 5 is_stmt 1 view .LVU449
	.loc 2 1164 5 view .LVU450
	.loc 2 1164 12 is_stmt 0 view .LVU451
	strb	r2, [r3, #3]
	.loc 2 1165 5 is_stmt 1 view .LVU452
	.loc 2 1165 12 is_stmt 0 view .LVU453
	strb	r5, [r3, #4]
.LVL111:
	.loc 2 1165 12 view .LVU454
.LBE2440:
.LBE2439:
.LBE2442:
	.loc 1 1357 159 is_stmt 1 discriminator 1 view .LVU455
	.loc 1 1357 172 is_stmt 0 discriminator 1 view .LVU456
	ldr	r3, [r4, #24]
.LVL112:
	.loc 1 1357 172 discriminator 1 view .LVU457
	add	r3, r3, #5
	str	r3, [r4, #24]
	pop	{r4, r5, r6, pc}
.LVL113:
.L114:
	.loc 1 1353 59 discriminator 2 view .LVU458
	mov	r1, #2
	bl	mpack_writer_ensure
.LVL114:
	.loc 1 1353 56 discriminator 1 view .LVU459
	cmp	r0, #0
	popeq	{r4, r5, r6, pc}
	.loc 1 1353 132 discriminator 3 view .LVU460
	ldr	r2, [r4, #24]
	b	.L95
.LVL115:
.L101:
	.loc 1 1359 9 is_stmt 1 view .LVU461
	.loc 1 1359 14 view .LVU462
	.loc 1 1359 17 is_stmt 0 discriminator 1 view .LVU463
	cmp	r3, #8
	bls	.L117
.LVL116:
.L103:
	.loc 1 1359 93 is_stmt 1 discriminator 3 view .LVU464
.LBB2443:
.LBB2444:
.LBB2445:
	.loc 2 1142 10 is_stmt 0 view .LVU465
	mvn	r1, #48
.LBE2445:
.LBE2444:
.LBE2443:
	.loc 1 1359 93 discriminator 3 view .LVU466
	ldr	r3, [r4, #16]
.LBB2456:
.LBB2448:
.LBB2449:
	.loc 2 1171 11 view .LVU467
	rev	r5, r5
.LBE2449:
.LBE2448:
.LBB2452:
.LBB2446:
	.loc 2 1142 10 view .LVU468
	strb	r1, [r3, r2]
.LBE2446:
.LBE2452:
.LBB2453:
.LBB2450:
	.loc 2 1171 11 view .LVU469
	rev	r6, r6
.LBE2450:
.LBE2453:
.LBE2456:
	.loc 1 1359 93 discriminator 3 view .LVU470
	add	r3, r3, r2
.LVL117:
.LBB2457:
.LBI2443:
	.loc 1 1118 20 is_stmt 1 view .LVU471
	.loc 1 1119 5 view .LVU472
	.loc 1 1120 5 view .LVU473
.LBB2454:
.LBI2444:
	.loc 2 1140 20 view .LVU474
.LBB2447:
	.loc 2 1141 5 view .LVU475
	.loc 2 1142 5 view .LVU476
	.loc 2 1142 5 is_stmt 0 view .LVU477
.LBE2447:
.LBE2454:
	.loc 1 1121 5 is_stmt 1 view .LVU478
.LBB2455:
.LBI2448:
	.loc 2 1169 20 view .LVU479
.LBB2451:
	.loc 2 1171 5 view .LVU480
	.loc 2 1172 5 view .LVU481
	str	r6, [r3, #1]	@ unaligned
	str	r5, [r3, #5]	@ unaligned
.LVL118:
	.loc 2 1172 5 is_stmt 0 view .LVU482
.LBE2451:
.LBE2455:
.LBE2457:
	.loc 1 1359 149 is_stmt 1 discriminator 1 view .LVU483
	.loc 1 1359 162 is_stmt 0 discriminator 1 view .LVU484
	ldr	r3, [r4, #24]
.LVL119:
	.loc 1 1359 162 discriminator 1 view .LVU485
	add	r3, r3, #9
	str	r3, [r4, #24]
	.loc 1 1359 12 is_stmt 1 discriminator 5 view .LVU486
	.loc 1 1361 1 is_stmt 0 view .LVU487
	pop	{r4, r5, r6, pc}
.LVL120:
.L115:
	.loc 1 1355 59 discriminator 2 view .LVU488
	mov	r1, #3
	bl	mpack_writer_ensure
.LVL121:
	.loc 1 1355 56 discriminator 1 view .LVU489
	cmp	r0, #0
	popeq	{r4, r5, r6, pc}
	.loc 1 1355 133 discriminator 3 view .LVU490
	ldr	r2, [r4, #24]
	b	.L99
.LVL122:
.L116:
	.loc 1 1357 59 discriminator 2 view .LVU491
	mov	r1, #5
	bl	mpack_writer_ensure
.LVL123:
	.loc 1 1357 56 discriminator 1 view .LVU492
	cmp	r0, #0
	popeq	{r4, r5, r6, pc}
	.loc 1 1357 133 discriminator 3 view .LVU493
	ldr	r2, [r4, #24]
	b	.L102
.LVL124:
.L117:
	.loc 1 1359 59 discriminator 2 view .LVU494
	mov	r1, #9
	bl	mpack_writer_ensure
.LVL125:
	.loc 1 1359 56 discriminator 1 view .LVU495
	cmp	r0, #0
	popeq	{r4, r5, r6, pc}
	.loc 1 1359 133 discriminator 3 view .LVU496
	ldr	r2, [r4, #24]
	b	.L103
	.cfi_endproc
.LFE387:
	.size	mpack_write_u64.part.0, .-mpack_write_u64.part.0
	.section	.text.mpack_write_native_straddle,"ax",%progbits
	.align	2
	.syntax unified
	.arm
	.type	mpack_write_native_straddle, %function
mpack_write_native_straddle:
.LVL126:
.LFB163:
	.loc 1 971 94 is_stmt 1 view -0
	.cfi_startproc
	@ args = 0, pretend = 0, frame = 0
	@ frame_needed = 0, uses_anonymous_args = 0
	.loc 1 972 5 view .LVU498
	.loc 1 974 5 view .LVU499
.LBB2468:
.LBI2468:
	.loc 2 1706 29 view .LVU500
.LBB2469:
	.loc 2 1707 5 view .LVU501
	.loc 2 1707 5 is_stmt 0 view .LVU502
.LBE2469:
.LBE2468:
	.loc 1 974 8 discriminator 1 view .LVU503
	ldrb	r3, [r0, #28]	@ zero_extendqisi2
	cmp	r3, #0
	bxne	lr
	.loc 1 971 94 view .LVU504
	push	{r4, r5, r6, r7, r8, lr}
	.cfi_def_cfa_offset 24
	.cfi_offset 4, -24
	.cfi_offset 5, -20
	.cfi_offset 6, -16
	.cfi_offset 7, -12
	.cfi_offset 8, -8
	.cfi_offset 14, -4
	.loc 1 984 16 view .LVU505
	ldr	r7, [r0]
	mov	r5, r2
	.loc 1 976 5 is_stmt 1 view .LVU506
	.loc 1 978 5 view .LVU507
	.loc 1 984 8 is_stmt 0 view .LVU508
	cmp	r7, #0
	mov	r4, r0
	.loc 1 978 38 view .LVU509
	ldr	r2, [r0, #24]
.LVL127:
	.loc 1 984 5 is_stmt 1 view .LVU510
	.loc 1 984 8 is_stmt 0 view .LVU511
	beq	.L131
	.loc 1 990 5 is_stmt 1 view .LVU512
.LVL128:
.LBB2470:
.LBI2470:
	.loc 1 925 20 view .LVU513
.LBB2471:
	.loc 1 929 5 view .LVU514
	.loc 1 930 5 view .LVU515
	.loc 1 930 18 is_stmt 0 view .LVU516
	str	r3, [r0, #24]
	.loc 1 931 5 is_stmt 1 view .LVU517
	mov	r6, r1
	ldr	r1, [r0, #16]
.LVL129:
	.loc 1 931 5 is_stmt 0 view .LVU518
	blx	r7
.LVL130:
	.loc 1 931 5 view .LVU519
.LBE2471:
.LBE2470:
	.loc 1 991 5 is_stmt 1 view .LVU520
.LBB2472:
.LBI2472:
	.loc 2 1706 29 view .LVU521
.LBB2473:
	.loc 2 1707 5 view .LVU522
	.loc 2 1707 5 is_stmt 0 view .LVU523
.LBE2473:
.LBE2472:
	.loc 1 991 8 discriminator 1 view .LVU524
	ldrb	r3, [r4, #28]	@ zero_extendqisi2
	cmp	r3, #0
	popne	{r4, r5, r6, r7, r8, pc}
	.loc 1 999 5 is_stmt 1 view .LVU525
	.loc 1 999 38 is_stmt 0 view .LVU526
	ldr	r2, [r4, #24]
	.loc 1 999 30 view .LVU527
	ldr	r3, [r4, #20]
	sub	r3, r3, r2
	.loc 1 999 8 view .LVU528
	cmp	r3, r5
	bcs	.L123
	.loc 1 1000 9 is_stmt 1 view .LVU529
	mov	r2, r5
	mov	r1, r6
	mov	r0, r4
	ldr	r3, [r4]
	.loc 1 1007 1 is_stmt 0 view .LVU530
	pop	{r4, r5, r6, r7, r8, lr}
	.cfi_remember_state
	.cfi_restore 14
	.cfi_restore 8
	.cfi_restore 7
	.cfi_restore 6
	.cfi_restore 5
	.cfi_restore 4
	.cfi_def_cfa_offset 0
.LVL131:
	.loc 1 1000 9 view .LVU531
	bx	r3	@ indirect register sibling call
.LVL132:
.L123:
	.cfi_restore_state
	.loc 1 1004 9 is_stmt 1 view .LVU532
	.loc 1 1004 31 is_stmt 0 view .LVU533
	ldr	r0, [r4, #16]
	.loc 1 1004 9 view .LVU534
	mov	r1, r6
	add	r0, r0, r2
	mov	r2, r5
	bl	memcpy
.LVL133:
	.loc 1 1005 9 is_stmt 1 view .LVU535
	.loc 1 1005 22 is_stmt 0 view .LVU536
	ldr	r3, [r4, #24]
	add	r3, r3, r5
	str	r3, [r4, #24]
	.loc 1 1007 1 view .LVU537
	pop	{r4, r5, r6, r7, r8, pc}
.LVL134:
.L131:
	.loc 1 985 9 is_stmt 1 view .LVU538
.LBB2474:
.LBI2474:
	.loc 1 915 6 view .LVU539
	.loc 1 916 5 view .LVU540
	.loc 1 918 5 view .LVU541
.LBB2475:
.LBI2475:
	.loc 1 915 6 view .LVU542
.LBB2476:
	.loc 1 919 9 view .LVU543
	.loc 1 919 23 is_stmt 0 view .LVU544
	mov	r1, #5
.LVL135:
	.loc 1 920 19 view .LVU545
	ldr	r3, [r0, #4]
	.loc 1 919 23 view .LVU546
	strb	r1, [r0, #28]
	.loc 1 920 9 is_stmt 1 view .LVU547
	.loc 1 920 12 is_stmt 0 view .LVU548
	cmp	r3, #0
	popeq	{r4, r5, r6, r7, r8, pc}
	.loc 1 921 13 is_stmt 1 view .LVU549
.LBE2476:
.LBE2475:
.LBE2474:
	.loc 1 1007 1 is_stmt 0 view .LVU550
	pop	{r4, r5, r6, r7, r8, lr}
	.cfi_restore 14
	.cfi_restore 8
	.cfi_restore 7
	.cfi_restore 6
	.cfi_restore 5
	.cfi_restore 4
	.cfi_def_cfa_offset 0
.LVL136:
.LBB2479:
.LBB2478:
.LBB2477:
	.loc 1 921 13 view .LVU551
	bx	r3	@ indirect register sibling call
.LVL137:
	.loc 1 921 13 view .LVU552
.LBE2477:
.LBE2478:
.LBE2479:
	.cfi_endproc
.LFE163:
	.size	mpack_write_native_straddle, .-mpack_write_native_straddle
	.section	.text.mpack_tree_parse_bytes,"ax",%progbits
	.align	2
	.syntax unified
	.arm
	.type	mpack_tree_parse_bytes, %function
mpack_tree_parse_bytes:
.LVL138:
.LFB338:
	.loc 1 3816 90 is_stmt 1 view -0
	.cfi_startproc
	@ args = 0, pretend = 0, frame = 0
	@ frame_needed = 0, uses_anonymous_args = 0
	@ link register save eliminated.
	.loc 1 3817 5 view .LVU554
	.loc 1 3818 24 is_stmt 0 view .LVU555
	ldr	r2, [r0, #8]
	.loc 1 3817 12 view .LVU556
	ldr	r3, [r1, #4]
.LVL139:
	.loc 1 3818 5 is_stmt 1 view .LVU557
	.loc 1 3818 8 is_stmt 0 view .LVU558
	cmp	r2, r3
	bcc	.L140
	.loc 1 3822 5 is_stmt 1 view .LVU559
	.loc 1 3822 31 is_stmt 0 view .LVU560
	ldr	ip, [r0, #4]
	.loc 1 3824 33 view .LVU561
	sub	r2, r2, r3
	.loc 1 3823 18 view .LVU562
	add	r3, ip, r3
.LVL140:
	.loc 1 3822 23 view .LVU563
	str	ip, [r1, #8]
	.loc 1 3823 5 is_stmt 1 view .LVU564
	.loc 1 3823 18 is_stmt 0 view .LVU565
	str	r3, [r0, #4]
	.loc 1 3824 5 is_stmt 1 view .LVU566
	.loc 1 3824 33 is_stmt 0 view .LVU567
	str	r2, [r0, #8]
	.loc 1 3825 1 view .LVU568
	bx	lr
.LVL141:
.L140:
	.loc 1 3825 1 view .LVU569
	ldr	r0, [r0]
.LVL142:
.LBB2488:
.LBI2488:
	.loc 1 3816 13 is_stmt 1 view .LVU570
.LBB2489:
	.loc 1 3819 9 view .LVU571
.LBB2490:
.LBI2490:
	.loc 1 4445 6 view .LVU572
.LBB2491:
	.loc 1 4446 5 view .LVU573
	.loc 1 4446 8 is_stmt 0 view .LVU574
	ldrb	r3, [r0, #32]	@ zero_extendqisi2
.LVL143:
	.loc 1 4446 8 view .LVU575
	cmp	r3, #0
	bxne	lr
.LVL144:
.LBB2492:
.LBI2492:
	.loc 1 4445 6 is_stmt 1 view .LVU576
.LBB2493:
	.loc 1 4447 9 view .LVU577
	.loc 1 4448 9 view .LVU578
	.loc 1 4448 21 is_stmt 0 view .LVU579
	mov	r1, #3
.LVL145:
	.loc 1 4449 17 view .LVU580
	ldr	r3, [r0]
	.loc 1 4448 21 view .LVU581
	strb	r1, [r0, #32]
.LVL146:
	.loc 1 4449 9 is_stmt 1 view .LVU582
	.loc 1 4449 12 is_stmt 0 view .LVU583
	cmp	r3, #0
	bxeq	lr
	.loc 1 4450 13 is_stmt 1 view .LVU584
	bx	r3	@ indirect register sibling call
.LVL147:
	.loc 1 4450 13 is_stmt 0 view .LVU585
.LBE2493:
.LBE2492:
.LBE2491:
.LBE2490:
.LBE2489:
.LBE2488:
	.cfi_endproc
.LFE338:
	.size	mpack_tree_parse_bytes, .-mpack_tree_parse_bytes
	.section	.text.mpack_file_reader_teardown,"ax",%progbits
	.align	2
	.syntax unified
	.arm
	.type	mpack_file_reader_teardown, %function
mpack_file_reader_teardown:
.LVL148:
.LFB237:
	.loc 1 1747 64 is_stmt 1 view -0
	.cfi_startproc
	@ args = 0, pretend = 0, frame = 0
	@ frame_needed = 0, uses_anonymous_args = 0
	.loc 1 1748 5 view .LVU587
	.loc 1 1747 64 is_stmt 0 view .LVU588
	push	{r4, lr}
	.cfi_def_cfa_offset 8
	.cfi_offset 4, -8
	.cfi_offset 14, -4
	.loc 1 1747 64 view .LVU589
	mov	r4, r0
	.loc 1 1748 11 view .LVU590
	ldr	r0, [r0]
.LVL149:
	.loc 1 1750 5 is_stmt 1 view .LVU591
	.loc 1 1750 8 is_stmt 0 view .LVU592
	cmp	r0, #0
	beq	.L143
.LBB2499:
	.loc 1 1751 9 is_stmt 1 view .LVU593
	.loc 1 1751 19 is_stmt 0 view .LVU594
	bl	fclose
.LVL150:
	.loc 1 1752 9 is_stmt 1 view .LVU595
	.loc 1 1752 25 is_stmt 0 view .LVU596
	mov	r3, #0
	.loc 1 1753 12 view .LVU597
	cmp	r0, r3
	.loc 1 1752 25 view .LVU598
	str	r3, [r4]
	.loc 1 1753 9 is_stmt 1 view .LVU599
	.loc 1 1753 12 is_stmt 0 view .LVU600
	beq	.L143
	.loc 1 1754 13 is_stmt 1 view .LVU601
.LVL151:
.LBB2500:
.LBI2500:
	.loc 1 1818 6 view .LVU602
.LBB2501:
	.loc 1 1819 5 view .LVU603
	.loc 1 1821 5 view .LVU604
	.loc 1 1821 8 is_stmt 0 view .LVU605
	ldrb	r3, [r4, #36]	@ zero_extendqisi2
	cmp	r3, #0
	bne	.L143
.LVL152:
.LBB2502:
.LBI2502:
	.loc 1 1818 6 is_stmt 1 view .LVU606
.LBB2503:
	.loc 1 1822 9 view .LVU607
	.loc 1 1822 23 is_stmt 0 view .LVU608
	mov	r1, #2
	.loc 1 1824 19 view .LVU609
	ldr	r2, [r4, #8]
	.loc 1 1823 22 view .LVU610
	str	r3, [r4, #28]
	.loc 1 1824 12 view .LVU611
	cmp	r2, #0
	.loc 1 1822 23 view .LVU612
	strb	r1, [r4, #36]
	.loc 1 1823 9 is_stmt 1 view .LVU613
	.loc 1 1824 9 view .LVU614
	.loc 1 1824 12 is_stmt 0 view .LVU615
	beq	.L143
	.loc 1 1825 13 is_stmt 1 view .LVU616
	mov	r0, r4
.LVL153:
	.loc 1 1825 13 is_stmt 0 view .LVU617
	blx	r2
.LVL154:
.L143:
	.loc 1 1825 13 view .LVU618
.LBE2503:
.LBE2502:
.LBE2501:
.LBE2500:
.LBE2499:
	.loc 1 1757 5 is_stmt 1 view .LVU619
	ldr	r0, [r4, #20]
	bl	free
.LVL155:
	.loc 1 1758 5 view .LVU620
	.loc 1 1758 20 is_stmt 0 view .LVU621
	mov	r3, #0
	str	r3, [r4, #20]
	.loc 1 1759 5 is_stmt 1 view .LVU622
	.loc 1 1759 18 is_stmt 0 view .LVU623
	str	r3, [r4, #24]
	.loc 1 1760 5 is_stmt 1 view .LVU624
	.loc 1 1760 18 is_stmt 0 view .LVU625
	str	r3, [r4, #4]
	.loc 1 1761 1 view .LVU626
	pop	{r4, pc}
	.cfi_endproc
.LFE237:
	.size	mpack_file_reader_teardown, .-mpack_file_reader_teardown
	.section	.text.mpack_node_map_int_impl,"ax",%progbits
	.align	2
	.syntax unified
	.arm
	.type	mpack_node_map_int_impl, %function
mpack_node_map_int_impl:
.LVL156:
.LFB365:
	.loc 1 4840 83 is_stmt 1 view -0
	.cfi_startproc
	@ args = 0, pretend = 0, frame = 8
	@ frame_needed = 0, uses_anonymous_args = 0
	.loc 1 4840 83 is_stmt 0 view .LVU628
	push	{r4, r5, r6, r7, lr}
	.cfi_def_cfa_offset 20
	.cfi_offset 4, -20
	.cfi_offset 5, -16
	.cfi_offset 6, -12
	.cfi_offset 7, -8
	.cfi_offset 14, -4
	sub	sp, sp, #12
	.cfi_def_cfa_offset 32
	.loc 1 4840 83 view .LVU629
	add	ip, sp, #8
	stmdb	ip, {r0, r1}
	.loc 1 4841 8 discriminator 1 view .LVU630
	ldrb	ip, [r1, #32]	@ zero_extendqisi2
	mov	r7, r1
.LVL157:
	.loc 1 4841 5 is_stmt 1 view .LVU631
.LBB2523:
.LBI2523:
	.loc 2 4690 29 view .LVU632
	.loc 2 4691 5 view .LVU633
.LBB2524:
.LBI2524:
	.loc 2 4592 29 view .LVU634
.LBB2525:
	.loc 2 4593 5 view .LVU635
	.loc 2 4593 5 is_stmt 0 view .LVU636
.LBE2525:
.LBE2524:
.LBE2523:
	.loc 1 4841 8 discriminator 1 view .LVU637
	cmp	ip, #0
	bne	.L160
	mov	r1, r0
	.loc 1 4844 5 is_stmt 1 view .LVU638
	.loc 1 4844 8 is_stmt 0 view .LVU639
	ldrb	r0, [r0]	@ zero_extendqisi2
	cmp	r0, #11
	bne	.L154
.LVL158:
.LBB2526:
	.loc 1 4851 26 is_stmt 1 discriminator 1 view .LVU640
	.loc 1 4851 37 is_stmt 0 discriminator 1 view .LVU641
	ldr	r5, [r1, #4]
	.loc 1 4851 26 discriminator 1 view .LVU642
	cmp	r5, #0
	beq	.L160
.LBB2527:
	.loc 1 4855 43 view .LVU643
	mvn	r6, r3
	ldr	r1, [r1, #8]
.LBE2527:
.LBE2526:
	.loc 1 4849 24 view .LVU644
	mov	r0, ip
	add	r1, r1, #16
.LBB2538:
.LBB2534:
	.loc 1 4855 43 view .LVU645
	lsr	r6, r6, #31
	b	.L161
.LVL159:
.L157:
	.loc 1 4855 43 view .LVU646
	cmp	lr, #6
	movne	r4, #0
	andeq	r4, r6, #1
	cmp	r4, #0
	bne	.L176
.L159:
	.loc 1 4855 43 view .LVU647
.LBE2534:
	.loc 1 4851 44 is_stmt 1 discriminator 2 view .LVU648
	add	ip, ip, #1
.LVL160:
	.loc 1 4851 26 discriminator 1 view .LVU649
	cmp	ip, r5
	add	r1, r1, #32
.LVL161:
	.loc 1 4851 26 is_stmt 0 discriminator 1 view .LVU650
	beq	.L152
.LVL162:
.L161:
.LBB2535:
	.loc 1 4852 9 is_stmt 1 view .LVU651
.LBB2528:
.LBI2528:
	.loc 2 4521 34 view .LVU652
.LBB2529:
	.loc 2 4522 5 view .LVU653
	.loc 2 4522 5 is_stmt 0 view .LVU654
.LBE2529:
.LBE2528:
	.loc 1 4854 9 is_stmt 1 view .LVU655
	.loc 1 4854 17 is_stmt 0 view .LVU656
	ldrb	lr, [r1, #-16]	@ zero_extendqisi2
	.loc 1 4854 12 view .LVU657
	cmp	lr, #5
	bne	.L157
.L176:
	.loc 1 4855 55 discriminator 1 view .LVU658
	ldmdb	r1, {r4, lr}
	cmp	lr, r3
	cmpeq	r4, r2
	bne	.L159
	.loc 1 4857 13 is_stmt 1 view .LVU659
	.loc 1 4857 16 is_stmt 0 view .LVU660
	cmp	r0, #0
	bne	.L177
.LBE2535:
	.loc 1 4851 44 discriminator 2 view .LVU661
	add	ip, ip, #1
.LVL163:
	.loc 1 4851 26 discriminator 1 view .LVU662
	cmp	ip, r5
.LBB2536:
	.loc 1 4861 21 view .LVU663
	mov	r0, r1
.LVL164:
	.loc 1 4861 21 view .LVU664
.LBE2536:
	.loc 1 4851 44 is_stmt 1 discriminator 2 view .LVU665
	.loc 1 4851 26 discriminator 1 view .LVU666
	add	r1, r1, #32
.LVL165:
	.loc 1 4851 26 is_stmt 0 discriminator 1 view .LVU667
	bne	.L161
.LVL166:
.L152:
	.loc 1 4851 26 discriminator 1 view .LVU668
.LBE2538:
	.loc 1 4869 1 view .LVU669
	add	sp, sp, #12
	.cfi_remember_state
	.cfi_def_cfa_offset 20
	@ sp needed
	pop	{r4, r5, r6, r7, pc}
.LVL167:
.L154:
	.cfi_restore_state
	.loc 1 4845 9 is_stmt 1 view .LVU670
.LBB2539:
.LBI2539:
	.loc 1 4461 6 view .LVU671
	.loc 1 4462 5 view .LVU672
.LBB2540:
.LBI2540:
	.loc 1 4445 6 view .LVU673
	.loc 1 4446 5 view .LVU674
.LBB2541:
.LBI2541:
	.loc 1 4445 6 view .LVU675
.LBB2542:
	.loc 1 4447 9 view .LVU676
	.loc 1 4448 9 view .LVU677
	.loc 1 4448 21 is_stmt 0 view .LVU678
	mov	r1, #4
	.loc 1 4449 17 view .LVU679
	ldr	r3, [r7]
	.loc 1 4448 21 view .LVU680
	strb	r1, [r7, #32]
	.loc 1 4449 9 is_stmt 1 view .LVU681
	.loc 1 4449 12 is_stmt 0 view .LVU682
	cmp	r3, #0
	beq	.L160
.LVL168:
.L174:
	.loc 1 4450 13 is_stmt 1 view .LVU683
	mov	r0, r7
	blx	r3
.LVL169:
.L160:
	.loc 1 4450 13 is_stmt 0 view .LVU684
.LBE2542:
.LBE2541:
.LBE2540:
.LBE2539:
	.loc 1 4842 15 view .LVU685
	mov	r0, #0
	b	.L152
.LVL170:
.L177:
.LBB2543:
.LBB2537:
	.loc 1 4858 17 is_stmt 1 view .LVU686
.LBB2530:
.LBI2530:
	.loc 1 4461 6 view .LVU687
	.loc 1 4462 5 view .LVU688
.LBB2531:
.LBI2531:
	.loc 1 4445 6 view .LVU689
	.loc 1 4446 5 view .LVU690
.LBB2532:
.LBI2532:
	.loc 1 4445 6 view .LVU691
.LBB2533:
	.loc 1 4447 9 view .LVU692
	.loc 1 4448 9 view .LVU693
	.loc 1 4448 21 is_stmt 0 view .LVU694
	mov	r1, #8
.LVL171:
	.loc 1 4449 17 view .LVU695
	ldr	r3, [r7]
	.loc 1 4448 21 view .LVU696
	strb	r1, [r7, #32]
	.loc 1 4449 9 is_stmt 1 view .LVU697
	.loc 1 4449 12 is_stmt 0 view .LVU698
	cmp	r3, #0
	bne	.L174
	b	.L160
.LBE2533:
.LBE2532:
.LBE2531:
.LBE2530:
.LBE2537:
.LBE2543:
	.cfi_endproc
.LFE365:
	.size	mpack_node_map_int_impl, .-mpack_node_map_int_impl
	.section	.text.mpack_node_map_uint_impl,"ax",%progbits
	.align	2
	.syntax unified
	.arm
	.type	mpack_node_map_uint_impl, %function
mpack_node_map_uint_impl:
.LVL172:
.LFB366:
	.loc 1 4871 85 is_stmt 1 view -0
	.cfi_startproc
	@ args = 0, pretend = 0, frame = 8
	@ frame_needed = 0, uses_anonymous_args = 0
	.loc 1 4871 85 is_stmt 0 view .LVU700
	push	{r4, r5, r6, lr}
	.cfi_def_cfa_offset 16
	.cfi_offset 4, -16
	.cfi_offset 5, -12
	.cfi_offset 6, -8
	.cfi_offset 14, -4
	sub	sp, sp, #8
	.cfi_def_cfa_offset 24
	.loc 1 4871 85 view .LVU701
	add	ip, sp, #8
	stmdb	ip, {r0, r1}
	.loc 1 4872 8 discriminator 1 view .LVU702
	ldrb	ip, [r1, #32]	@ zero_extendqisi2
	mov	r5, r1
.LVL173:
	.loc 1 4872 5 is_stmt 1 view .LVU703
.LBB2563:
.LBI2563:
	.loc 2 4690 29 view .LVU704
	.loc 2 4691 5 view .LVU705
.LBB2564:
.LBI2564:
	.loc 2 4592 29 view .LVU706
.LBB2565:
	.loc 2 4593 5 view .LVU707
	.loc 2 4593 5 is_stmt 0 view .LVU708
.LBE2565:
.LBE2564:
.LBE2563:
	.loc 1 4872 8 discriminator 1 view .LVU709
	cmp	ip, #0
	bne	.L186
	mov	r1, r0
	.loc 1 4875 5 is_stmt 1 view .LVU710
	.loc 1 4875 8 is_stmt 0 view .LVU711
	ldrb	r0, [r0]	@ zero_extendqisi2
	cmp	r0, #11
	bne	.L180
.LVL174:
.LBB2566:
	.loc 1 4882 26 is_stmt 1 discriminator 1 view .LVU712
	.loc 1 4882 37 is_stmt 0 discriminator 1 view .LVU713
	ldr	r4, [r1, #4]
	.loc 1 4882 26 discriminator 1 view .LVU714
	cmp	r4, #0
	beq	.L186
	ldr	r1, [r1, #8]
.LBE2566:
	.loc 1 4880 24 view .LVU715
	mov	r0, ip
	add	r1, r1, #16
	b	.L187
.LVL175:
.L183:
.LBB2577:
.LBB2567:
	.loc 1 4885 67 discriminator 3 view .LVU716
	cmp	lr, #5
	bne	.L185
	.loc 1 4886 55 view .LVU717
	ldmdb	r1, {r6, lr}
	.loc 1 4886 42 view .LVU718
	cmp	lr, #0
	blt	.L185
	.loc 1 4886 63 discriminator 1 view .LVU719
	cmp	lr, r3
	cmpeq	r6, r2
	beq	.L184
.L185:
	.loc 1 4886 63 discriminator 1 view .LVU720
.LBE2567:
	.loc 1 4882 44 is_stmt 1 discriminator 2 view .LVU721
	add	ip, ip, #1
.LVL176:
	.loc 1 4882 26 discriminator 1 view .LVU722
	cmp	ip, r4
	add	r1, r1, #32
.LVL177:
	.loc 1 4882 26 is_stmt 0 discriminator 1 view .LVU723
	beq	.L178
.LVL178:
.L187:
.LBB2574:
	.loc 1 4883 9 is_stmt 1 view .LVU724
.LBB2568:
.LBI2568:
	.loc 2 4521 34 view .LVU725
.LBB2569:
	.loc 2 4522 5 view .LVU726
	.loc 2 4522 5 is_stmt 0 view .LVU727
.LBE2569:
.LBE2568:
	.loc 1 4885 9 is_stmt 1 view .LVU728
	.loc 1 4885 17 is_stmt 0 view .LVU729
	ldrb	lr, [r1, #-16]	@ zero_extendqisi2
	.loc 1 4885 12 view .LVU730
	cmp	lr, #6
	bne	.L183
	.loc 1 4885 43 discriminator 1 view .LVU731
	ldmdb	r1, {r6, lr}
	cmp	lr, r3
	cmpeq	r6, r2
	bne	.L185
.L184:
	.loc 1 4888 13 is_stmt 1 view .LVU732
	.loc 1 4888 16 is_stmt 0 view .LVU733
	cmp	r0, #0
	bne	.L198
.LBE2574:
	.loc 1 4882 44 discriminator 2 view .LVU734
	add	ip, ip, #1
.LVL179:
	.loc 1 4882 26 discriminator 1 view .LVU735
	cmp	ip, r4
.LBB2575:
	.loc 1 4892 21 view .LVU736
	mov	r0, r1
.LVL180:
	.loc 1 4892 21 view .LVU737
.LBE2575:
	.loc 1 4882 44 is_stmt 1 discriminator 2 view .LVU738
	.loc 1 4882 26 discriminator 1 view .LVU739
	add	r1, r1, #32
.LVL181:
	.loc 1 4882 26 is_stmt 0 discriminator 1 view .LVU740
	bne	.L187
.LVL182:
.L178:
	.loc 1 4882 26 discriminator 1 view .LVU741
.LBE2577:
	.loc 1 4900 1 view .LVU742
	add	sp, sp, #8
	.cfi_remember_state
	.cfi_def_cfa_offset 16
	@ sp needed
	pop	{r4, r5, r6, pc}
.LVL183:
.L180:
	.cfi_restore_state
	.loc 1 4876 9 is_stmt 1 view .LVU743
.LBB2578:
.LBI2578:
	.loc 1 4461 6 view .LVU744
	.loc 1 4462 5 view .LVU745
.LBB2579:
.LBI2579:
	.loc 1 4445 6 view .LVU746
	.loc 1 4446 5 view .LVU747
.LBB2580:
.LBI2580:
	.loc 1 4445 6 view .LVU748
.LBB2581:
	.loc 1 4447 9 view .LVU749
	.loc 1 4448 9 view .LVU750
	.loc 1 4448 21 is_stmt 0 view .LVU751
	mov	r1, #4
	.loc 1 4449 17 view .LVU752
	ldr	r3, [r5]
	.loc 1 4448 21 view .LVU753
	strb	r1, [r5, #32]
	.loc 1 4449 9 is_stmt 1 view .LVU754
	.loc 1 4449 12 is_stmt 0 view .LVU755
	cmp	r3, #0
	beq	.L186
.LVL184:
.L197:
	.loc 1 4450 13 is_stmt 1 view .LVU756
	mov	r0, r5
	blx	r3
.LVL185:
.L186:
	.loc 1 4450 13 is_stmt 0 view .LVU757
.LBE2581:
.LBE2580:
.LBE2579:
.LBE2578:
	.loc 1 4873 15 view .LVU758
	mov	r0, #0
	b	.L178
.LVL186:
.L198:
.LBB2582:
.LBB2576:
	.loc 1 4889 17 is_stmt 1 view .LVU759
.LBB2570:
.LBI2570:
	.loc 1 4461 6 view .LVU760
	.loc 1 4462 5 view .LVU761
.LBB2571:
.LBI2571:
	.loc 1 4445 6 view .LVU762
	.loc 1 4446 5 view .LVU763
.LBB2572:
.LBI2572:
	.loc 1 4445 6 view .LVU764
.LBB2573:
	.loc 1 4447 9 view .LVU765
	.loc 1 4448 9 view .LVU766
	.loc 1 4448 21 is_stmt 0 view .LVU767
	mov	r1, #8
.LVL187:
	.loc 1 4449 17 view .LVU768
	ldr	r3, [r5]
	.loc 1 4448 21 view .LVU769
	strb	r1, [r5, #32]
	.loc 1 4449 9 is_stmt 1 view .LVU770
	.loc 1 4449 12 is_stmt 0 view .LVU771
	cmp	r3, #0
	bne	.L197
	b	.L186
.LBE2573:
.LBE2572:
.LBE2571:
.LBE2570:
.LBE2576:
.LBE2582:
	.cfi_endproc
.LFE366:
	.size	mpack_node_map_uint_impl, .-mpack_node_map_uint_impl
	.section	.text.mpack_reader_skip_using_fill,"ax",%progbits
	.align	2
	.syntax unified
	.arm
	.type	mpack_reader_skip_using_fill, %function
mpack_reader_skip_using_fill:
.LVL188:
.LFB247:
	.loc 1 2016 80 is_stmt 1 view -0
	.cfi_startproc
	@ args = 0, pretend = 0, frame = 0
	@ frame_needed = 0, uses_anonymous_args = 0
	.loc 1 2017 5 view .LVU773
	.loc 1 2018 5 view .LVU774
	.loc 1 2019 5 view .LVU775
	.loc 1 2023 26 is_stmt 0 view .LVU776
	ldr	r2, [r0, #24]
	.loc 1 2016 80 view .LVU777
	push	{r4, r5, r6, lr}
	.cfi_def_cfa_offset 16
	.cfi_offset 4, -16
	.cfi_offset 5, -12
	.cfi_offset 6, -8
	.cfi_offset 14, -4
	.loc 1 2023 18 view .LVU778
	cmp	r1, r2
	.loc 1 2016 80 view .LVU779
	mov	r4, r0
.LBB2595:
.LBB2596:
	.loc 1 1832 15 view .LVU780
	ldr	r6, [r0, #4]
.LBE2596:
.LBE2595:
	.loc 1 2016 80 view .LVU781
	mov	r5, r1
	.loc 1 2023 18 is_stmt 1 view .LVU782
	.loc 1 2034 20 is_stmt 0 view .LVU783
	ldr	r0, [r0, #20]
.LVL189:
	.loc 1 2023 18 view .LVU784
	bls	.L200
	mov	r3, r6
	mov	r1, r0
.LVL190:
	.loc 1 2023 18 view .LVU785
	b	.L209
.LVL191:
.L201:
	.loc 1 2025 12 discriminator 1 view .LVU786
	cmp	r2, r0
	.loc 1 2029 15 view .LVU787
	sub	r5, r5, r2
.LVL192:
	.loc 1 2023 18 is_stmt 1 view .LVU788
	.loc 1 2025 12 is_stmt 0 discriminator 1 view .LVU789
	bhi	.L225
	.loc 1 2023 18 view .LVU790
	cmp	r2, r5
	bcs	.L208
.LVL193:
.L203:
	.loc 1 2023 18 view .LVU791
	ldr	r3, [r4, #4]
	ldr	r1, [r4, #20]
.L209:
.LVL194:
	.loc 1 2024 9 is_stmt 1 view .LVU792
	.loc 1 2025 9 view .LVU793
.LBB2600:
.LBI2600:
	.loc 1 1831 15 view .LVU794
.LBB2601:
	.loc 1 1832 5 view .LVU795
	.loc 1 1834 5 view .LVU796
	.loc 1 1834 18 is_stmt 0 view .LVU797
	mov	r0, r4
	blx	r3
.LVL195:
	.loc 1 1834 18 view .LVU798
.LBE2601:
.LBE2600:
	.loc 1 2029 9 is_stmt 1 view .LVU799
.LBB2604:
.LBB2602:
	.loc 1 1835 5 view .LVU800
	.loc 1 1835 8 is_stmt 0 view .LVU801
	cmn	r0, #1
.LBE2602:
.LBE2604:
	.loc 1 2025 70 discriminator 1 view .LVU802
	ldr	r2, [r4, #24]
.LBB2605:
.LBB2603:
	.loc 1 1835 8 view .LVU803
	bne	.L201
.LVL196:
	.loc 1 1835 8 view .LVU804
.LBE2603:
.LBE2605:
	.loc 1 2025 12 discriminator 1 view .LVU805
	cmp	r2, #0
	beq	.L203
.L225:
	.loc 1 2036 9 is_stmt 1 view .LVU806
.LVL197:
.LBB2606:
.LBI2606:
	.loc 1 1818 6 view .LVU807
.LBB2607:
	.loc 1 1819 5 view .LVU808
	.loc 1 1821 5 view .LVU809
	.loc 1 1821 8 is_stmt 0 view .LVU810
	ldrb	r3, [r4, #36]	@ zero_extendqisi2
	cmp	r3, #0
	popne	{r4, r5, r6, pc}
.LVL198:
.LBB2608:
.LBI2608:
	.loc 1 1818 6 is_stmt 1 view .LVU811
.LBB2609:
	.loc 1 1822 9 view .LVU812
	.loc 1 1822 23 is_stmt 0 view .LVU813
	mov	r1, #2
	.loc 1 1824 19 view .LVU814
	ldr	r2, [r4, #8]
	.loc 1 1823 22 view .LVU815
	str	r3, [r4, #28]
	.loc 1 1824 12 view .LVU816
	cmp	r2, #0
	.loc 1 1822 23 view .LVU817
	strb	r1, [r4, #36]
	.loc 1 1823 9 is_stmt 1 view .LVU818
	.loc 1 1824 9 view .LVU819
	.loc 1 1824 12 is_stmt 0 view .LVU820
	popeq	{r4, r5, r6, pc}
	.loc 1 1825 13 is_stmt 1 view .LVU821
	mov	r0, r4
.LBE2609:
.LBE2608:
.LBE2607:
.LBE2606:
	.loc 1 2042 1 is_stmt 0 view .LVU822
	pop	{r4, r5, r6, lr}
	.cfi_remember_state
	.cfi_restore 14
	.cfi_restore 6
	.cfi_restore 5
	.cfi_restore 4
	.cfi_def_cfa_offset 0
.LVL199:
.LBB2613:
.LBB2612:
.LBB2611:
.LBB2610:
	.loc 1 1825 13 view .LVU823
	bx	r2	@ indirect register sibling call
.LVL200:
.L208:
	.cfi_restore_state
	.loc 1 1825 13 view .LVU824
.LBE2610:
.LBE2611:
.LBE2612:
.LBE2613:
	.loc 1 2033 5 is_stmt 1 view .LVU825
	.loc 1 2033 17 is_stmt 0 view .LVU826
	mov	r3, #0
	.loc 1 2034 20 view .LVU827
	ldr	r0, [r4, #20]
.LVL201:
.LBB2614:
.LBB2597:
	.loc 1 1832 15 view .LVU828
	ldr	r6, [r4, #4]
.LBE2597:
.LBE2614:
	.loc 1 2033 17 view .LVU829
	str	r3, [r4, #32]
	.loc 1 2034 5 is_stmt 1 view .LVU830
.LVL202:
.LBB2615:
.LBI2595:
	.loc 1 1831 15 view .LVU831
.LBB2598:
	.loc 1 1832 5 view .LVU832
.L212:
	.loc 1 1834 5 view .LVU833
	.loc 1 1834 18 is_stmt 0 view .LVU834
	mov	r1, r0
	mov	r0, r4
.LVL203:
	.loc 1 1834 18 view .LVU835
	blx	r6
.LVL204:
	.loc 1 1835 5 is_stmt 1 view .LVU836
	.loc 1 1836 16 is_stmt 0 view .LVU837
	cmn	r0, #1
	moveq	r0, #0
.LVL205:
	.loc 1 1836 16 view .LVU838
.LBE2598:
.LBE2615:
	.loc 1 2035 8 view .LVU839
	cmp	r0, r5
	.loc 1 2034 18 discriminator 1 view .LVU840
	str	r0, [r4, #28]
	.loc 1 2035 5 is_stmt 1 view .LVU841
	.loc 1 2035 8 is_stmt 0 view .LVU842
	bcc	.L225
	.loc 1 2039 5 is_stmt 1 view .LVU843
	.loc 1 2040 5 view .LVU844
	.loc 1 2040 17 is_stmt 0 view .LVU845
	ldr	r3, [r4, #32]
	.loc 1 2041 18 view .LVU846
	sub	r0, r0, r5
	.loc 1 2040 17 view .LVU847
	add	r3, r3, r5
	str	r3, [r4, #32]
	.loc 1 2041 5 is_stmt 1 view .LVU848
	.loc 1 2041 18 is_stmt 0 view .LVU849
	str	r0, [r4, #28]
	.loc 1 2042 1 view .LVU850
	pop	{r4, r5, r6, pc}
.LVL206:
.L200:
	.loc 1 2033 5 is_stmt 1 view .LVU851
	.loc 1 2033 17 is_stmt 0 view .LVU852
	mov	r3, #0
	str	r3, [r4, #32]
	.loc 1 2034 5 is_stmt 1 view .LVU853
.LVL207:
.LBB2616:
	.loc 1 1831 15 view .LVU854
.LBB2599:
	.loc 1 1832 5 view .LVU855
	b	.L212
.LBE2599:
.LBE2616:
	.cfi_endproc
.LFE247:
	.size	mpack_reader_skip_using_fill, .-mpack_reader_skip_using_fill
	.section	.text.mpack_skip_bytes.part.0,"ax",%progbits
	.align	2
	.syntax unified
	.arm
	.type	mpack_skip_bytes.part.0, %function
mpack_skip_bytes.part.0:
.LVL208:
.LFB399:
	.loc 1 1971 6 view -0
	.cfi_startproc
	@ args = 0, pretend = 0, frame = 0
	@ frame_needed = 0, uses_anonymous_args = 0
	@ link register save eliminated.
	.loc 1 1974 5 view .LVU857
	.loc 1 1975 5 view .LVU858
	.loc 1 1978 5 view .LVU859
	.loc 1 1978 15 is_stmt 0 view .LVU860
	ldr	r2, [r0, #28]
	.loc 1 1971 6 view .LVU861
	mov	r3, r0
	.loc 1 1978 8 view .LVU862
	cmp	r2, r1
	bcs	.L237
	.loc 1 1989 5 is_stmt 1 view .LVU863
	.loc 1 1989 8 is_stmt 0 view .LVU864
	ldr	ip, [r0, #4]
	cmp	ip, #0
	beq	.L238
	.loc 1 1996 5 is_stmt 1 view .LVU865
	.loc 1 1997 5 view .LVU866
	.loc 1 1998 17 is_stmt 0 view .LVU867
	ldr	ip, [r0, #32]
	.loc 1 1997 11 view .LVU868
	sub	r1, r1, r2
.LVL209:
	.loc 1 1998 5 is_stmt 1 view .LVU869
	.loc 1 1998 17 is_stmt 0 view .LVU870
	add	r2, ip, r2
	.loc 1 1999 18 view .LVU871
	mov	ip, #0
	.loc 1 1998 17 view .LVU872
	str	r2, [r0, #32]
	.loc 1 1999 5 is_stmt 1 view .LVU873
	.loc 1 2006 15 is_stmt 0 view .LVU874
	ldr	r2, [r0, #16]
	.loc 1 1999 18 view .LVU875
	str	ip, [r0, #28]
	.loc 1 2006 5 is_stmt 1 view .LVU876
	.loc 1 2006 8 is_stmt 0 view .LVU877
	cmp	r2, ip
	beq	.L230
	.loc 1 2006 46 discriminator 1 view .LVU878
	ldr	ip, [r0, #24]
	.loc 1 2006 22 discriminator 1 view .LVU879
	cmp	r1, ip, lsr #4
	bhi	.L239
.L230:
	.loc 1 2013 5 is_stmt 1 view .LVU880
	mov	r0, r3
.LVL210:
	.loc 1 2013 5 is_stmt 0 view .LVU881
	b	mpack_reader_skip_using_fill
.LVL211:
.L237:
	.loc 1 1979 9 is_stmt 1 view .LVU882
	.loc 1 1980 9 view .LVU883
	.loc 1 1981 21 is_stmt 0 view .LVU884
	ldr	r0, [r0, #32]
.LVL212:
	.loc 1 1980 22 view .LVU885
	sub	r2, r2, r1
	.loc 1 1981 21 view .LVU886
	add	r1, r0, r1
.LVL213:
	.loc 1 1980 22 view .LVU887
	str	r2, [r3, #28]
	.loc 1 1981 9 is_stmt 1 view .LVU888
	.loc 1 1981 21 is_stmt 0 view .LVU889
	str	r1, [r3, #32]
	.loc 1 1982 9 is_stmt 1 view .LVU890
	bx	lr
.LVL214:
.L239:
	.loc 1 2007 9 view .LVU891
	.loc 1 2008 9 view .LVU892
	bx	r2	@ indirect register sibling call
.LVL215:
.L238:
	.loc 1 1990 9 view .LVU893
	.loc 1 1991 9 view .LVU894
.LBB2627:
.LBI2627:
	.loc 1 1818 6 view .LVU895
	.loc 1 1819 5 view .LVU896
	.loc 1 1821 5 view .LVU897
.LBB2628:
.LBI2628:
	.loc 1 1818 6 view .LVU898
.LBB2629:
	.loc 1 1822 9 view .LVU899
	.loc 1 1822 23 is_stmt 0 view .LVU900
	mov	r1, #3
.LVL216:
	.loc 1 1824 19 view .LVU901
	ldr	r2, [r0, #8]
	.loc 1 1823 22 view .LVU902
	str	ip, [r0, #28]
	.loc 1 1824 12 view .LVU903
	cmp	r2, #0
	.loc 1 1822 23 view .LVU904
	strb	r1, [r0, #36]
	.loc 1 1823 9 is_stmt 1 view .LVU905
	.loc 1 1824 9 view .LVU906
	.loc 1 1824 12 is_stmt 0 view .LVU907
	bxeq	lr
	.loc 1 1825 13 is_stmt 1 view .LVU908
	bx	r2	@ indirect register sibling call
.LVL217:
	.loc 1 1825 13 is_stmt 0 view .LVU909
.LBE2629:
.LBE2628:
.LBE2627:
	.cfi_endproc
.LFE399:
	.size	mpack_skip_bytes.part.0, .-mpack_skip_bytes.part.0
	.section	.text.mpack_file_reader_skip,"ax",%progbits
	.align	2
	.syntax unified
	.arm
	.type	mpack_file_reader_skip, %function
mpack_file_reader_skip:
.LVL218:
.LFB236:
	.loc 1 1724 74 is_stmt 1 view -0
	.cfi_startproc
	@ args = 0, pretend = 0, frame = 0
	@ frame_needed = 0, uses_anonymous_args = 0
	.loc 1 1725 5 view .LVU911
.LBB2640:
.LBI2640:
	.loc 2 2614 29 view .LVU912
.LBB2641:
	.loc 2 2615 5 view .LVU913
	.loc 2 2615 5 is_stmt 0 view .LVU914
.LBE2641:
.LBE2640:
	.loc 1 1725 8 discriminator 1 view .LVU915
	ldrb	r3, [r0, #36]	@ zero_extendqisi2
	cmp	r3, #0
	bxne	lr
.LVL219:
	.loc 1 1724 74 view .LVU916
	push	{r4, r5, r6, lr}
	.cfi_def_cfa_offset 16
	.cfi_offset 4, -16
	.cfi_offset 5, -12
	.cfi_offset 6, -8
	.cfi_offset 14, -4
.LBB2642:
.LBB2643:
	.loc 1 1727 11 view .LVU917
	ldr	r6, [r0]
	mov	r4, r0
	.loc 1 1731 9 view .LVU918
	mov	r0, r6
.LVL220:
	.loc 1 1731 9 view .LVU919
	mov	r5, r1
.LVL221:
	.loc 1 1731 9 view .LVU920
.LBE2643:
.LBI2642:
	.loc 1 1724 13 is_stmt 1 view .LVU921
.LBB2652:
	.loc 1 1727 5 view .LVU922
	.loc 1 1731 5 view .LVU923
	.loc 1 1731 9 is_stmt 0 view .LVU924
	bl	ftell
.LVL222:
	.loc 1 1731 8 discriminator 1 view .LVU925
	cmp	r0, #0
	blt	.L243
	.loc 1 1732 9 is_stmt 1 view .LVU926
	.loc 1 1733 9 view .LVU927
	.loc 1 1733 13 is_stmt 0 view .LVU928
	mov	r2, #1
	mov	r1, r5
	mov	r0, r6
	bl	fseek
.LVL223:
	.loc 1 1733 12 discriminator 1 view .LVU929
	cmp	r0, #0
	popeq	{r4, r5, r6, pc}
	.loc 1 1735 9 is_stmt 1 view .LVU930
	.loc 1 1736 9 view .LVU931
	.loc 1 1736 12 is_stmt 0 view .LVU932
	ldrh	r3, [r6, #12]
	tst	r3, #64
	beq	.L243
	.loc 1 1737 13 is_stmt 1 view .LVU933
.LVL224:
.LBB2644:
.LBI2644:
	.loc 1 1818 6 view .LVU934
.LBB2645:
	.loc 1 1819 5 view .LVU935
	.loc 1 1821 5 view .LVU936
	.loc 1 1821 8 is_stmt 0 view .LVU937
	ldrb	r3, [r4, #36]	@ zero_extendqisi2
	cmp	r3, #0
	popne	{r4, r5, r6, pc}
.LVL225:
.LBB2646:
.LBI2646:
	.loc 1 1818 6 is_stmt 1 view .LVU938
.LBB2647:
	.loc 1 1822 9 view .LVU939
	.loc 1 1822 23 is_stmt 0 view .LVU940
	mov	r1, #2
	.loc 1 1824 19 view .LVU941
	ldr	r2, [r4, #8]
	.loc 1 1823 22 view .LVU942
	str	r3, [r4, #28]
	.loc 1 1824 12 view .LVU943
	cmp	r2, #0
	.loc 1 1822 23 view .LVU944
	strb	r1, [r4, #36]
	.loc 1 1823 9 is_stmt 1 view .LVU945
	.loc 1 1824 9 view .LVU946
	.loc 1 1824 12 is_stmt 0 view .LVU947
	popeq	{r4, r5, r6, pc}
	.loc 1 1825 13 is_stmt 1 view .LVU948
	mov	r0, r4
.LBE2647:
.LBE2646:
.LBE2645:
.LBE2644:
.LBE2652:
.LBE2642:
	.loc 1 1744 1 is_stmt 0 view .LVU949
	pop	{r4, r5, r6, lr}
	.cfi_remember_state
	.cfi_restore 14
	.cfi_restore 6
	.cfi_restore 5
	.cfi_restore 4
	.cfi_def_cfa_offset 0
.LVL226:
.LBB2655:
.LBB2653:
.LBB2651:
.LBB2650:
.LBB2649:
.LBB2648:
	.loc 1 1825 13 view .LVU950
	bx	r2	@ indirect register sibling call
.LVL227:
.L243:
	.cfi_restore_state
	.loc 1 1825 13 view .LVU951
.LBE2648:
.LBE2649:
.LBE2650:
.LBE2651:
	.loc 1 1743 5 is_stmt 1 view .LVU952
	mov	r1, r5
	mov	r0, r4
.LBE2653:
.LBE2655:
	.loc 1 1744 1 is_stmt 0 view .LVU953
	pop	{r4, r5, r6, lr}
	.cfi_restore 14
	.cfi_restore 6
	.cfi_restore 5
	.cfi_restore 4
	.cfi_def_cfa_offset 0
.LVL228:
.LBB2656:
.LBB2654:
	.loc 1 1743 5 view .LVU954
	b	mpack_reader_skip_using_fill
.LVL229:
	.loc 1 1743 5 view .LVU955
.LBE2654:
.LBE2656:
	.cfi_endproc
.LFE236:
	.size	mpack_file_reader_skip, .-mpack_file_reader_skip
	.section	.text.mpack_node_map_str_impl,"ax",%progbits
	.align	2
	.syntax unified
	.arm
	.type	mpack_node_map_str_impl, %function
mpack_node_map_str_impl:
.LVL230:
.LFB367:
	.loc 1 4902 102 is_stmt 1 view -0
	.cfi_startproc
	@ args = 0, pretend = 0, frame = 8
	@ frame_needed = 0, uses_anonymous_args = 0
	.loc 1 4902 102 is_stmt 0 view .LVU957
	push	{r4, r5, r6, r7, r8, r9, r10, lr}
	.cfi_def_cfa_offset 32
	.cfi_offset 4, -32
	.cfi_offset 5, -28
	.cfi_offset 6, -24
	.cfi_offset 7, -20
	.cfi_offset 8, -16
	.cfi_offset 9, -12
	.cfi_offset 10, -8
	.cfi_offset 14, -4
	.loc 1 4903 8 discriminator 1 view .LVU958
	ldrb	r5, [r1, #32]	@ zero_extendqisi2
	.loc 1 4902 102 view .LVU959
	sub	sp, sp, #8
	.cfi_def_cfa_offset 40
	.loc 1 4902 102 view .LVU960
	add	ip, sp, #8
	.loc 1 4903 8 discriminator 1 view .LVU961
	cmp	r5, #0
	mov	r9, r1
.LVL231:
	.loc 1 4903 5 is_stmt 1 view .LVU962
.LBB2676:
.LBI2676:
	.loc 2 4690 29 view .LVU963
	.loc 2 4691 5 view .LVU964
.LBB2677:
.LBI2677:
	.loc 2 4592 29 view .LVU965
.LBB2678:
	.loc 2 4593 5 view .LVU966
	.loc 2 4593 5 is_stmt 0 view .LVU967
.LBE2678:
.LBE2677:
.LBE2676:
	.loc 1 4902 102 view .LVU968
	stmdb	ip, {r0, r1}
.LVL232:
	.loc 1 4903 8 discriminator 1 view .LVU969
	bne	.L264
	mov	r7, r3
	.loc 1 4906 5 is_stmt 1 view .LVU970
	.loc 1 4908 5 view .LVU971
	.loc 1 4908 8 is_stmt 0 view .LVU972
	ldrb	r3, [r0]	@ zero_extendqisi2
.LVL233:
	.loc 1 4908 8 view .LVU973
	cmp	r3, #11
	bne	.L260
.LVL234:
.LBB2679:
	.loc 1 4915 26 is_stmt 1 discriminator 1 view .LVU974
	.loc 1 4915 37 is_stmt 0 discriminator 1 view .LVU975
	ldr	r6, [r0, #4]
	.loc 1 4915 26 discriminator 1 view .LVU976
	cmp	r6, #0
	beq	.L264
	ldr	r4, [r0, #8]
	mov	r8, r2
.LBE2679:
	.loc 1 4913 24 view .LVU977
	mov	r10, r5
	add	r4, r4, #16
	b	.L265
.LVL235:
.L263:
.LBB2689:
	.loc 1 4915 44 is_stmt 1 discriminator 2 view .LVU978
	add	r5, r5, #1
.LVL236:
	.loc 1 4915 26 discriminator 1 view .LVU979
	cmp	r5, r6
	add	r4, r4, #32
.LVL237:
	.loc 1 4915 26 is_stmt 0 discriminator 1 view .LVU980
	beq	.L258
.LVL238:
.L265:
.LBB2680:
	.loc 1 4916 9 is_stmt 1 view .LVU981
.LBB2681:
.LBI2681:
	.loc 2 4521 34 view .LVU982
.LBB2682:
	.loc 2 4522 5 view .LVU983
	.loc 2 4522 5 is_stmt 0 view .LVU984
.LBE2682:
.LBE2681:
	.loc 1 4918 9 is_stmt 1 view .LVU985
	.loc 1 4918 12 is_stmt 0 view .LVU986
	ldrb	r1, [r4, #-16]	@ zero_extendqisi2
	cmp	r1, #7
	bne	.L263
	.loc 1 4918 41 discriminator 1 view .LVU987
	ldr	r3, [r4, #-12]
	cmp	r3, r7
	bne	.L263
	.loc 1 4918 66 discriminator 2 view .LVU988
	mov	r2, r7
	mov	r0, r8
	ldr	r1, [r4, #-8]
	bl	memcmp
.LVL239:
	.loc 1 4919 13 is_stmt 1 view .LVU989
	.loc 1 4918 63 is_stmt 0 discriminator 1 view .LVU990
	cmp	r0, #0
	bne	.L263
	.loc 1 4919 16 view .LVU991
	cmp	r10, #0
	bne	.L276
.LBE2680:
	.loc 1 4915 44 discriminator 2 view .LVU992
	add	r5, r5, #1
.LVL240:
	.loc 1 4915 26 discriminator 1 view .LVU993
	cmp	r5, r6
.LBB2687:
	.loc 1 4923 21 view .LVU994
	mov	r10, r4
.LVL241:
	.loc 1 4923 21 view .LVU995
.LBE2687:
	.loc 1 4915 44 is_stmt 1 discriminator 2 view .LVU996
	.loc 1 4915 26 discriminator 1 view .LVU997
	add	r4, r4, #32
.LVL242:
	.loc 1 4915 26 is_stmt 0 discriminator 1 view .LVU998
	bne	.L265
.LVL243:
.L258:
	.loc 1 4915 26 discriminator 1 view .LVU999
.LBE2689:
	.loc 1 4931 1 view .LVU1000
	mov	r0, r10
	add	sp, sp, #8
	.cfi_remember_state
	.cfi_def_cfa_offset 32
	@ sp needed
	pop	{r4, r5, r6, r7, r8, r9, r10, pc}
.LVL244:
.L260:
	.cfi_restore_state
	.loc 1 4909 9 is_stmt 1 view .LVU1001
.LBB2690:
.LBI2690:
	.loc 1 4461 6 view .LVU1002
	.loc 1 4462 5 view .LVU1003
.LBB2691:
.LBI2691:
	.loc 1 4445 6 view .LVU1004
	.loc 1 4446 5 view .LVU1005
.LBB2692:
.LBI2692:
	.loc 1 4445 6 view .LVU1006
.LBB2693:
	.loc 1 4447 9 view .LVU1007
	.loc 1 4448 9 view .LVU1008
	.loc 1 4448 21 is_stmt 0 view .LVU1009
	mov	r1, #4
.LVL245:
	.loc 1 4449 17 view .LVU1010
	ldr	r3, [r9]
	.loc 1 4448 21 view .LVU1011
	strb	r1, [r9, #32]
	.loc 1 4449 9 is_stmt 1 view .LVU1012
	.loc 1 4449 12 is_stmt 0 view .LVU1013
	cmp	r3, #0
	beq	.L264
.LVL246:
.L275:
	.loc 1 4450 13 is_stmt 1 view .LVU1014
	mov	r0, r9
	blx	r3
.LVL247:
.L264:
	.loc 1 4450 13 is_stmt 0 view .LVU1015
.LBE2693:
.LBE2692:
.LBE2691:
.LBE2690:
	.loc 1 4904 15 view .LVU1016
	mov	r10, #0
	b	.L258
.LVL248:
.L276:
.LBB2694:
.LBB2688:
	.loc 1 4920 17 is_stmt 1 view .LVU1017
.LBB2683:
.LBI2683:
	.loc 1 4461 6 view .LVU1018
	.loc 1 4462 5 view .LVU1019
.LBB2684:
.LBI2684:
	.loc 1 4445 6 view .LVU1020
	.loc 1 4446 5 view .LVU1021
.LBB2685:
.LBI2685:
	.loc 1 4445 6 view .LVU1022
.LBB2686:
	.loc 1 4447 9 view .LVU1023
	.loc 1 4448 9 view .LVU1024
	.loc 1 4448 21 is_stmt 0 view .LVU1025
	mov	r1, #8
	.loc 1 4449 17 view .LVU1026
	ldr	r3, [r9]
	.loc 1 4448 21 view .LVU1027
	strb	r1, [r9, #32]
	.loc 1 4449 9 is_stmt 1 view .LVU1028
	.loc 1 4449 12 is_stmt 0 view .LVU1029
	cmp	r3, #0
	bne	.L275
	b	.L264
.LBE2686:
.LBE2685:
.LBE2684:
.LBE2683:
.LBE2688:
.LBE2694:
	.cfi_endproc
.LFE367:
	.size	mpack_node_map_str_impl, .-mpack_node_map_str_impl
	.section	.text.mpack_read_bytes_inplace_notrack,"ax",%progbits
	.align	2
	.syntax unified
	.arm
	.type	mpack_read_bytes_inplace_notrack, %function
mpack_read_bytes_inplace_notrack:
.LVL249:
.LFB256:
	.loc 1 2183 91 is_stmt 1 view -0
	.cfi_startproc
	@ args = 0, pretend = 0, frame = 0
	@ frame_needed = 0, uses_anonymous_args = 0
	.loc 1 2184 5 view .LVU1031
.LBB2713:
.LBI2713:
	.loc 2 2614 29 view .LVU1032
.LBB2714:
	.loc 2 2615 5 view .LVU1033
	.loc 2 2615 5 is_stmt 0 view .LVU1034
.LBE2714:
.LBE2713:
	.loc 1 2184 8 discriminator 1 view .LVU1035
	ldrb	r2, [r0, #36]	@ zero_extendqisi2
	cmp	r2, #0
	bne	.L299
	.loc 1 2188 15 view .LVU1036
	ldr	r3, [r0, #28]
	.loc 1 2183 91 view .LVU1037
	push	{r4, r5, r6, lr}
	.cfi_def_cfa_offset 16
	.cfi_offset 4, -16
	.cfi_offset 5, -12
	.cfi_offset 6, -8
	.cfi_offset 14, -4
	.loc 1 2188 8 view .LVU1038
	cmp	r3, r1
	mov	r4, r0
	mov	r5, r1
	.loc 1 2188 5 is_stmt 1 view .LVU1039
	.loc 1 2188 8 is_stmt 0 view .LVU1040
	bcc	.L280
	.loc 1 2189 9 is_stmt 1 view .LVU1041
	.loc 1 2189 15 is_stmt 0 view .LVU1042
	ldr	r2, [r0, #32]
	.loc 1 2190 22 view .LVU1043
	sub	r3, r3, r1
	.loc 1 2189 21 view .LVU1044
	add	r5, r2, r1
	str	r5, [r0, #32]
	.loc 1 2190 9 is_stmt 1 view .LVU1045
	.loc 1 2191 45 is_stmt 0 view .LVU1046
	ldr	r0, [r0, #20]
.LVL250:
	.loc 1 2190 22 view .LVU1047
	str	r3, [r4, #28]
	.loc 1 2191 9 is_stmt 1 view .LVU1048
	.loc 1 2191 45 is_stmt 0 view .LVU1049
	add	r0, r0, r2
	pop	{r4, r5, r6, pc}
.LVL251:
.L280:
	.loc 1 2194 5 is_stmt 1 view .LVU1050
.LBB2715:
.LBI2715:
	.loc 1 2147 20 view .LVU1051
.LBB2716:
	.loc 1 2150 5 view .LVU1052
	.loc 1 2152 5 view .LVU1053
	.loc 1 2158 5 view .LVU1054
	.loc 1 2158 8 is_stmt 0 view .LVU1055
	ldr	r3, [r0, #4]
	cmp	r3, #0
	beq	.L300
	.loc 1 2164 5 is_stmt 1 view .LVU1056
	.loc 1 2164 8 is_stmt 0 view .LVU1057
	ldr	r3, [r0, #24]
	cmp	r1, r3
	bhi	.L301
	.loc 1 2170 5 is_stmt 1 view .LVU1058
	bl	mpack_partial_fill
.LVL252:
	.loc 1 2172 5 view .LVU1059
	.loc 1 2172 15 is_stmt 0 view .LVU1060
	ldr	r3, [r4, #28]
	.loc 1 2172 8 view .LVU1061
	cmp	r5, r3
	bhi	.L302
	.loc 1 2176 5 is_stmt 1 view .LVU1062
	.loc 1 2176 17 is_stmt 0 view .LVU1063
	ldr	r2, [r4, #32]
	.loc 1 2177 18 view .LVU1064
	sub	r3, r3, r5
	.loc 1 2176 17 view .LVU1065
	add	r2, r2, r5
	.loc 1 2178 18 view .LVU1066
	ldr	r0, [r4, #20]
	.loc 1 2176 17 view .LVU1067
	str	r2, [r4, #32]
	.loc 1 2177 5 is_stmt 1 view .LVU1068
	.loc 1 2177 18 is_stmt 0 view .LVU1069
	str	r3, [r4, #28]
	.loc 1 2178 5 is_stmt 1 view .LVU1070
.LVL253:
	.loc 1 2178 5 is_stmt 0 view .LVU1071
.LBE2716:
.LBE2715:
	.loc 1 2195 1 view .LVU1072
	pop	{r4, r5, r6, pc}
.LVL254:
.L301:
.LBB2730:
.LBB2727:
	.loc 1 2165 9 is_stmt 1 view .LVU1073
.LBB2717:
.LBI2717:
	.loc 1 1818 6 view .LVU1074
	.loc 1 1819 5 view .LVU1075
	.loc 1 1821 5 view .LVU1076
.LBB2718:
.LBI2718:
	.loc 1 1818 6 view .LVU1077
.LBB2719:
	.loc 1 1822 9 view .LVU1078
	.loc 1 1822 23 is_stmt 0 view .LVU1079
	mov	r1, #5
.LVL255:
	.loc 1 1824 19 view .LVU1080
	ldr	r3, [r0, #8]
	.loc 1 1823 22 view .LVU1081
	str	r2, [r0, #28]
	.loc 1 1824 12 view .LVU1082
	cmp	r3, #0
	.loc 1 1822 23 view .LVU1083
	strb	r1, [r0, #36]
	.loc 1 1823 9 is_stmt 1 view .LVU1084
	.loc 1 1824 9 view .LVU1085
	.loc 1 1824 12 is_stmt 0 view .LVU1086
	beq	.L283
	.loc 1 1825 13 is_stmt 1 view .LVU1087
	blx	r3
.LVL256:
.L283:
	.loc 1 1825 13 is_stmt 0 view .LVU1088
.LBE2719:
.LBE2718:
.LBE2717:
.LBE2727:
.LBE2730:
	.loc 1 2185 15 view .LVU1089
	mov	r0, #0
	pop	{r4, r5, r6, pc}
.L302:
.LBB2731:
.LBB2728:
	.loc 1 2173 9 is_stmt 1 view .LVU1090
.LVL257:
.LBB2720:
.LBI2720:
	.loc 1 1818 6 view .LVU1091
.LBB2721:
	.loc 1 1819 5 view .LVU1092
	.loc 1 1821 5 view .LVU1093
	.loc 1 1821 8 is_stmt 0 view .LVU1094
	ldrb	r3, [r4, #36]	@ zero_extendqisi2
	cmp	r3, #0
	bne	.L283
.LVL258:
.LBB2722:
.LBI2722:
	.loc 1 1818 6 is_stmt 1 view .LVU1095
.LBB2723:
	.loc 1 1822 9 view .LVU1096
	.loc 1 1822 23 is_stmt 0 view .LVU1097
	mov	r1, #2
	.loc 1 1824 19 view .LVU1098
	ldr	r2, [r4, #8]
	.loc 1 1823 22 view .LVU1099
	str	r3, [r4, #28]
	.loc 1 1824 12 view .LVU1100
	cmp	r2, #0
	.loc 1 1822 23 view .LVU1101
	strb	r1, [r4, #36]
	.loc 1 1823 9 is_stmt 1 view .LVU1102
	.loc 1 1824 9 view .LVU1103
	.loc 1 1824 12 is_stmt 0 view .LVU1104
	beq	.L283
	.loc 1 1825 13 is_stmt 1 view .LVU1105
	mov	r0, r4
.LVL259:
.L298:
	.loc 1 1825 13 is_stmt 0 view .LVU1106
	blx	r2
.LVL260:
	.loc 1 1825 13 view .LVU1107
	b	.L283
.LVL261:
.L299:
	.cfi_def_cfa_offset 0
	.cfi_restore 4
	.cfi_restore 5
	.cfi_restore 6
	.cfi_restore 14
	.loc 1 1825 13 view .LVU1108
.LBE2723:
.LBE2722:
.LBE2721:
.LBE2720:
.LBE2728:
.LBE2731:
	.loc 1 2185 15 view .LVU1109
	mov	r0, #0
.LVL262:
	.loc 1 2195 1 view .LVU1110
	bx	lr
.LVL263:
.L300:
	.cfi_def_cfa_offset 16
	.cfi_offset 4, -16
	.cfi_offset 5, -12
	.cfi_offset 6, -8
	.cfi_offset 14, -4
.LBB2732:
.LBB2729:
	.loc 1 2159 9 is_stmt 1 view .LVU1111
.LBB2724:
.LBI2724:
	.loc 1 1818 6 view .LVU1112
	.loc 1 1819 5 view .LVU1113
	.loc 1 1821 5 view .LVU1114
.LBB2725:
.LBI2725:
	.loc 1 1818 6 view .LVU1115
.LBB2726:
	.loc 1 1822 9 view .LVU1116
	.loc 1 1822 23 is_stmt 0 view .LVU1117
	mov	r1, #3
.LVL264:
	.loc 1 1824 19 view .LVU1118
	ldr	r2, [r0, #8]
	.loc 1 1823 22 view .LVU1119
	str	r3, [r0, #28]
	.loc 1 1824 12 view .LVU1120
	cmp	r2, #0
	.loc 1 1822 23 view .LVU1121
	strb	r1, [r0, #36]
	.loc 1 1823 9 is_stmt 1 view .LVU1122
	.loc 1 1824 9 view .LVU1123
	.loc 1 1824 12 is_stmt 0 view .LVU1124
	bne	.L298
	b	.L283
.LBE2726:
.LBE2725:
.LBE2724:
.LBE2729:
.LBE2732:
	.cfi_endproc
.LFE256:
	.size	mpack_read_bytes_inplace_notrack, .-mpack_read_bytes_inplace_notrack
	.section	.text.mpack_tree_parse_children,"ax",%progbits
	.align	2
	.syntax unified
	.arm
	.type	mpack_tree_parse_children, %function
mpack_tree_parse_children:
.LVL265:
.LFB337:
	.loc 1 3729 93 is_stmt 1 view -0
	.cfi_startproc
	@ args = 0, pretend = 0, frame = 0
	@ frame_needed = 0, uses_anonymous_args = 0
	.loc 1 3729 93 is_stmt 0 view .LVU1126
	push	{r4, r5, r6, r7, r8, r9, r10, lr}
	.cfi_def_cfa_offset 32
	.cfi_offset 4, -32
	.cfi_offset 5, -28
	.cfi_offset 6, -24
	.cfi_offset 7, -20
	.cfi_offset 8, -16
	.cfi_offset 9, -12
	.cfi_offset 10, -8
	.cfi_offset 14, -4
	.loc 1 3734 8 view .LVU1127
	ldrb	r3, [r1]	@ zero_extendqisi2
	.loc 1 3729 93 view .LVU1128
	mov	r6, r1
	.loc 1 3734 8 view .LVU1129
	cmp	r3, #11
	.loc 1 3729 93 view .LVU1130
	mov	r4, r0
	.loc 1 3730 5 is_stmt 1 view .LVU1131
.LVL266:
	.loc 1 3731 5 view .LVU1132
	.loc 1 3731 12 is_stmt 0 view .LVU1133
	ldr	r5, [r1, #4]
.LVL267:
	.loc 1 3734 5 is_stmt 1 view .LVU1134
	.loc 1 3734 8 is_stmt 0 view .LVU1135
	beq	.L344
.LVL268:
.L304:
	.loc 1 3744 5 is_stmt 1 view .LVU1136
	.loc 1 3744 23 is_stmt 0 view .LVU1137
	ldr	r3, [r4, #8]
	.loc 1 3744 8 view .LVU1138
	cmp	r3, r5
	bcc	.L345
	.loc 1 3748 5 is_stmt 1 view .LVU1139
	.loc 1 3751 24 is_stmt 0 view .LVU1140
	ldr	r2, [r4, #16]
	.loc 1 3748 33 view .LVU1141
	sub	r3, r3, r5
	.loc 1 3751 8 view .LVU1142
	cmp	r2, r5
	.loc 1 3748 33 view .LVU1143
	str	r3, [r4, #8]
.LVL269:
	.loc 1 3751 5 is_stmt 1 view .LVU1144
	.loc 1 3751 8 is_stmt 0 view .LVU1145
	bcs	.L346
.LBB2761:
	.loc 1 3761 9 is_stmt 1 view .LVU1146
	.loc 1 3761 20 is_stmt 0 view .LVU1147
	ldr	r9, [r4]
	.loc 1 3761 26 view .LVU1148
	ldr	r8, [r9, #48]
	.loc 1 3761 12 view .LVU1149
	cmp	r8, #0
	beq	.L347
	.loc 1 3775 9 is_stmt 1 view .LVU1150
	.loc 1 3777 9 view .LVU1151
	.loc 1 3777 90 is_stmt 0 discriminator 1 view .LVU1152
	cmp	r2, #31
	cmpls	r5, #255
	bls	.L313
	.loc 1 3778 13 is_stmt 1 view .LVU1153
	.loc 1 3778 40 is_stmt 0 view .LVU1154
	lsl	r0, r5, #4
	add	r0, r0, #8
	bl	malloc
.LVL270:
	.loc 1 3780 13 is_stmt 1 view .LVU1155
	.loc 1 3780 16 is_stmt 0 view .LVU1156
	cmp	r0, #0
	.loc 1 3787 36 view .LVU1157
	addne	r7, r0, #8
	.loc 1 3787 34 view .LVU1158
	strne	r7, [r6, #8]
	.loc 1 3780 16 view .LVU1159
	beq	.L341
.L315:
	.loc 1 3803 9 is_stmt 1 view .LVU1160
	.loc 1 3803 20 is_stmt 0 view .LVU1161
	str	r8, [r0]
	.loc 1 3804 9 is_stmt 1 view .LVU1162
	.loc 1 3804 28 is_stmt 0 view .LVU1163
	str	r0, [r9, #48]
.LBE2761:
	.loc 1 3813 5 is_stmt 1 view .LVU1164
.LVL271:
.LBB2774:
.LBI2774:
	.loc 1 3683 13 view .LVU1165
.LBB2775:
	.loc 1 3686 5 view .LVU1166
.L311:
	.loc 1 3690 5 view .LVU1167
	.loc 1 3690 23 is_stmt 0 view .LVU1168
	ldr	r6, [r4, #20]
.LVL272:
	.loc 1 3690 36 view .LVU1169
	ldr	r3, [r4, #24]
	.loc 1 3690 23 view .LVU1170
	add	r6, r6, #1
	.loc 1 3690 8 view .LVU1171
	cmp	r6, r3
	beq	.L317
.LBB2776:
.LBB2777:
	.loc 1 3702 37 view .LVU1172
	ldr	r8, [r4, #28]
	lsl	r9, r6, #3
.L318:
.LBE2777:
.LBE2776:
	.loc 1 3724 5 is_stmt 1 view .LVU1173
	.loc 1 3725 18 is_stmt 0 view .LVU1174
	add	r9, r8, r9
	.loc 1 3724 5 view .LVU1175
	str	r6, [r4, #20]
	.loc 1 3725 5 is_stmt 1 view .LVU1176
	.loc 1 3725 40 is_stmt 0 view .LVU1177
	str	r7, [r8, r6, lsl #3]
	.loc 1 3726 5 is_stmt 1 view .LVU1178
	.loc 1 3726 39 is_stmt 0 view .LVU1179
	str	r5, [r9, #4]
.LVL273:
	.loc 1 3726 39 view .LVU1180
.LBE2775:
.LBE2774:
	.loc 1 3814 1 view .LVU1181
	pop	{r4, r5, r6, r7, r8, r9, r10, pc}
.LVL274:
.L346:
	.loc 1 3752 9 is_stmt 1 view .LVU1182
	.loc 1 3752 38 is_stmt 0 view .LVU1183
	ldr	r7, [r4, #12]
	.loc 1 3754 28 view .LVU1184
	sub	r2, r2, r5
	.loc 1 3753 23 view .LVU1185
	add	r3, r7, r5, lsl #4
.LBB2799:
.LBB2794:
	.loc 1 3686 8 view .LVU1186
	cmp	r5, #0
.LBE2794:
.LBE2799:
	.loc 1 3752 30 view .LVU1187
	str	r7, [r6, #8]
	.loc 1 3753 9 is_stmt 1 view .LVU1188
	.loc 1 3753 23 is_stmt 0 view .LVU1189
	str	r3, [r4, #12]
	.loc 1 3754 9 is_stmt 1 view .LVU1190
	.loc 1 3754 28 is_stmt 0 view .LVU1191
	str	r2, [r4, #16]
	.loc 1 3813 5 is_stmt 1 view .LVU1192
.LVL275:
.LBB2800:
	.loc 1 3683 13 view .LVU1193
.LBB2795:
	.loc 1 3686 5 view .LVU1194
	.loc 1 3686 8 is_stmt 0 view .LVU1195
	popeq	{r4, r5, r6, r7, r8, r9, r10, pc}
	b	.L311
.LVL276:
.L344:
	.loc 1 3686 8 view .LVU1196
.LBE2795:
.LBE2800:
	.loc 1 3735 9 is_stmt 1 view .LVU1197
	.loc 1 3735 29 is_stmt 0 view .LVU1198
	mov	r3, #0
	.loc 1 3735 12 view .LVU1199
	mvn	r0, #0
.LVL277:
	.loc 1 3735 29 view .LVU1200
	adds	r1, r5, r5
.LVL278:
	.loc 1 3735 29 view .LVU1201
	adc	r2, r3, r3
	.loc 1 3735 12 view .LVU1202
	cmp	r0, r1
	sbcs	r3, r3, r2
	.loc 1 3739 15 view .LVU1203
	lslcs	r5, r5, #1
.LVL279:
	.loc 1 3735 12 view .LVU1204
	bcs	.L304
	.loc 1 3736 13 is_stmt 1 view .LVU1205
	ldr	r0, [r4]
.LVL280:
.LBB2801:
.LBI2801:
	.loc 1 4445 6 view .LVU1206
.LBB2802:
	.loc 1 4446 5 view .LVU1207
	.loc 1 4446 8 is_stmt 0 view .LVU1208
	ldrb	r3, [r0, #32]	@ zero_extendqisi2
	cmp	r3, #0
	popne	{r4, r5, r6, r7, r8, r9, r10, pc}
.LVL281:
.LBB2803:
.LBI2803:
	.loc 1 4445 6 is_stmt 1 view .LVU1209
.LBB2804:
	.loc 1 4447 9 view .LVU1210
	.loc 1 4448 9 view .LVU1211
	.loc 1 4448 21 is_stmt 0 view .LVU1212
	mov	r1, #5
	.loc 1 4449 17 view .LVU1213
	ldr	r3, [r0]
	.loc 1 4448 21 view .LVU1214
	strb	r1, [r0, #32]
.LVL282:
	.loc 1 4449 9 is_stmt 1 view .LVU1215
	.loc 1 4449 12 is_stmt 0 view .LVU1216
	cmp	r3, #0
	bne	.L337
	pop	{r4, r5, r6, r7, r8, r9, r10, pc}
.LVL283:
.L345:
	.loc 1 4449 12 view .LVU1217
.LBE2804:
.LBE2803:
.LBE2802:
.LBE2801:
	.loc 1 3745 9 is_stmt 1 view .LVU1218
	ldr	r0, [r4]
.LVL284:
.LBB2805:
.LBI2805:
	.loc 1 4445 6 view .LVU1219
.LBB2806:
	.loc 1 4446 5 view .LVU1220
	.loc 1 4446 8 is_stmt 0 view .LVU1221
	ldrb	r3, [r0, #32]	@ zero_extendqisi2
	cmp	r3, #0
	popne	{r4, r5, r6, r7, r8, r9, r10, pc}
.LVL285:
.LBB2807:
.LBI2807:
	.loc 1 4445 6 is_stmt 1 view .LVU1222
.LBB2808:
	.loc 1 4447 9 view .LVU1223
	.loc 1 4448 9 view .LVU1224
	.loc 1 4448 21 is_stmt 0 view .LVU1225
	mov	r1, #3
	.loc 1 4449 17 view .LVU1226
	ldr	r3, [r0]
	.loc 1 4448 21 view .LVU1227
	strb	r1, [r0, #32]
.LVL286:
	.loc 1 4449 9 is_stmt 1 view .LVU1228
	.loc 1 4449 12 is_stmt 0 view .LVU1229
	cmp	r3, #0
	popeq	{r4, r5, r6, r7, r8, r9, r10, pc}
.LVL287:
.L337:
	.loc 1 4449 12 view .LVU1230
.LBE2808:
.LBE2807:
.LBE2806:
.LBE2805:
	.loc 1 3814 1 view .LVU1231
	pop	{r4, r5, r6, r7, r8, r9, r10, lr}
	.cfi_remember_state
	.cfi_restore 14
	.cfi_restore 10
	.cfi_restore 9
	.cfi_restore 8
	.cfi_restore 7
	.cfi_restore 6
	.cfi_restore 5
	.cfi_restore 4
	.cfi_def_cfa_offset 0
.LVL288:
.LBB2809:
.LBB2762:
.LBB2763:
.LBB2764:
.LBB2765:
	.loc 1 4450 13 view .LVU1232
	bx	r3	@ indirect register sibling call
.LVL289:
.L313:
	.cfi_restore_state
	.loc 1 4450 13 view .LVU1233
.LBE2765:
.LBE2764:
.LBE2763:
.LBE2762:
	.loc 1 3790 13 is_stmt 1 view .LVU1234
	.loc 1 3790 40 is_stmt 0 view .LVU1235
	ldr	r0, .L348
	bl	malloc
.LVL290:
	.loc 1 3791 13 is_stmt 1 view .LVU1236
	.loc 1 3791 16 is_stmt 0 view .LVU1237
	cmp	r0, #0
	.loc 1 3791 16 view .LVU1238
	beq	.L341
	.loc 1 3795 13 is_stmt 1 view .LVU1239
	.loc 1 3798 13 view .LVU1240
	.loc 1 3798 36 is_stmt 0 view .LVU1241
	add	r7, r0, #8
	.loc 1 3799 41 view .LVU1242
	add	r3, r7, r5, lsl #4
	.loc 1 3798 34 view .LVU1243
	str	r7, [r6, #8]
	.loc 1 3799 13 is_stmt 1 view .LVU1244
	.loc 1 3799 27 is_stmt 0 view .LVU1245
	str	r3, [r4, #12]
	.loc 1 3800 13 is_stmt 1 view .LVU1246
	.loc 1 3800 103 is_stmt 0 view .LVU1247
	rsb	r3, r5, #255
	.loc 1 3800 32 view .LVU1248
	str	r3, [r4, #16]
	b	.L315
.LVL291:
.L317:
	.loc 1 3800 32 view .LVU1249
.LBE2809:
.LBB2810:
.LBB2796:
.LBB2790:
	.loc 1 3692 9 is_stmt 1 view .LVU1250
	.loc 1 3696 12 is_stmt 0 view .LVU1251
	ldrb	r3, [r4, #32]	@ zero_extendqisi2
	.loc 1 3692 16 view .LVU1252
	lsl	r10, r6, #1
.LVL292:
	.loc 1 3693 9 is_stmt 1 view .LVU1253
	.loc 1 3696 9 view .LVU1254
	.loc 1 3696 12 is_stmt 0 view .LVU1255
	cmp	r3, #0
.LBB2778:
	.loc 1 3697 56 view .LVU1256
	lsl	r1, r6, #4
.LBE2778:
	.loc 1 3696 12 view .LVU1257
	bne	.L319
.LBB2779:
	.loc 1 3697 13 is_stmt 1 view .LVU1258
	.loc 1 3697 56 is_stmt 0 view .LVU1259
	mov	r0, r1
	bl	malloc
.LVL293:
	.loc 1 3698 13 is_stmt 1 view .LVU1260
	.loc 1 3698 16 is_stmt 0 view .LVU1261
	subs	r8, r0, #0
	beq	.L343
	.loc 1 3702 13 is_stmt 1 view .LVU1262
	lsl	r9, r6, #3
	mov	r2, r9
	ldr	r1, [r4, #28]
	bl	memcpy
.LVL294:
	.loc 1 3703 13 view .LVU1263
	.loc 1 3704 33 is_stmt 0 view .LVU1264
	mov	r3, #1
	.loc 1 3703 27 view .LVU1265
	str	r8, [r4, #28]
	.loc 1 3704 13 is_stmt 1 view .LVU1266
	.loc 1 3704 33 is_stmt 0 view .LVU1267
	strb	r3, [r4, #32]
.LVL295:
.L321:
	.loc 1 3704 33 view .LVU1268
.LBE2779:
	.loc 1 3716 9 is_stmt 1 view .LVU1269
	.loc 1 3716 23 is_stmt 0 view .LVU1270
	str	r10, [r4, #24]
	b	.L318
.L319:
.LBB2780:
	.loc 1 3708 13 is_stmt 1 view .LVU1271
.LVL296:
.LBB2781:
.LBI2781:
	.loc 2 741 28 view .LVU1272
.LBB2782:
	.loc 2 742 13 view .LVU1273
	.loc 2 743 13 view .LVU1274
	.loc 2 743 20 is_stmt 0 view .LVU1275
	ldr	r0, [r4, #28]
	bl	realloc
.LVL297:
	.loc 2 743 20 view .LVU1276
.LBE2782:
.LBE2781:
	.loc 1 3710 13 is_stmt 1 view .LVU1277
	.loc 1 3710 16 is_stmt 0 view .LVU1278
	subs	r8, r0, #0
	beq	.L343
	.loc 1 3714 13 is_stmt 1 view .LVU1279
.LBE2780:
.LBE2790:
	.loc 1 3724 5 is_stmt 0 view .LVU1280
	ldr	r6, [r4, #20]
.LBB2791:
.LBB2787:
	.loc 1 3714 27 view .LVU1281
	str	r8, [r4, #28]
.LBE2787:
.LBE2791:
	.loc 1 3724 5 view .LVU1282
	add	r6, r6, #1
	lsl	r9, r6, #3
	b	.L321
.LVL298:
.L347:
	.loc 1 3724 5 view .LVU1283
.LBE2796:
.LBE2810:
.LBB2811:
	.loc 1 3762 13 is_stmt 1 view .LVU1284
.LBB2769:
.LBI2762:
	.loc 1 4445 6 view .LVU1285
.LBB2768:
	.loc 1 4446 5 view .LVU1286
	.loc 1 4446 8 is_stmt 0 view .LVU1287
	ldrb	r3, [r9, #32]	@ zero_extendqisi2
	cmp	r3, #0
	popne	{r4, r5, r6, r7, r8, r9, r10, pc}
.LVL299:
.LBB2767:
.LBI2764:
	.loc 1 4445 6 is_stmt 1 view .LVU1288
.LBB2766:
	.loc 1 4447 9 view .LVU1289
	.loc 1 4448 9 view .LVU1290
	.loc 1 4448 21 is_stmt 0 view .LVU1291
	mov	r1, #5
	.loc 1 4449 17 view .LVU1292
	ldr	r3, [r9]
	.loc 1 4448 21 view .LVU1293
	strb	r1, [r9, #32]
	.loc 1 4449 9 is_stmt 1 view .LVU1294
	.loc 1 4449 12 is_stmt 0 view .LVU1295
	cmp	r3, #0
	popeq	{r4, r5, r6, r7, r8, r9, r10, pc}
	.loc 1 4450 13 is_stmt 1 view .LVU1296
	mov	r0, r9
	b	.L337
.LVL300:
.L341:
	.loc 1 4450 13 is_stmt 0 view .LVU1297
.LBE2766:
.LBE2767:
.LBE2768:
.LBE2769:
	.loc 1 3792 17 is_stmt 1 view .LVU1298
.LBB2770:
.LBI2770:
	.loc 1 4445 6 view .LVU1299
.LBB2771:
	.loc 1 4446 5 view .LVU1300
	.loc 1 4446 8 is_stmt 0 view .LVU1301
	ldrb	r3, [r9, #32]	@ zero_extendqisi2
	cmp	r3, #0
	popne	{r4, r5, r6, r7, r8, r9, r10, pc}
	mov	r0, r9
.LVL301:
	.loc 1 4446 8 view .LVU1302
.LBE2771:
.LBE2770:
.LBE2811:
	.loc 1 3814 1 view .LVU1303
	pop	{r4, r5, r6, r7, r8, r9, r10, lr}
	.cfi_remember_state
	.cfi_restore 14
	.cfi_restore 10
	.cfi_restore 9
	.cfi_restore 8
	.cfi_restore 7
	.cfi_restore 6
	.cfi_restore 5
	.cfi_restore 4
	.cfi_def_cfa_offset 0
.LVL302:
.LBB2812:
.LBB2773:
.LBB2772:
	.loc 1 3814 1 view .LVU1304
	mov	r1, #6
	b	mpack_tree_flag_error.part.0
.LVL303:
.L343:
	.cfi_restore_state
	.loc 1 3814 1 view .LVU1305
.LBE2772:
.LBE2773:
.LBE2812:
.LBB2813:
.LBB2797:
.LBB2792:
.LBB2788:
	.loc 1 3711 17 is_stmt 1 view .LVU1306
	ldr	r0, [r4]
.LVL304:
.LBB2783:
.LBI2783:
	.loc 1 4445 6 view .LVU1307
.LBB2784:
	.loc 1 4446 5 view .LVU1308
	.loc 1 4446 8 is_stmt 0 view .LVU1309
	ldrb	r3, [r0, #32]	@ zero_extendqisi2
	cmp	r3, #0
	popne	{r4, r5, r6, r7, r8, r9, r10, pc}
	mov	r1, #6
.LBE2784:
.LBE2783:
.LBE2788:
.LBE2792:
.LBE2797:
.LBE2813:
	.loc 1 3814 1 view .LVU1310
	pop	{r4, r5, r6, r7, r8, r9, r10, lr}
	.cfi_restore 14
	.cfi_restore 10
	.cfi_restore 9
	.cfi_restore 8
	.cfi_restore 7
	.cfi_restore 6
	.cfi_restore 5
	.cfi_restore 4
	.cfi_def_cfa_offset 0
.LVL305:
.LBB2814:
.LBB2798:
.LBB2793:
.LBB2789:
.LBB2786:
.LBB2785:
	.loc 1 3814 1 view .LVU1311
	b	mpack_tree_flag_error.part.0
.LVL306:
.L349:
	.loc 1 3814 1 view .LVU1312
	.align	2
.L348:
	.word	4088
.LBE2785:
.LBE2786:
.LBE2789:
.LBE2793:
.LBE2798:
.LBE2814:
	.cfi_endproc
.LFE337:
	.size	mpack_tree_parse_children, .-mpack_tree_parse_children
	.section	.rodata.str1.4,"aMS",%progbits,1
	.align	2
.LC0:
	.ascii	"true\000"
	.align	2
.LC1:
	.ascii	"false\000"
	.align	2
.LC2:
	.ascii	"null\000"
	.align	2
.LC3:
	.ascii	"%f\000"
	.align	2
.LC4:
	.ascii	"%lli\000"
	.align	2
.LC5:
	.ascii	"%llu\000"
	.align	2
.LC6:
	.ascii	"<binary data of length %u>\000"
	.align	2
.LC7:
	.ascii	"<ext data of type %i and length %u>\000"
	.align	2
.LC8:
	.ascii	"\\n\000"
	.align	2
.LC9:
	.ascii	"\\\\\000"
	.align	2
.LC10:
	.ascii	"\\\"\000"
	.align	2
.LC11:
	.ascii	"[\012\000"
	.align	2
.LC12:
	.ascii	"    \000"
	.align	2
.LC13:
	.ascii	"{\012\000"
	.align	2
.LC14:
	.ascii	": \000"
	.section	.text.mpack_node_print_element,"ax",%progbits
	.align	2
	.syntax unified
	.arm
	.type	mpack_node_print_element, %function
mpack_node_print_element:
.LVL307:
.LFB354:
	.loc 1 4501 83 is_stmt 1 view -0
	.cfi_startproc
	@ args = 0, pretend = 0, frame = 32
	@ frame_needed = 0, uses_anonymous_args = 0
	.loc 1 4501 83 is_stmt 0 view .LVU1314
	push	{r4, r5, r6, r7, r8, r9, r10, fp, lr}
	.cfi_def_cfa_offset 36
	.cfi_offset 4, -36
	.cfi_offset 5, -32
	.cfi_offset 6, -28
	.cfi_offset 7, -24
	.cfi_offset 8, -20
	.cfi_offset 9, -16
	.cfi_offset 10, -12
	.cfi_offset 11, -8
	.cfi_offset 14, -4
	sub	sp, sp, #36
	.cfi_def_cfa_offset 72
	.loc 1 4501 83 view .LVU1315
	mov	ip, sp
	stm	ip, {r0, r1}
	.loc 1 4503 5 view .LVU1316
	ldrb	r1, [r0]	@ zero_extendqisi2
	mov	r7, r0
.LVL308:
	.loc 1 4502 5 is_stmt 1 view .LVU1317
	.loc 1 4503 5 view .LVU1318
	sub	r1, r1, #1
	.loc 1 4501 83 is_stmt 0 view .LVU1319
	mov	r5, r2
	mov	r4, r3
	.loc 1 4503 5 view .LVU1320
	cmp	r1, #10
	ldrls	pc, [pc, r1, asl #2]
	b	.L350
.L353:
	.word	.L363
	.word	.L362
	.word	.L361
	.word	.L360
	.word	.L359
	.word	.L358
	.word	.L357
	.word	.L356
	.word	.L355
	.word	.L354
	.word	.L352
.L352:
	.loc 1 4568 13 is_stmt 1 view .LVU1321
	mov	r2, #2
.LVL309:
	.loc 1 4568 13 is_stmt 0 view .LVU1322
	mov	r1, #1
	ldr	r0, .L464
.LVL310:
	.loc 1 4568 13 view .LVU1323
	bl	fwrite
.LVL311:
	.loc 1 4569 13 is_stmt 1 view .LVU1324
.LBB2941:
	.loc 1 4569 18 view .LVU1325
	.loc 1 4569 34 discriminator 1 view .LVU1326
	ldr	r3, [r7, #4]
	cmp	r3, #0
	beq	.L391
	.loc 1 4569 25 is_stmt 0 view .LVU1327
	mov	r10, #0
	ldr	r9, [sp, #4]
.LBB2942:
	.loc 1 4571 21 view .LVU1328
	ldr	r8, .L464+4
	.loc 1 4570 46 discriminator 1 view .LVU1329
	add	fp, r5, #1
.LVL312:
.L392:
	.loc 1 4570 38 is_stmt 1 discriminator 1 view .LVU1330
	cmp	fp, #0
	.loc 1 4570 29 is_stmt 0 view .LVU1331
	movne	r6, #0
	.loc 1 4570 38 discriminator 1 view .LVU1332
	beq	.L407
.LVL313:
.L393:
	.loc 1 4571 21 is_stmt 1 view .LVU1333
	mov	r3, r4
	mov	r2, #4
	mov	r1, #1
	mov	r0, r8
	bl	fwrite
.LVL314:
	.loc 1 4570 51 discriminator 3 view .LVU1334
	.loc 1 4570 38 discriminator 1 view .LVU1335
	cmp	r5, r6
	add	r6, r6, #1
.LVL315:
	.loc 1 4570 38 is_stmt 0 discriminator 1 view .LVU1336
	bne	.L393
.LVL316:
.L407:
	.loc 1 4570 38 discriminator 1 view .LVU1337
.LBE2942:
	.loc 1 4572 17 is_stmt 1 view .LVU1338
.LBB2943:
.LBI2943:
	.loc 2 5491 28 view .LVU1339
	.loc 2 5492 5 view .LVU1340
.LBB2944:
.LBI2944:
	.loc 2 5466 28 view .LVU1341
.LBB2945:
	.loc 2 5467 5 view .LVU1342
.LBB2946:
.LBI2946:
	.loc 2 4690 29 view .LVU1343
	.loc 2 4691 5 view .LVU1344
.LBB2947:
.LBI2947:
	.loc 2 4592 29 view .LVU1345
.LBB2948:
	.loc 2 4593 5 view .LVU1346
	.loc 2 4593 5 is_stmt 0 view .LVU1347
.LBE2948:
.LBE2947:
.LBE2946:
	.loc 2 5467 8 discriminator 1 view .LVU1348
	ldrb	r3, [r9, #32]	@ zero_extendqisi2
	cmp	r3, #0
	bne	.L399
	.loc 2 5470 5 is_stmt 1 view .LVU1349
	.loc 2 5470 8 is_stmt 0 view .LVU1350
	ldrb	r3, [r7]	@ zero_extendqisi2
	cmp	r3, #11
	bne	.L457
	.loc 2 5475 5 is_stmt 1 view .LVU1351
	.loc 2 5475 8 is_stmt 0 view .LVU1352
	ldr	r3, [r7, #4]
	cmp	r10, r3
	bcs	.L458
	.loc 2 5480 5 is_stmt 1 view .LVU1353
.LVL317:
.LBB2949:
.LBI2949:
	.loc 2 4521 34 view .LVU1354
.LBB2950:
	.loc 2 4522 5 view .LVU1355
	.loc 2 4522 38 is_stmt 0 view .LVU1356
	ldr	r3, [r7, #8]
	add	r3, r3, r10, lsl #5
.LVL318:
	.loc 2 4522 38 view .LVU1357
.LBE2950:
.LBE2949:
.LBB2951:
.LBI2951:
	.loc 2 4514 28 is_stmt 1 view .LVU1358
.LBB2952:
	.loc 2 4515 5 view .LVU1359
	.loc 2 4516 5 view .LVU1360
	.loc 2 4517 5 view .LVU1361
	.loc 2 4518 5 view .LVU1362
.L395:
	.loc 2 4518 5 is_stmt 0 view .LVU1363
.LBE2952:
.LBE2951:
.LBB2953:
.LBB2954:
.LBB2955:
.LBB2956:
	.loc 2 4518 12 view .LVU1364
	str	r3, [sp, #16]
	str	r9, [sp, #20]
.LVL319:
	.loc 2 4518 12 view .LVU1365
.LBE2956:
.LBE2955:
.LBE2954:
.LBE2953:
.LBE2945:
.LBE2944:
.LBE2943:
	.loc 1 4572 17 discriminator 1 view .LVU1366
	add	r1, sp, #16
	ldm	r1, {r0, r1}
	mov	r3, r4
	mov	r2, fp
	bl	mpack_node_print_element
.LVL320:
	.loc 1 4573 17 is_stmt 1 view .LVU1367
	mov	r3, r4
	mov	r2, #2
	mov	r1, #1
	ldr	r0, .L464+8
	bl	fwrite
.LVL321:
	.loc 1 4574 17 view .LVU1368
.LBB2975:
.LBI2975:
	.loc 2 5503 28 view .LVU1369
	.loc 2 5504 5 view .LVU1370
.LBB2976:
.LBI2976:
	.loc 2 5466 28 view .LVU1371
.LBB2977:
	.loc 2 5467 5 view .LVU1372
.LBB2978:
.LBI2978:
	.loc 2 4690 29 view .LVU1373
	.loc 2 4691 5 view .LVU1374
.LBB2979:
.LBI2979:
	.loc 2 4592 29 view .LVU1375
.LBB2980:
	.loc 2 4593 5 view .LVU1376
	.loc 2 4593 5 is_stmt 0 view .LVU1377
.LBE2980:
.LBE2979:
.LBE2978:
	.loc 2 5467 8 discriminator 1 view .LVU1378
	ldrb	r3, [r9, #32]	@ zero_extendqisi2
	cmp	r3, #0
	bne	.L405
	.loc 2 5470 5 is_stmt 1 view .LVU1379
	.loc 2 5470 8 is_stmt 0 view .LVU1380
	ldrb	r3, [r7]	@ zero_extendqisi2
	cmp	r3, #11
	bne	.L459
	.loc 2 5475 5 is_stmt 1 view .LVU1381
	.loc 2 5475 8 is_stmt 0 view .LVU1382
	ldr	r3, [r7, #4]
	cmp	r10, r3
	bcs	.L460
	.loc 2 5480 5 is_stmt 1 view .LVU1383
.LVL322:
.LBB2981:
.LBI2981:
	.loc 2 4521 34 view .LVU1384
.LBB2982:
	.loc 2 4522 5 view .LVU1385
	.loc 2 4522 38 is_stmt 0 view .LVU1386
	ldr	r3, [r7, #8]
	lsl	r2, r10, #5
	add	r2, r2, #16
	add	r3, r3, r2
.LVL323:
	.loc 2 4522 38 view .LVU1387
.LBE2982:
.LBE2981:
.LBB2983:
.LBI2983:
	.loc 2 4514 28 is_stmt 1 view .LVU1388
.LBB2984:
	.loc 2 4515 5 view .LVU1389
	.loc 2 4516 5 view .LVU1390
	.loc 2 4517 5 view .LVU1391
	.loc 2 4518 5 view .LVU1392
.L401:
	.loc 2 4518 5 is_stmt 0 view .LVU1393
.LBE2984:
.LBE2983:
.LBB2985:
.LBB2986:
.LBB2987:
.LBB2988:
	.loc 2 4518 12 view .LVU1394
	str	r3, [sp, #24]
	str	r9, [sp, #28]
.LVL324:
	.loc 2 4518 12 view .LVU1395
.LBE2988:
.LBE2987:
.LBE2986:
.LBE2985:
.LBE2977:
.LBE2976:
.LBE2975:
	.loc 1 4574 17 discriminator 1 view .LVU1396
	add	r1, sp, #24
	mov	r3, r4
	ldm	r1, {r0, r1}
	mov	r2, fp
	bl	mpack_node_print_element
.LVL325:
	.loc 1 4575 17 is_stmt 1 view .LVU1397
	.loc 1 4575 36 is_stmt 0 view .LVU1398
	ldr	r3, [r7, #4]
	sub	r3, r3, #1
	.loc 1 4575 20 view .LVU1399
	cmp	r3, r10
	beq	.L406
	.loc 1 4576 21 is_stmt 1 view .LVU1400
	mov	r1, r4
	mov	r0, #44
	bl	putc
.LVL326:
.L406:
	.loc 1 4577 17 view .LVU1401
	mov	r1, r4
	mov	r0, #10
	bl	putc
.LVL327:
	.loc 1 4569 47 discriminator 2 view .LVU1402
	.loc 1 4569 34 is_stmt 0 discriminator 1 view .LVU1403
	ldr	r3, [r7, #4]
	.loc 1 4569 47 discriminator 2 view .LVU1404
	add	r10, r10, #1
.LVL328:
	.loc 1 4569 34 is_stmt 1 discriminator 1 view .LVU1405
	cmp	r3, r10
	bhi	.L392
.LVL329:
.L391:
	.loc 1 4569 34 is_stmt 0 discriminator 1 view .LVU1406
.LBE2941:
.LBB3011:
	.loc 1 4579 34 is_stmt 1 discriminator 1 view .LVU1407
	cmp	r5, #0
	.loc 1 4579 25 is_stmt 0 view .LVU1408
	movne	r6, #0
	.loc 1 4580 17 view .LVU1409
	ldrne	r7, .L464+4
.LVL330:
	.loc 1 4579 34 discriminator 1 view .LVU1410
	beq	.L409
.LVL331:
.L408:
	.loc 1 4580 17 is_stmt 1 view .LVU1411
	mov	r3, r4
	mov	r2, #4
	mov	r1, #1
	mov	r0, r7
	.loc 1 4579 43 is_stmt 0 discriminator 3 view .LVU1412
	add	r6, r6, #1
.LVL332:
	.loc 1 4580 17 view .LVU1413
	bl	fwrite
.LVL333:
	.loc 1 4579 43 is_stmt 1 discriminator 3 view .LVU1414
	.loc 1 4579 34 discriminator 1 view .LVU1415
	cmp	r5, r6
	bne	.L408
.LVL334:
.L409:
	.loc 1 4579 34 is_stmt 0 discriminator 1 view .LVU1416
.LBE3011:
	.loc 1 4581 13 is_stmt 1 view .LVU1417
	mov	r1, r4
	mov	r0, #125
	b	.L453
.LVL335:
.L363:
	.loc 1 4506 13 view .LVU1418
	mov	r2, #4
.LVL336:
	.loc 1 4506 13 is_stmt 0 view .LVU1419
	mov	r1, #1
	ldr	r0, .L464+12
.LVL337:
	.loc 1 4584 1 view .LVU1420
	add	sp, sp, #36
	.cfi_remember_state
	.cfi_def_cfa_offset 36
	@ sp needed
	pop	{r4, r5, r6, r7, r8, r9, r10, fp, lr}
	.cfi_restore 14
	.cfi_restore 11
	.cfi_restore 10
	.cfi_restore 9
	.cfi_restore 8
	.cfi_restore 7
	.cfi_restore 6
	.cfi_restore 5
	.cfi_restore 4
	.cfi_def_cfa_offset 0
.LVL338:
	.loc 1 4506 13 view .LVU1421
	b	fwrite
.LVL339:
.L362:
	.cfi_restore_state
	.loc 1 4509 13 is_stmt 1 view .LVU1422
	ldrb	r2, [r0, #8]	@ zero_extendqisi2
.LVL340:
	.loc 1 4509 13 is_stmt 0 discriminator 1 view .LVU1423
	ldr	r3, .L464+16
.LVL341:
	.loc 1 4509 13 discriminator 4 view .LVU1424
	cmp	r2, #0
	.loc 1 4509 13 discriminator 1 view .LVU1425
	ldr	r1, .L464+20
	.loc 1 4509 13 discriminator 4 view .LVU1426
	mov	r0, r4
.LVL342:
	.loc 1 4509 13 discriminator 4 view .LVU1427
	moveq	r1, r3
	.loc 1 4584 1 view .LVU1428
	add	sp, sp, #36
	.cfi_remember_state
	.cfi_def_cfa_offset 36
	@ sp needed
	pop	{r4, r5, r6, r7, r8, r9, r10, fp, lr}
	.cfi_restore 14
	.cfi_restore 11
	.cfi_restore 10
	.cfi_restore 9
	.cfi_restore 8
	.cfi_restore 7
	.cfi_restore 6
	.cfi_restore 5
	.cfi_restore 4
	.cfi_def_cfa_offset 0
.LVL343:
	.loc 1 4509 13 discriminator 4 view .LVU1429
	b	fprintf
.LVL344:
.L361:
	.cfi_restore_state
	.loc 1 4513 13 is_stmt 1 view .LVU1430
	vldr.32	s15, [r0, #8]
	vcvt.f64.f32	d7, s15
	mov	r0, r3
.LVL345:
	.loc 1 4513 13 is_stmt 0 view .LVU1431
	vmov	r2, r3, d7
.LVL346:
	.loc 1 4513 13 view .LVU1432
	ldr	r1, .L464+24
.LVL347:
.L451:
	.loc 1 4584 1 view .LVU1433
	add	sp, sp, #36
	.cfi_remember_state
	.cfi_def_cfa_offset 36
	@ sp needed
	pop	{r4, r5, r6, r7, r8, r9, r10, fp, lr}
	.cfi_restore 14
	.cfi_restore 11
	.cfi_restore 10
	.cfi_restore 9
	.cfi_restore 8
	.cfi_restore 7
	.cfi_restore 6
	.cfi_restore 5
	.cfi_restore 4
	.cfi_def_cfa_offset 0
.LVL348:
	.loc 1 4516 13 view .LVU1434
	b	fprintf
.LVL349:
.L360:
	.cfi_restore_state
	.loc 1 4516 13 is_stmt 1 view .LVU1435
	mov	r0, r3
.LVL350:
	.loc 1 4516 13 is_stmt 0 view .LVU1436
	ldrd	r2, [r7, #8]
.LVL351:
	.loc 1 4516 13 view .LVU1437
	ldr	r1, .L464+24
	b	.L451
.LVL352:
.L359:
	.loc 1 4520 13 is_stmt 1 view .LVU1438
	mov	r0, r3
.LVL353:
	.loc 1 4520 13 is_stmt 0 view .LVU1439
	ldr	r1, .L464+28
.LVL354:
.L452:
	.loc 1 4523 13 view .LVU1440
	ldrd	r2, [r7, #8]
.LVL355:
	.loc 1 4584 1 view .LVU1441
	add	sp, sp, #36
	.cfi_remember_state
	.cfi_def_cfa_offset 36
	@ sp needed
	pop	{r4, r5, r6, r7, r8, r9, r10, fp, lr}
	.cfi_restore 14
	.cfi_restore 11
	.cfi_restore 10
	.cfi_restore 9
	.cfi_restore 8
	.cfi_restore 7
	.cfi_restore 6
	.cfi_restore 5
	.cfi_restore 4
	.cfi_def_cfa_offset 0
.LVL356:
	.loc 1 4523 13 view .LVU1442
	b	fprintf
.LVL357:
.L358:
	.cfi_restore_state
	.loc 1 4523 13 is_stmt 1 view .LVU1443
	mov	r0, r3
.LVL358:
	.loc 1 4523 13 is_stmt 0 view .LVU1444
	ldr	r1, .L464+32
	b	.L452
.LVL359:
.L357:
.LBB3012:
	.loc 1 4537 17 is_stmt 1 view .LVU1445
	mov	r1, r3
	mov	r0, #34
.LVL360:
	.loc 1 4537 17 is_stmt 0 view .LVU1446
	bl	putc
.LVL361:
	.loc 1 4538 17 is_stmt 1 view .LVU1447
	.loc 1 4538 17 is_stmt 0 view .LVU1448
	ldr	r0, [sp, #4]
.LVL362:
.LBB3013:
.LBI3013:
	.loc 2 5210 27 is_stmt 1 view .LVU1449
.LBB3014:
	.loc 2 5211 5 view .LVU1450
.LBB3015:
.LBI3015:
	.loc 2 4690 29 view .LVU1451
	.loc 2 4691 5 view .LVU1452
.LBB3016:
.LBI3016:
	.loc 2 4592 29 view .LVU1453
.LBB3017:
	.loc 2 4593 5 view .LVU1454
	.loc 2 4593 5 is_stmt 0 view .LVU1455
.LBE3017:
.LBE3016:
.LBE3015:
	.loc 2 5211 8 discriminator 1 view .LVU1456
	ldrb	r3, [r0, #32]	@ zero_extendqisi2
	cmp	r3, #0
	bne	.L367
	.loc 2 5214 5 is_stmt 1 view .LVU1457
.LVL363:
	.loc 2 5215 5 view .LVU1458
	.loc 2 5215 58 is_stmt 0 view .LVU1459
	ldrb	r3, [r7]	@ zero_extendqisi2
	.loc 2 5215 8 view .LVU1460
	sub	r3, r3, #7
	cmp	r3, #2
	bhi	.L368
	.loc 2 5216 9 is_stmt 1 view .LVU1461
	.loc 2 5216 32 is_stmt 0 view .LVU1462
	ldr	fp, [r7, #8]
.LVL364:
.L369:
	.loc 2 5216 32 view .LVU1463
.LBE3014:
.LBE3013:
	.loc 1 4539 17 is_stmt 1 view .LVU1464
.LBB3023:
	.loc 1 4539 22 view .LVU1465
	.loc 1 4539 38 discriminator 1 view .LVU1466
	ldr	r3, [r7, #4]
	cmp	r3, #0
	beq	.L377
.LBB3024:
	.loc 1 4544 35 is_stmt 0 view .LVU1467
	ldr	r10, .L464+36
	.loc 1 4543 36 view .LVU1468
	ldr	r9, .L464+40
	.loc 1 4542 36 view .LVU1469
	ldr	r8, .L464+44
	sub	r6, fp, #1
	b	.L376
.LVL365:
.L461:
	.loc 1 4542 36 is_stmt 1 view .LVU1470
	.loc 1 4545 34 view .LVU1471
	cmp	r0, #10
	bne	.L374
	.loc 1 4542 36 is_stmt 0 view .LVU1472
	mov	r3, r4
	mov	r2, #2
	mov	r1, #1
	mov	r0, r8
.LVL366:
	.loc 1 4542 36 view .LVU1473
	bl	fwrite
.LVL367:
	.loc 1 4542 58 is_stmt 1 discriminator 1 view .LVU1474
.L375:
	.loc 1 4542 58 is_stmt 0 discriminator 1 view .LVU1475
.LBE3024:
	.loc 1 4539 51 is_stmt 1 discriminator 2 view .LVU1476
	.loc 1 4539 38 discriminator 1 view .LVU1477
	ldr	r3, [r7, #4]
	add	r5, r5, #2
	sub	r5, r5, fp
	cmp	r3, r5
	bls	.L377
.LVL368:
.L376:
.LBB3025:
	.loc 1 4540 21 view .LVU1478
	mov	r5, r6
	.loc 1 4540 26 is_stmt 0 view .LVU1479
	ldrb	r0, [r6, #1]!	@ zero_extendqisi2
.LVL369:
	.loc 1 4541 21 is_stmt 1 view .LVU1480
	cmp	r0, #34
	beq	.L372
	cmp	r0, #92
	bne	.L461
	.loc 1 4543 36 view .LVU1481
	mov	r3, r4
	mov	r2, #2
	mov	r1, #1
	mov	r0, r9
.LVL370:
	.loc 1 4543 36 is_stmt 0 view .LVU1482
	bl	fwrite
.LVL371:
	.loc 1 4543 59 is_stmt 1 discriminator 1 view .LVU1483
	.loc 1 4543 59 is_stmt 0 view .LVU1484
	b	.L375
.LVL372:
.L356:
	.loc 1 4543 59 view .LVU1485
.LBE3025:
.LBE3023:
.LBE3012:
	.loc 1 4527 13 is_stmt 1 view .LVU1486
	mov	r0, r3
.LVL373:
	.loc 1 4527 13 is_stmt 0 view .LVU1487
	ldr	r2, [r7, #4]
.LVL374:
	.loc 1 4527 13 view .LVU1488
	ldr	r1, .L464+48
	.loc 1 4584 1 view .LVU1489
	add	sp, sp, #36
	.cfi_remember_state
	.cfi_def_cfa_offset 36
	@ sp needed
	pop	{r4, r5, r6, r7, r8, r9, r10, fp, lr}
	.cfi_restore 14
	.cfi_restore 11
	.cfi_restore 10
	.cfi_restore 9
	.cfi_restore 8
	.cfi_restore 7
	.cfi_restore 6
	.cfi_restore 5
	.cfi_restore 4
	.cfi_def_cfa_offset 0
.LVL375:
	.loc 1 4527 13 view .LVU1490
	b	fprintf
.LVL376:
.L355:
	.cfi_restore_state
	.loc 1 4531 13 is_stmt 1 view .LVU1491
.LBB3029:
.LBI3029:
	.loc 2 5123 22 view .LVU1492
.LBB3030:
	.loc 2 5124 5 view .LVU1493
.LBB3031:
.LBI3031:
	.loc 2 4690 29 view .LVU1494
	.loc 2 4691 5 view .LVU1495
.LBB3032:
.LBI3032:
	.loc 2 4592 29 view .LVU1496
.LBB3033:
	.loc 2 4593 5 view .LVU1497
	.loc 2 4593 16 is_stmt 0 view .LVU1498
	ldr	r3, [sp, #4]
.LVL377:
	.loc 2 4593 16 view .LVU1499
.LBE3033:
.LBE3032:
.LBE3031:
.LBE3030:
.LBE3029:
	.loc 1 4531 13 view .LVU1500
	ldr	r1, .L464+52
.LBB3035:
.LBB3034:
	.loc 2 5124 8 discriminator 1 view .LVU1501
	ldrb	r3, [r3, #32]	@ zero_extendqisi2
	cmp	r3, #0
	.loc 2 5128 5 is_stmt 1 view .LVU1502
	.loc 2 5129 9 view .LVU1503
.LVL378:
	.loc 2 5129 24 is_stmt 0 view .LVU1504
	ldreq	r3, [r0, #8]
	movne	r2, #0
.LVL379:
	.loc 2 5129 24 view .LVU1505
.LBE3034:
.LBE3035:
	.loc 1 4531 13 view .LVU1506
	mov	r0, r4
.LVL380:
	.loc 1 4531 13 view .LVU1507
	ldrsbeq	r2, [r3, #-1]
	ldr	r3, [r7, #4]
	.loc 1 4584 1 view .LVU1508
	add	sp, sp, #36
	.cfi_remember_state
	.cfi_def_cfa_offset 36
	@ sp needed
	pop	{r4, r5, r6, r7, r8, r9, r10, fp, lr}
	.cfi_restore 14
	.cfi_restore 11
	.cfi_restore 10
	.cfi_restore 9
	.cfi_restore 8
	.cfi_restore 7
	.cfi_restore 6
	.cfi_restore 5
	.cfi_restore 4
	.cfi_def_cfa_offset 0
.LVL381:
	.loc 1 4531 13 view .LVU1509
	b	fprintf
.LVL382:
.L354:
	.cfi_restore_state
	.loc 1 4553 13 is_stmt 1 view .LVU1510
	mov	r2, #2
.LVL383:
	.loc 1 4553 13 is_stmt 0 view .LVU1511
	mov	r1, #1
	ldr	r0, .L464+56
.LVL384:
	.loc 1 4553 13 view .LVU1512
	bl	fwrite
.LVL385:
	.loc 1 4554 13 is_stmt 1 view .LVU1513
.LBB3036:
	.loc 1 4554 18 view .LVU1514
	.loc 1 4554 34 discriminator 1 view .LVU1515
	ldr	r3, [r7, #4]
	cmp	r3, #0
	beq	.L378
	.loc 1 4554 25 is_stmt 0 view .LVU1516
	mov	r9, #0
	ldr	r10, [sp, #4]
.LBB3037:
	.loc 1 4556 21 view .LVU1517
	ldr	r8, .L464+4
	.loc 1 4555 46 discriminator 1 view .LVU1518
	add	fp, r5, #1
.LVL386:
.L379:
	.loc 1 4555 38 is_stmt 1 discriminator 1 view .LVU1519
	cmp	fp, #0
	.loc 1 4555 29 is_stmt 0 view .LVU1520
	movne	r6, #0
	.loc 1 4555 38 discriminator 1 view .LVU1521
	beq	.L388
.LVL387:
.L380:
	.loc 1 4556 21 is_stmt 1 view .LVU1522
	mov	r3, r4
	mov	r2, #4
	mov	r1, #1
	mov	r0, r8
	bl	fwrite
.LVL388:
	.loc 1 4555 51 discriminator 3 view .LVU1523
	.loc 1 4555 38 discriminator 1 view .LVU1524
	cmp	r5, r6
	add	r6, r6, #1
.LVL389:
	.loc 1 4555 38 is_stmt 0 discriminator 1 view .LVU1525
	bne	.L380
.LVL390:
.L388:
	.loc 1 4555 38 discriminator 1 view .LVU1526
.LBE3037:
	.loc 1 4557 17 is_stmt 1 view .LVU1527
.LBB3038:
.LBI3038:
	.loc 2 5432 28 view .LVU1528
.LBB3039:
	.loc 2 5433 5 view .LVU1529
.LBB3040:
.LBI3040:
	.loc 2 4690 29 view .LVU1530
	.loc 2 4691 5 view .LVU1531
.LBB3041:
.LBI3041:
	.loc 2 4592 29 view .LVU1532
.LBB3042:
	.loc 2 4593 5 view .LVU1533
	.loc 2 4593 5 is_stmt 0 view .LVU1534
.LBE3042:
.LBE3041:
.LBE3040:
	.loc 2 5433 8 discriminator 1 view .LVU1535
	ldrb	r3, [r10, #32]	@ zero_extendqisi2
	cmp	r3, #0
	bne	.L386
	.loc 2 5436 5 is_stmt 1 view .LVU1536
	.loc 2 5436 8 is_stmt 0 view .LVU1537
	ldrb	r3, [r7]	@ zero_extendqisi2
	cmp	r3, #10
	bne	.L462
	.loc 2 5441 5 is_stmt 1 view .LVU1538
	.loc 2 5441 8 is_stmt 0 view .LVU1539
	ldr	r3, [r7, #4]
	cmp	r9, r3
	bcs	.L463
	.loc 2 5446 5 is_stmt 1 view .LVU1540
.LVL391:
.LBB3043:
.LBI3043:
	.loc 2 4521 34 view .LVU1541
.LBB3044:
	.loc 2 4522 5 view .LVU1542
	.loc 2 4522 38 is_stmt 0 view .LVU1543
	ldr	r3, [r7, #8]
	add	r3, r3, r9, lsl #4
.LVL392:
	.loc 2 4522 38 view .LVU1544
.LBE3044:
.LBE3043:
.LBB3045:
.LBI3045:
	.loc 2 4514 28 is_stmt 1 view .LVU1545
.LBB3046:
	.loc 2 4515 5 view .LVU1546
	.loc 2 4516 5 view .LVU1547
	.loc 2 4517 5 view .LVU1548
	.loc 2 4518 5 view .LVU1549
.L382:
	.loc 2 4518 5 is_stmt 0 view .LVU1550
.LBE3046:
.LBE3045:
.LBB3047:
.LBB3048:
.LBB3049:
.LBB3050:
	.loc 2 4518 12 view .LVU1551
	str	r3, [sp, #8]
	str	r10, [sp, #12]
.LVL393:
	.loc 2 4518 12 view .LVU1552
.LBE3050:
.LBE3049:
.LBE3048:
.LBE3047:
.LBE3039:
.LBE3038:
	.loc 1 4557 17 discriminator 1 view .LVU1553
	add	r1, sp, #8
	mov	r3, r4
	ldm	r1, {r0, r1}
	mov	r2, fp
	bl	mpack_node_print_element
.LVL394:
	.loc 1 4558 17 is_stmt 1 view .LVU1554
	.loc 1 4558 36 is_stmt 0 view .LVU1555
	ldr	r3, [r7, #4]
	sub	r3, r3, #1
	.loc 1 4558 20 view .LVU1556
	cmp	r3, r9
	beq	.L387
	.loc 1 4559 21 is_stmt 1 view .LVU1557
	mov	r1, r4
	mov	r0, #44
	bl	putc
.LVL395:
.L387:
	.loc 1 4560 17 view .LVU1558
	mov	r1, r4
	mov	r0, #10
	bl	putc
.LVL396:
	.loc 1 4554 47 discriminator 2 view .LVU1559
	.loc 1 4554 34 is_stmt 0 discriminator 1 view .LVU1560
	ldr	r3, [r7, #4]
	.loc 1 4554 47 discriminator 2 view .LVU1561
	add	r9, r9, #1
.LVL397:
	.loc 1 4554 34 is_stmt 1 discriminator 1 view .LVU1562
	cmp	r3, r9
	bhi	.L379
.LVL398:
.L378:
	.loc 1 4554 34 is_stmt 0 discriminator 1 view .LVU1563
.LBE3036:
.LBB3069:
	.loc 1 4562 34 is_stmt 1 discriminator 1 view .LVU1564
	cmp	r5, #0
	.loc 1 4562 25 is_stmt 0 view .LVU1565
	movne	r6, #0
	.loc 1 4563 17 view .LVU1566
	ldrne	r7, .L464+4
.LVL399:
	.loc 1 4562 34 discriminator 1 view .LVU1567
	beq	.L390
.LVL400:
.L389:
	.loc 1 4563 17 is_stmt 1 view .LVU1568
	mov	r3, r4
	mov	r2, #4
	mov	r1, #1
	mov	r0, r7
	.loc 1 4562 43 is_stmt 0 discriminator 3 view .LVU1569
	add	r6, r6, #1
.LVL401:
	.loc 1 4563 17 view .LVU1570
	bl	fwrite
.LVL402:
	.loc 1 4562 43 is_stmt 1 discriminator 3 view .LVU1571
	.loc 1 4562 34 discriminator 1 view .LVU1572
	cmp	r5, r6
	bne	.L389
.LVL403:
.L390:
	.loc 1 4562 34 is_stmt 0 discriminator 1 view .LVU1573
.LBE3069:
	.loc 1 4564 13 is_stmt 1 view .LVU1574
	mov	r1, r4
	mov	r0, #93
.LVL404:
.L453:
	.loc 1 4584 1 is_stmt 0 view .LVU1575
	add	sp, sp, #36
	.cfi_remember_state
	.cfi_def_cfa_offset 36
	@ sp needed
	pop	{r4, r5, r6, r7, r8, r9, r10, fp, lr}
	.cfi_restore 14
	.cfi_restore 11
	.cfi_restore 10
	.cfi_restore 9
	.cfi_restore 8
	.cfi_restore 7
	.cfi_restore 6
	.cfi_restore 5
	.cfi_restore 4
	.cfi_def_cfa_offset 0
	.loc 1 4581 13 view .LVU1576
	b	putc
.LVL405:
.L462:
	.cfi_restore_state
.LBB3070:
.LBB3067:
.LBB3065:
	.loc 2 5437 9 is_stmt 1 view .LVU1577
.LBB3051:
.LBI3051:
	.loc 1 4461 6 view .LVU1578
	.loc 1 4462 5 view .LVU1579
.LBB3052:
.LBI3052:
	.loc 1 4445 6 view .LVU1580
	.loc 1 4446 5 view .LVU1581
.LBB3053:
.LBI3053:
	.loc 1 4445 6 view .LVU1582
.LBB3054:
	.loc 1 4447 9 view .LVU1583
	.loc 1 4448 9 view .LVU1584
	.loc 1 4448 21 is_stmt 0 view .LVU1585
	mov	r1, #4
	.loc 1 4449 17 view .LVU1586
	ldr	r3, [r10]
	.loc 1 4448 21 view .LVU1587
	strb	r1, [r10, #32]
	.loc 1 4449 9 is_stmt 1 view .LVU1588
	.loc 1 4449 12 is_stmt 0 view .LVU1589
	cmp	r3, #0
	beq	.L386
.LVL406:
.L454:
	.loc 1 4449 12 view .LVU1590
.LBE3054:
.LBE3053:
.LBE3052:
.LBE3051:
.LBB3055:
.LBB3056:
.LBB3057:
.LBB3058:
	.loc 1 4450 13 is_stmt 1 view .LVU1591
	mov	r0, r10
	blx	r3
.LVL407:
.L386:
	.loc 1 4450 13 is_stmt 0 view .LVU1592
.LBE3058:
.LBE3057:
.LBE3056:
.LBE3055:
	.loc 2 5443 9 is_stmt 1 view .LVU1593
.LBB3062:
.LBI3062:
	.loc 2 4525 28 view .LVU1594
.LBB3063:
	.loc 2 4526 5 view .LVU1595
	.loc 2 4526 12 is_stmt 0 view .LVU1596
	add	r3, r10, #16
.LVL408:
	.loc 2 4526 12 view .LVU1597
.LBE3063:
.LBE3062:
	.loc 2 5443 16 view .LVU1598
	b	.L382
.LVL409:
.L459:
	.loc 2 5443 16 view .LVU1599
.LBE3065:
.LBE3067:
.LBE3070:
.LBB3071:
.LBB3007:
.LBB3005:
.LBB3003:
	.loc 2 5471 9 is_stmt 1 view .LVU1600
.LBB2989:
.LBI2989:
	.loc 1 4461 6 view .LVU1601
	.loc 1 4462 5 view .LVU1602
.LBB2990:
.LBI2990:
	.loc 1 4445 6 view .LVU1603
	.loc 1 4446 5 view .LVU1604
.LBB2991:
.LBI2991:
	.loc 1 4445 6 view .LVU1605
.LBB2992:
	.loc 1 4447 9 view .LVU1606
	.loc 1 4448 9 view .LVU1607
	.loc 1 4448 21 is_stmt 0 view .LVU1608
	mov	r1, #4
	.loc 1 4449 17 view .LVU1609
	ldr	r3, [r9]
	.loc 1 4448 21 view .LVU1610
	strb	r1, [r9, #32]
	.loc 1 4449 9 is_stmt 1 view .LVU1611
	.loc 1 4449 12 is_stmt 0 view .LVU1612
	cmp	r3, #0
	beq	.L405
.LVL410:
.L456:
	.loc 1 4449 12 view .LVU1613
.LBE2992:
.LBE2991:
.LBE2990:
.LBE2989:
.LBB2993:
.LBB2994:
.LBB2995:
.LBB2996:
	.loc 1 4450 13 is_stmt 1 view .LVU1614
	mov	r0, r9
	blx	r3
.LVL411:
.L405:
	.loc 1 4450 13 is_stmt 0 view .LVU1615
.LBE2996:
.LBE2995:
.LBE2994:
.LBE2993:
	.loc 2 5477 9 is_stmt 1 view .LVU1616
.LBB3000:
.LBI3000:
	.loc 2 4525 28 view .LVU1617
.LBB3001:
	.loc 2 4526 5 view .LVU1618
	.loc 2 4526 12 is_stmt 0 view .LVU1619
	add	r3, r9, #16
.LVL412:
	.loc 2 4526 12 view .LVU1620
.LBE3001:
.LBE3000:
	.loc 2 5477 16 view .LVU1621
	b	.L401
.LVL413:
.L457:
	.loc 2 5477 16 view .LVU1622
.LBE3003:
.LBE3005:
.LBE3007:
.LBB3008:
.LBB2973:
.LBB2971:
	.loc 2 5471 9 is_stmt 1 view .LVU1623
.LBB2957:
.LBI2957:
	.loc 1 4461 6 view .LVU1624
	.loc 1 4462 5 view .LVU1625
.LBB2958:
.LBI2958:
	.loc 1 4445 6 view .LVU1626
	.loc 1 4446 5 view .LVU1627
.LBB2959:
.LBI2959:
	.loc 1 4445 6 view .LVU1628
.LBB2960:
	.loc 1 4447 9 view .LVU1629
	.loc 1 4448 9 view .LVU1630
	.loc 1 4448 21 is_stmt 0 view .LVU1631
	mov	r1, #4
	.loc 1 4449 17 view .LVU1632
	ldr	r3, [r9]
	.loc 1 4448 21 view .LVU1633
	strb	r1, [r9, #32]
	.loc 1 4449 9 is_stmt 1 view .LVU1634
	.loc 1 4449 12 is_stmt 0 view .LVU1635
	cmp	r3, #0
	beq	.L399
.LVL414:
.L455:
	.loc 1 4449 12 view .LVU1636
.LBE2960:
.LBE2959:
.LBE2958:
.LBE2957:
.LBB2961:
.LBB2962:
.LBB2963:
.LBB2964:
	.loc 1 4450 13 is_stmt 1 view .LVU1637
	mov	r0, r9
	blx	r3
.LVL415:
.L399:
	.loc 1 4450 13 is_stmt 0 view .LVU1638
.LBE2964:
.LBE2963:
.LBE2962:
.LBE2961:
	.loc 2 5477 9 is_stmt 1 view .LVU1639
.LBB2968:
.LBI2968:
	.loc 2 4525 28 view .LVU1640
.LBB2969:
	.loc 2 4526 5 view .LVU1641
	.loc 2 4526 12 is_stmt 0 view .LVU1642
	add	r3, r9, #16
.LVL416:
	.loc 2 4526 12 view .LVU1643
.LBE2969:
.LBE2968:
	.loc 2 5477 16 view .LVU1644
	b	.L395
.LVL417:
.L368:
	.loc 2 5477 16 view .LVU1645
.LBE2971:
.LBE2973:
.LBE3008:
.LBE3071:
.LBB3072:
.LBB3027:
.LBB3022:
	.loc 2 5218 5 is_stmt 1 view .LVU1646
.LBB3018:
.LBI3018:
	.loc 1 4461 6 view .LVU1647
	.loc 1 4462 5 view .LVU1648
.LBB3019:
.LBI3019:
	.loc 1 4445 6 view .LVU1649
	.loc 1 4446 5 view .LVU1650
.LBB3020:
.LBI3020:
	.loc 1 4445 6 view .LVU1651
.LBB3021:
	.loc 1 4447 9 view .LVU1652
	.loc 1 4448 9 view .LVU1653
	.loc 1 4448 21 is_stmt 0 view .LVU1654
	mov	r1, #4
	.loc 1 4449 17 view .LVU1655
	ldr	r3, [r0]
	.loc 1 4448 21 view .LVU1656
	strb	r1, [r0, #32]
.LVL418:
	.loc 1 4449 9 is_stmt 1 view .LVU1657
	.loc 1 4449 12 is_stmt 0 view .LVU1658
	cmp	r3, #0
	beq	.L367
	.loc 1 4450 13 is_stmt 1 view .LVU1659
	blx	r3
.LVL419:
.L367:
	.loc 1 4450 13 is_stmt 0 view .LVU1660
.LBE3021:
.LBE3020:
.LBE3019:
.LBE3018:
	.loc 2 5212 15 view .LVU1661
	mov	fp, #0
	b	.L369
.LVL420:
.L372:
	.loc 2 5212 15 view .LVU1662
.LBE3022:
.LBE3027:
.LBB3028:
.LBB3026:
	.loc 1 4544 35 is_stmt 1 view .LVU1663
	mov	r3, r4
	mov	r2, #2
	mov	r1, #1
	mov	r0, r10
.LVL421:
	.loc 1 4544 35 is_stmt 0 view .LVU1664
	bl	fwrite
.LVL422:
	.loc 1 4544 58 is_stmt 1 discriminator 1 view .LVU1665
	.loc 1 4544 58 is_stmt 0 view .LVU1666
	b	.L375
.LVL423:
.L374:
	.loc 1 4545 34 view .LVU1667
	mov	r1, r4
	bl	putc
.LVL424:
	.loc 1 4545 49 is_stmt 1 discriminator 1 view .LVU1668
	.loc 1 4545 49 is_stmt 0 view .LVU1669
	b	.L375
.LVL425:
.L377:
	.loc 1 4545 49 view .LVU1670
.LBE3026:
.LBE3028:
	.loc 1 4548 17 is_stmt 1 view .LVU1671
	mov	r1, r4
	mov	r0, #34
	b	.L453
.LVL426:
.L463:
	.loc 1 4548 17 is_stmt 0 view .LVU1672
.LBE3072:
.LBB3073:
.LBB3068:
.LBB3066:
	.loc 2 5442 9 is_stmt 1 view .LVU1673
.LBB3064:
.LBI3055:
	.loc 1 4461 6 view .LVU1674
	.loc 1 4462 5 view .LVU1675
.LBB3061:
.LBI3056:
	.loc 1 4445 6 view .LVU1676
	.loc 1 4446 5 view .LVU1677
.LBB3060:
.LBI3057:
	.loc 1 4445 6 view .LVU1678
.LBB3059:
	.loc 1 4447 9 view .LVU1679
	.loc 1 4448 9 view .LVU1680
	.loc 1 4448 21 is_stmt 0 view .LVU1681
	mov	r1, #8
	.loc 1 4449 17 view .LVU1682
	ldr	r3, [r10]
	.loc 1 4448 21 view .LVU1683
	strb	r1, [r10, #32]
	.loc 1 4449 9 is_stmt 1 view .LVU1684
	.loc 1 4449 12 is_stmt 0 view .LVU1685
	cmp	r3, #0
	bne	.L454
	b	.L386
.LVL427:
.L460:
	.loc 1 4449 12 view .LVU1686
.LBE3059:
.LBE3060:
.LBE3061:
.LBE3064:
.LBE3066:
.LBE3068:
.LBE3073:
.LBB3074:
.LBB3009:
.LBB3006:
.LBB3004:
	.loc 2 5476 9 is_stmt 1 view .LVU1687
.LBB3002:
.LBI2993:
	.loc 1 4461 6 view .LVU1688
	.loc 1 4462 5 view .LVU1689
.LBB2999:
.LBI2994:
	.loc 1 4445 6 view .LVU1690
	.loc 1 4446 5 view .LVU1691
.LBB2998:
.LBI2995:
	.loc 1 4445 6 view .LVU1692
.LBB2997:
	.loc 1 4447 9 view .LVU1693
	.loc 1 4448 9 view .LVU1694
	.loc 1 4448 21 is_stmt 0 view .LVU1695
	mov	r1, #8
	.loc 1 4449 17 view .LVU1696
	ldr	r3, [r9]
	.loc 1 4448 21 view .LVU1697
	strb	r1, [r9, #32]
	.loc 1 4449 9 is_stmt 1 view .LVU1698
	.loc 1 4449 12 is_stmt 0 view .LVU1699
	cmp	r3, #0
	bne	.L456
	b	.L405
.LVL428:
.L458:
	.loc 1 4449 12 view .LVU1700
.LBE2997:
.LBE2998:
.LBE2999:
.LBE3002:
.LBE3004:
.LBE3006:
.LBE3009:
.LBB3010:
.LBB2974:
.LBB2972:
	.loc 2 5476 9 is_stmt 1 view .LVU1701
.LBB2970:
.LBI2961:
	.loc 1 4461 6 view .LVU1702
	.loc 1 4462 5 view .LVU1703
.LBB2967:
.LBI2962:
	.loc 1 4445 6 view .LVU1704
	.loc 1 4446 5 view .LVU1705
.LBB2966:
.LBI2963:
	.loc 1 4445 6 view .LVU1706
.LBB2965:
	.loc 1 4447 9 view .LVU1707
	.loc 1 4448 9 view .LVU1708
	.loc 1 4448 21 is_stmt 0 view .LVU1709
	mov	r1, #8
	.loc 1 4449 17 view .LVU1710
	ldr	r3, [r9]
	.loc 1 4448 21 view .LVU1711
	strb	r1, [r9, #32]
	.loc 1 4449 9 is_stmt 1 view .LVU1712
	.loc 1 4449 12 is_stmt 0 view .LVU1713
	cmp	r3, #0
	bne	.L455
	b	.L399
.LVL429:
.L350:
	.loc 1 4449 12 view .LVU1714
.LBE2965:
.LBE2966:
.LBE2967:
.LBE2970:
.LBE2972:
.LBE2974:
.LBE3010:
.LBE3074:
	.loc 1 4584 1 view .LVU1715
	add	sp, sp, #36
	.cfi_def_cfa_offset 36
	@ sp needed
	pop	{r4, r5, r6, r7, r8, r9, r10, fp, pc}
.L465:
	.align	2
.L464:
	.word	.LC13
	.word	.LC12
	.word	.LC14
	.word	.LC2
	.word	.LC1
	.word	.LC0
	.word	.LC3
	.word	.LC4
	.word	.LC5
	.word	.LC10
	.word	.LC9
	.word	.LC8
	.word	.LC6
	.word	.LC7
	.word	.LC11
	.cfi_endproc
.LFE354:
	.size	mpack_node_print_element, .-mpack_node_print_element
	.section	.text.mpack_tree_parse.part.0.constprop.0,"ax",%progbits
	.align	2
	.syntax unified
	.arm
	.type	mpack_tree_parse.part.0.constprop.0, %function
mpack_tree_parse.part.0.constprop.0:
.LVL430:
.LFB453:
	.loc 1 4191 13 is_stmt 1 view -0
	.cfi_startproc
	@ args = 4, pretend = 0, frame = 104
	@ frame_needed = 0, uses_anonymous_args = 0
	.loc 1 4205 5 view .LVU1717
	.loc 1 4191 13 is_stmt 0 view .LVU1718
	push	{r4, r5, r6, r7, lr}
	.cfi_def_cfa_offset 20
	.cfi_offset 4, -20
	.cfi_offset 5, -16
	.cfi_offset 6, -12
	.cfi_offset 7, -8
	.cfi_offset 14, -4
	sub	sp, sp, #108
	.cfi_def_cfa_offset 128
	.loc 1 4191 13 view .LVU1719
	ldr	ip, [sp, #128]
	mov	r5, r0
	.loc 1 4213 45 view .LVU1720
	sub	ip, ip, #1
	.loc 1 4213 23 view .LVU1721
	str	ip, [sp, #20]
	.loc 1 4209 5 view .LVU1722
	mov	ip, #0
	.loc 1 4229 18 view .LVU1723
	mov	lr, #8
	.loc 1 4191 13 view .LVU1724
	mov	r4, r2
	mov	r0, ip
.LVL431:
	.loc 1 4209 5 view .LVU1725
	str	ip, [sp, #36]
	str	ip, [sp, #24]
	.loc 1 4236 22 view .LVU1726
	mov	ip, #1
	.loc 1 4191 13 view .LVU1727
	mov	r6, r3
	.loc 1 4229 18 view .LVU1728
	str	lr, [sp, #28]
	.loc 1 4230 18 view .LVU1729
	add	r2, sp, #40
.LVL432:
	.loc 1 4212 34 view .LVU1730
	add	lr, r3, #16
	.loc 1 4238 27 view .LVU1731
	str	r3, [sp, #40]
	.loc 1 4205 16 view .LVU1732
	str	r3, [r5, #44]
	.loc 1 4208 5 is_stmt 1 view .LVU1733
	.loc 1 4209 5 view .LVU1734
	.loc 1 4210 5 view .LVU1735
	.loc 1 4235 5 is_stmt 0 view .LVU1736
	sub	r3, r4, #1
.LVL433:
	.loc 1 4230 18 view .LVU1737
	str	r2, [sp, #32]
	.loc 1 4210 17 view .LVU1738
	str	r5, [sp, #4]
	.loc 1 4211 5 is_stmt 1 view .LVU1739
	.loc 1 4212 5 view .LVU1740
	.loc 1 4236 22 is_stmt 0 view .LVU1741
	str	ip, [r5, #36]
	.loc 1 4239 26 view .LVU1742
	str	ip, [sp, #44]
	.loc 1 4212 18 view .LVU1743
	str	lr, [sp, #16]
	.loc 1 4213 5 is_stmt 1 view .LVU1744
	.loc 1 4224 5 view .LVU1745
	.loc 1 4228 5 view .LVU1746
	.loc 1 4229 5 view .LVU1747
	.loc 1 4230 5 view .LVU1748
	.loc 1 4231 5 view .LVU1749
	.loc 1 4235 5 view .LVU1750
	str	r3, [sp, #12]
	.loc 1 4236 5 view .LVU1751
	.loc 1 4237 5 view .LVU1752
	.loc 1 4238 5 view .LVU1753
	.loc 1 4239 5 view .LVU1754
	.loc 1 4241 5 view .LVU1755
.LVL434:
.LBB3527:
.LBI3527:
	.loc 1 4162 13 view .LVU1756
.L652:
.LBB3528:
	.loc 1 4163 5 view .LVU1757
	.loc 1 4167 5 view .LVU1758
.LBB3529:
	.loc 1 4168 9 view .LVU1759
	.loc 1 4168 48 is_stmt 0 view .LVU1760
	add	r3, r2, r0
.LVL435:
	.loc 1 4169 9 is_stmt 1 view .LVU1761
	sub	ip, ip, #1
	str	ip, [r3, #4]
	.loc 1 4170 9 view .LVU1762
.LBB3530:
.LBB3531:
.LBB3532:
.LBB3533:
	.loc 2 1096 12 is_stmt 0 view .LVU1763
	mov	r3, r1
.LVL436:
	.loc 2 1096 12 view .LVU1764
.LBE3533:
.LBE3532:
.LBE3531:
.LBE3530:
	.loc 1 4170 9 view .LVU1765
	str	lr, [r2, r0]
.LVL437:
	.loc 1 4172 9 is_stmt 1 view .LVU1766
.LBB3869:
.LBI3530:
	.loc 1 3827 13 view .LVU1767
.LBB3853:
	.loc 1 3832 5 view .LVU1768
.LBB3535:
.LBI3532:
	.loc 2 1095 23 view .LVU1769
.LBB3534:
	.loc 2 1096 5 view .LVU1770
	.loc 2 1096 12 is_stmt 0 view .LVU1771
	ldrb	r0, [r3], #1	@ zero_extendqisi2
.LVL438:
	.loc 2 1096 12 view .LVU1772
.LBE3534:
.LBE3535:
	.loc 1 3833 5 is_stmt 1 view .LVU1773
	.loc 1 3882 5 is_stmt 0 view .LVU1774
	sub	r2, r0, #128
	.loc 1 3833 18 view .LVU1775
	str	r3, [sp, #8]
	.loc 1 3882 5 is_stmt 1 view .LVU1776
	cmp	r2, #127
	ldrls	pc, [pc, r2, asl #2]
	b	.L467
.L469:
	.word	.L503
	.word	.L503
	.word	.L503
	.word	.L503
	.word	.L503
	.word	.L503
	.word	.L503
	.word	.L503
	.word	.L503
	.word	.L503
	.word	.L503
	.word	.L503
	.word	.L503
	.word	.L503
	.word	.L503
	.word	.L503
	.word	.L502
	.word	.L502
	.word	.L502
	.word	.L502
	.word	.L502
	.word	.L502
	.word	.L502
	.word	.L502
	.word	.L502
	.word	.L502
	.word	.L502
	.word	.L502
	.word	.L502
	.word	.L502
	.word	.L502
	.word	.L502
	.word	.L501
	.word	.L501
	.word	.L501
	.word	.L501
	.word	.L501
	.word	.L501
	.word	.L501
	.word	.L501
	.word	.L501
	.word	.L501
	.word	.L501
	.word	.L501
	.word	.L501
	.word	.L501
	.word	.L501
	.word	.L501
	.word	.L501
	.word	.L501
	.word	.L501
	.word	.L501
	.word	.L501
	.word	.L501
	.word	.L501
	.word	.L501
	.word	.L501
	.word	.L501
	.word	.L501
	.word	.L501
	.word	.L501
	.word	.L501
	.word	.L501
	.word	.L501
	.word	.L500
	.word	.L499
	.word	.L498
	.word	.L498
	.word	.L497
	.word	.L496
	.word	.L495
	.word	.L494
	.word	.L493
	.word	.L492
	.word	.L491
	.word	.L490
	.word	.L489
	.word	.L488
	.word	.L487
	.word	.L486
	.word	.L485
	.word	.L484
	.word	.L483
	.word	.L482
	.word	.L481
	.word	.L480
	.word	.L479
	.word	.L478
	.word	.L477
	.word	.L476
	.word	.L475
	.word	.L474
	.word	.L473
	.word	.L472
	.word	.L471
	.word	.L470
	.word	.L468
	.word	.L468
	.word	.L468
	.word	.L468
	.word	.L468
	.word	.L468
	.word	.L468
	.word	.L468
	.word	.L468
	.word	.L468
	.word	.L468
	.word	.L468
	.word	.L468
	.word	.L468
	.word	.L468
	.word	.L468
	.word	.L468
	.word	.L468
	.word	.L468
	.word	.L468
	.word	.L468
	.word	.L468
	.word	.L468
	.word	.L468
	.word	.L468
	.word	.L468
	.word	.L468
	.word	.L468
	.word	.L468
	.word	.L468
	.word	.L468
	.word	.L468
.L468:
	.loc 1 3911 13 view .LVU1777
	.loc 1 3912 29 is_stmt 0 view .LVU1778
	ands	r3, r0, #128
	mvnne	r3, #0
	.loc 1 3911 24 view .LVU1779
	mov	r2, #5
	.loc 1 3912 29 view .LVU1780
	sxtb	r0, r0
	.loc 1 3912 29 view .LVU1781
	ldr	r7, [sp, #4]
	str	r0, [r6, #8]
	.loc 1 3911 24 view .LVU1782
	strb	r2, [r6]
	.loc 1 3912 13 is_stmt 1 view .LVU1783
	.loc 1 3912 29 is_stmt 0 view .LVU1784
	str	r3, [r6, #12]
	.loc 1 3913 13 is_stmt 1 view .LVU1785
.LVL439:
.L504:
	.loc 1 3913 13 is_stmt 0 view .LVU1786
.LBE3853:
.LBE3869:
	.loc 1 4174 9 is_stmt 1 view .LVU1787
.LBB3870:
.LBI3870:
	.loc 2 4592 29 view .LVU1788
.LBB3871:
	.loc 2 4593 5 view .LVU1789
	.loc 2 4593 5 is_stmt 0 view .LVU1790
.LBE3871:
.LBE3870:
	.loc 1 4174 12 discriminator 1 view .LVU1791
	ldrb	r3, [r7, #32]	@ zero_extendqisi2
	cmp	r3, #0
	bne	.L650
	.loc 1 4183 50 is_stmt 1 view .LVU1792
	.loc 1 4183 36 is_stmt 0 view .LVU1793
	ldr	r3, [sp, #24]
	.loc 1 4183 22 view .LVU1794
	ldr	r2, [sp, #32]
	.loc 1 4183 29 view .LVU1795
	lsl	r0, r3, #3
	add	lr, r2, r3, lsl #3
	.loc 1 4183 44 view .LVU1796
	ldr	ip, [lr, #4]
	.loc 1 4183 50 view .LVU1797
	cmp	ip, #0
	bne	.L649
	sub	lr, r3, #1
	add	lr, r2, lr, lsl #3
	b	.L651
.L833:
	.loc 1 4183 44 view .LVU1798
	ldr	ip, [r1, #12]
	.loc 1 4186 13 view .LVU1799
	sub	r3, r3, #1
	.loc 1 4183 50 is_stmt 1 view .LVU1800
	cmp	ip, #0
	bne	.L832
	mov	lr, r1
.L651:
	.loc 1 4184 13 view .LVU1801
	.loc 1 4186 13 view .LVU1802
	.loc 1 4184 16 is_stmt 0 view .LVU1803
	cmp	r3, #0
	.loc 1 4183 50 view .LVU1804
	sub	r1, lr, #8
	.loc 1 4184 16 view .LVU1805
	bne	.L833
.L650:
.LVL440:
	.loc 1 4184 16 view .LVU1806
.LBE3529:
.LBE3528:
.LBE3527:
	.loc 1 4244 5 is_stmt 1 view .LVU1807
	.loc 1 4244 8 is_stmt 0 view .LVU1808
	ldrb	r3, [sp, #36]	@ zero_extendqisi2
	cmp	r3, #0
	bne	.L834
.L653:
	.loc 1 4250 5 is_stmt 1 view .LVU1809
.LVL441:
.LBB3903:
.LBI3903:
	.loc 2 4592 29 view .LVU1810
.LBB3904:
	.loc 2 4593 5 view .LVU1811
	.loc 2 4593 5 is_stmt 0 view .LVU1812
.LBE3904:
.LBE3903:
	.loc 1 4250 8 discriminator 1 view .LVU1813
	ldrb	r3, [r5, #32]	@ zero_extendqisi2
	cmp	r3, #0
	.loc 1 4251 9 is_stmt 1 view .LVU1814
	.loc 1 4251 29 is_stmt 0 view .LVU1815
	ldreq	r3, [sp, #12]
	subeq	r4, r4, r3
.LVL442:
	.loc 1 4251 20 view .LVU1816
	streq	r4, [r5, #40]
	.loc 1 4252 5 is_stmt 1 view .LVU1817
	.loc 1 4253 5 view .LVU1818
	.loc 1 4254 1 is_stmt 0 view .LVU1819
	add	sp, sp, #108
	.cfi_remember_state
	.cfi_def_cfa_offset 20
	@ sp needed
	pop	{r4, r5, r6, r7, pc}
.LVL443:
.L501:
	.cfi_restore_state
.LBB3905:
.LBB3895:
.LBB3887:
.LBB3872:
.LBB3854:
	.loc 1 3936 13 is_stmt 1 view .LVU1820
	.loc 1 3936 24 is_stmt 0 view .LVU1821
	mov	r3, #7
	.loc 1 3937 30 view .LVU1822
	bic	r0, r0, #224
.LVL444:
	.loc 1 3937 23 view .LVU1823
	str	r0, [r6, #4]
	.loc 1 3938 13 view .LVU1824
	mov	r1, r6
	add	r0, sp, #4
.LVL445:
	.loc 1 3936 24 view .LVU1825
	strb	r3, [r6]
	.loc 1 3937 13 is_stmt 1 view .LVU1826
	.loc 1 3938 13 view .LVU1827
	bl	mpack_tree_parse_bytes
.LVL446:
	.loc 1 3939 13 view .LVU1828
.LBE3854:
.LBE3872:
	.loc 1 4174 13 is_stmt 0 view .LVU1829
	ldr	r7, [sp, #4]
.LBB3873:
.LBB3855:
	.loc 1 3939 13 view .LVU1830
	b	.L504
.LVL447:
.L503:
	.loc 1 3918 13 is_stmt 1 view .LVU1831
	.loc 1 3918 24 is_stmt 0 view .LVU1832
	mov	r3, #11
.L760:
	.loc 1 3927 30 view .LVU1833
	bic	r0, r0, #240
.LVL448:
	.loc 1 3927 23 view .LVU1834
	str	r0, [r6, #4]
	.loc 1 3928 13 view .LVU1835
	mov	r1, r6
	add	r0, sp, #4
.LVL449:
	.loc 1 3926 24 view .LVU1836
	strb	r3, [r6]
	.loc 1 3927 13 is_stmt 1 view .LVU1837
	.loc 1 3928 13 view .LVU1838
	bl	mpack_tree_parse_children
.LVL450:
	.loc 1 3929 13 view .LVU1839
.LBE3855:
.LBE3873:
	.loc 1 4174 13 is_stmt 0 view .LVU1840
	ldr	r7, [sp, #4]
.LBB3874:
.LBB3856:
	.loc 1 3929 13 view .LVU1841
	b	.L504
.LVL451:
.L502:
	.loc 1 3926 13 is_stmt 1 view .LVU1842
	.loc 1 3926 24 is_stmt 0 view .LVU1843
	mov	r3, #10
	b	.L760
.L498:
	.loc 1 3949 13 is_stmt 1 view .LVU1844
	.loc 1 3949 24 is_stmt 0 view .LVU1845
	mov	r3, #2
	.loc 1 3950 34 view .LVU1846
	and	r0, r0, #1
.LVL452:
	.loc 1 3950 34 view .LVU1847
	ldr	r7, [sp, #4]
	strb	r0, [r6, #8]
	.loc 1 3949 24 view .LVU1848
	strb	r3, [r6]
	.loc 1 3950 13 is_stmt 1 view .LVU1849
	.loc 1 3951 13 view .LVU1850
	b	.L504
.LVL453:
.L488:
	.loc 1 4018 13 view .LVU1851
	.loc 1 4018 24 is_stmt 0 view .LVU1852
	mov	r2, #6
.LBB3536:
.LBB3537:
	.loc 1 3622 15 view .LVU1853
	ldr	r3, [sp, #12]
	ldr	r7, [sp, #4]
	.loc 1 3622 8 view .LVU1854
	cmp	r3, #1
.LBE3537:
.LBE3536:
	.loc 1 4018 24 view .LVU1855
	strb	r2, [r6]
	.loc 1 4019 13 is_stmt 1 view .LVU1856
.LVL454:
.LBB3540:
.LBI3536:
	.loc 1 3621 24 view .LVU1857
.LBB3538:
	.loc 1 3622 5 view .LVU1858
	.loc 1 3622 8 is_stmt 0 view .LVU1859
	bls	.L804
	.loc 1 3626 5 is_stmt 1 view .LVU1860
.LVL455:
	.loc 1 3626 5 is_stmt 0 view .LVU1861
.LBE3538:
.LBE3540:
	.loc 1 4019 29 discriminator 1 view .LVU1862
	mov	r2, #0
.LBB3541:
.LBB3539:
	.loc 1 3628 33 view .LVU1863
	sub	r3, r3, #2
	str	r3, [sp, #12]
	ldrh	r3, [r1, #1]	@ unaligned
	.loc 1 3627 18 view .LVU1864
	add	r1, r1, #3
	rev16	r3, r3
.LVL456:
	.loc 1 3627 5 is_stmt 1 view .LVU1865
	.loc 1 3628 5 view .LVU1866
	.loc 1 3629 5 view .LVU1867
	.loc 1 3627 18 is_stmt 0 view .LVU1868
	str	r1, [sp, #8]
.LBE3539:
.LBE3541:
	.loc 1 4019 29 discriminator 1 view .LVU1869
	uxth	r3, r3
.LVL457:
.L591:
	.loc 1 4055 27 discriminator 1 view .LVU1870
	str	r3, [r6, #8]
	str	r2, [r6, #12]
	.loc 1 4056 13 is_stmt 1 view .LVU1871
	b	.L504
.LVL458:
.L487:
	.loc 1 4024 13 view .LVU1872
	.loc 1 4024 24 is_stmt 0 view .LVU1873
	mov	r2, #6
.LBB3542:
.LBB3543:
	.loc 1 3633 15 view .LVU1874
	ldr	r3, [sp, #12]
	ldr	r7, [sp, #4]
	.loc 1 3633 8 view .LVU1875
	cmp	r3, #3
.LBE3543:
.LBE3542:
	.loc 1 4024 24 view .LVU1876
	strb	r2, [r6]
	.loc 1 4025 13 is_stmt 1 view .LVU1877
.LVL459:
.LBB3547:
.LBI3542:
	.loc 1 3632 24 view .LVU1878
.LBB3544:
	.loc 1 3633 5 view .LVU1879
	.loc 1 3633 8 is_stmt 0 view .LVU1880
	bls	.L804
	.loc 1 3637 5 is_stmt 1 view .LVU1881
.LVL460:
	.loc 1 3638 5 view .LVU1882
	.loc 1 3639 33 is_stmt 0 view .LVU1883
	sub	r3, r3, #4
	str	r3, [sp, #12]
	ldr	r3, [r1, #1]	@ unaligned
	.loc 1 3638 18 view .LVU1884
	add	r1, r1, #5
.LVL461:
	.loc 1 3638 18 view .LVU1885
.LBE3544:
.LBE3547:
	.loc 1 4025 29 discriminator 1 view .LVU1886
	mov	r2, #0
.LBB3548:
.LBB3545:
	.loc 1 3638 18 view .LVU1887
	str	r1, [sp, #8]
.LVL462:
	.loc 1 3639 5 is_stmt 1 view .LVU1888
	.loc 1 3640 5 view .LVU1889
.LBE3545:
.LBE3548:
	.loc 1 4025 29 is_stmt 0 discriminator 1 view .LVU1890
	rev	r3, r3
.LVL463:
.LBB3549:
.LBB3546:
	.loc 1 3640 12 view .LVU1891
	b	.L591
.LVL464:
.L483:
	.loc 1 3640 12 view .LVU1892
.LBE3546:
.LBE3549:
	.loc 1 4048 13 is_stmt 1 view .LVU1893
	.loc 1 4048 24 is_stmt 0 view .LVU1894
	mov	r2, #5
.LBB3550:
.LBB3551:
.LBB3552:
.LBB3553:
	.loc 1 3633 15 view .LVU1895
	ldr	r3, [sp, #12]
	ldr	r7, [sp, #4]
	.loc 1 3633 8 view .LVU1896
	cmp	r3, #3
.LBE3553:
.LBE3552:
.LBE3551:
.LBE3550:
	.loc 1 4048 24 view .LVU1897
	strb	r2, [r6]
	.loc 1 4049 13 is_stmt 1 view .LVU1898
.LVL465:
.LBB3563:
.LBI3550:
	.loc 1 3656 23 view .LVU1899
.LBB3560:
	.loc 1 3656 68 view .LVU1900
.LBB3557:
.LBI3552:
	.loc 1 3632 24 view .LVU1901
.LBB3554:
	.loc 1 3633 5 view .LVU1902
	.loc 1 3633 8 is_stmt 0 view .LVU1903
	bhi	.L582
.LVL466:
.L804:
	.loc 1 3633 8 view .LVU1904
.LBE3554:
.LBE3557:
.LBE3560:
.LBE3563:
.LBB3564:
.LBB3565:
.LBB3566:
.LBB3567:
.LBB3568:
.LBI3568:
	.loc 1 3643 24 is_stmt 1 view .LVU1905
.LBB3569:
	.loc 1 3645 9 view .LVU1906
.LBB3570:
.LBI3570:
	.loc 1 4445 6 view .LVU1907
.LBB3571:
	.loc 1 4446 5 view .LVU1908
	.loc 1 4446 8 is_stmt 0 view .LVU1909
	ldrb	r3, [r7, #32]	@ zero_extendqisi2
	cmp	r3, #0
	beq	.L835
.LVL467:
.L589:
	.loc 1 4446 8 view .LVU1910
.LBE3571:
.LBE3570:
.LBE3569:
.LBE3568:
.LBE3567:
.LBE3566:
.LBE3565:
.LBE3564:
.LBE3856:
.LBE3874:
.LBE3887:
.LBE3895:
.LBE3905:
	.loc 1 4239 26 view .LVU1911
	mov	r3, #0
	mov	r2, r3
	b	.L591
.LVL468:
.L470:
.LBB3906:
.LBB3896:
.LBB3888:
.LBB3875:
.LBB3857:
	.loc 1 4142 13 is_stmt 1 view .LVU1912
	.loc 1 4142 24 is_stmt 0 view .LVU1913
	mov	r2, #11
.LBB3597:
.LBB3598:
	.loc 1 3633 15 view .LVU1914
	ldr	r3, [sp, #12]
.LBE3598:
.LBE3597:
	.loc 1 4142 24 view .LVU1915
	strb	r2, [r6]
	.loc 1 4143 13 is_stmt 1 view .LVU1916
.LVL469:
.LBB3607:
.LBI3597:
	.loc 1 3632 24 view .LVU1917
.LBB3605:
	.loc 1 3633 5 view .LVU1918
	.loc 1 3633 8 is_stmt 0 view .LVU1919
	cmp	r3, #3
	bls	.L822
.LVL470:
.L642:
	.loc 1 3637 5 is_stmt 1 view .LVU1920
	.loc 1 3639 33 is_stmt 0 view .LVU1921
	sub	r3, r3, #4
	str	r3, [sp, #12]
	ldr	r3, [r1, #1]	@ unaligned
	.loc 1 3638 18 view .LVU1922
	add	r1, r1, #5
	str	r1, [sp, #8]
.LVL471:
	.loc 1 3638 18 view .LVU1923
	rev	r3, r3
.LVL472:
	.loc 1 3638 5 is_stmt 1 view .LVU1924
	.loc 1 3639 5 view .LVU1925
	.loc 1 3640 5 view .LVU1926
.L646:
	.loc 1 3640 5 is_stmt 0 view .LVU1927
.LBE3605:
.LBE3607:
	.loc 1 4144 13 view .LVU1928
	mov	r1, r6
	.loc 1 4143 23 discriminator 1 view .LVU1929
	str	r3, [r6, #4]
	.loc 1 4144 13 is_stmt 1 view .LVU1930
	add	r0, sp, #4
.LVL473:
	.loc 1 4144 13 is_stmt 0 view .LVU1931
	bl	mpack_tree_parse_children
.LVL474:
	.loc 1 4145 13 is_stmt 1 view .LVU1932
.LBE3857:
.LBE3875:
	.loc 1 4174 13 is_stmt 0 view .LVU1933
	ldr	r7, [sp, #4]
.LBB3876:
.LBB3858:
	.loc 1 4145 13 view .LVU1934
	b	.L504
.LVL475:
.L472:
	.loc 1 4128 13 is_stmt 1 view .LVU1935
	.loc 1 4128 24 is_stmt 0 view .LVU1936
	mov	r2, #10
.LBB3608:
.LBB3609:
	.loc 1 3633 15 view .LVU1937
	ldr	r3, [sp, #12]
.LBE3609:
.LBE3608:
	.loc 1 4128 24 view .LVU1938
	strb	r2, [r6]
	.loc 1 4129 13 is_stmt 1 view .LVU1939
.LVL476:
.LBB3611:
.LBI3608:
	.loc 1 3632 24 view .LVU1940
.LBB3610:
	.loc 1 3633 5 view .LVU1941
	.loc 1 3633 8 is_stmt 0 view .LVU1942
	cmp	r3, #3
	bhi	.L642
.LVL477:
.L822:
	.loc 1 3633 8 view .LVU1943
	ldr	r0, [sp, #4]
.LVL478:
	.loc 1 3633 8 view .LVU1944
.LBE3610:
.LBE3611:
.LBB3612:
.LBB3606:
.LBB3599:
.LBI3599:
	.loc 1 3632 24 is_stmt 1 view .LVU1945
.LBB3600:
	.loc 1 3634 9 view .LVU1946
.LBB3601:
.LBI3601:
	.loc 1 4445 6 view .LVU1947
.LBB3602:
	.loc 1 4446 5 view .LVU1948
	.loc 1 4446 8 is_stmt 0 view .LVU1949
	ldrb	r3, [r0, #32]	@ zero_extendqisi2
	cmp	r3, #0
	bne	.L644
.LVL479:
.LBB3603:
.LBI3603:
	.loc 1 4445 6 is_stmt 1 view .LVU1950
.LBB3604:
	.loc 1 4447 9 view .LVU1951
	.loc 1 4448 9 view .LVU1952
	.loc 1 4448 21 is_stmt 0 view .LVU1953
	mov	r1, #3
	.loc 1 4449 17 view .LVU1954
	ldr	r3, [r0]
	.loc 1 4448 21 view .LVU1955
	strb	r1, [r0, #32]
	.loc 1 4449 9 is_stmt 1 view .LVU1956
	.loc 1 4449 12 is_stmt 0 view .LVU1957
	cmp	r3, #0
	beq	.L644
	.loc 1 4450 13 is_stmt 1 view .LVU1958
	blx	r3
.LVL480:
.L644:
	.loc 1 4450 13 is_stmt 0 view .LVU1959
.LBE3604:
.LBE3603:
.LBE3602:
.LBE3601:
.LBE3600:
.LBE3599:
.LBE3606:
.LBE3612:
.LBE3858:
.LBE3876:
.LBE3888:
.LBE3896:
.LBE3906:
	.loc 1 4239 26 view .LVU1960
	mov	r3, #0
	b	.L646
.LVL481:
.L500:
.LBB3907:
.LBB3897:
.LBB3889:
.LBB3877:
.LBB3859:
	.loc 1 3944 13 is_stmt 1 view .LVU1961
	.loc 1 3944 24 is_stmt 0 view .LVU1962
	mov	r3, #1
	ldr	r7, [sp, #4]
	strb	r3, [r6]
	.loc 1 3945 13 is_stmt 1 view .LVU1963
	b	.L504
.L499:
	.loc 1 4149 13 view .LVU1964
	ldr	r7, [sp, #4]
.LVL482:
.LBB3613:
.LBI3613:
	.loc 1 4445 6 view .LVU1965
.LBB3614:
	.loc 1 4446 5 view .LVU1966
	.loc 1 4446 8 is_stmt 0 view .LVU1967
	ldrb	r3, [r7, #32]	@ zero_extendqisi2
	cmp	r3, #0
	bne	.L650
.LVL483:
.LBB3615:
.LBI3615:
	.loc 1 4445 6 is_stmt 1 view .LVU1968
.LBB3616:
	.loc 1 4447 9 view .LVU1969
	.loc 1 4448 9 view .LVU1970
	.loc 1 4448 21 is_stmt 0 view .LVU1971
	mov	r1, #3
	.loc 1 4449 17 view .LVU1972
	ldr	r3, [r7]
	.loc 1 4448 21 view .LVU1973
	strb	r1, [r7, #32]
	.loc 1 4449 9 is_stmt 1 view .LVU1974
	.loc 1 4449 12 is_stmt 0 view .LVU1975
	cmp	r3, #0
	beq	.L650
	.loc 1 4450 13 is_stmt 1 view .LVU1976
	mov	r0, r7
.LVL484:
	.loc 1 4450 13 is_stmt 0 view .LVU1977
	blx	r3
.LVL485:
	.loc 1 4450 13 view .LVU1978
	b	.L504
.LVL486:
.L497:
	.loc 1 4450 13 view .LVU1979
.LBE3616:
.LBE3615:
.LBE3614:
.LBE3613:
	.loc 1 3955 13 is_stmt 1 view .LVU1980
	.loc 1 3955 24 is_stmt 0 view .LVU1981
	mov	r3, #8
.LBB3617:
.LBB3618:
	.loc 1 3611 15 view .LVU1982
	ldr	r7, [sp, #12]
.LBE3618:
.LBE3617:
	.loc 1 3955 24 view .LVU1983
	strb	r3, [r6]
	.loc 1 3956 13 is_stmt 1 view .LVU1984
.LVL487:
.LBB3620:
.LBI3617:
	.loc 1 3610 23 view .LVU1985
.LBB3619:
	.loc 1 3611 5 view .LVU1986
	.loc 1 3611 8 is_stmt 0 view .LVU1987
	cmp	r7, #0
	beq	.L794
.LVL488:
.L612:
	.loc 1 3611 8 view .LVU1988
.LBE3619:
.LBE3620:
.LBB3621:
.LBB3622:
	.loc 1 3615 5 is_stmt 1 view .LVU1989
.LBB3623:
.LBI3623:
	.loc 2 1095 23 view .LVU1990
.LBB3624:
	.loc 2 1096 5 view .LVU1991
	.loc 2 1096 5 is_stmt 0 view .LVU1992
.LBE3624:
.LBE3623:
	.loc 1 3616 5 is_stmt 1 view .LVU1993
	.loc 1 3617 33 is_stmt 0 view .LVU1994
	sub	r7, r7, #1
	str	r7, [sp, #12]
	.loc 1 3616 18 view .LVU1995
	add	r1, r1, #2
.LVL489:
	.loc 1 3616 18 view .LVU1996
.LBE3622:
.LBE3621:
	.loc 1 4101 25 discriminator 1 view .LVU1997
	ldrb	r7, [r1, #-1]	@ zero_extendqisi2
.LBB3634:
.LBB3631:
	.loc 1 3616 18 view .LVU1998
	str	r1, [sp, #8]
.LVL490:
	.loc 1 3617 5 is_stmt 1 view .LVU1999
	.loc 1 3618 5 view .LVU2000
.L616:
	.loc 1 3618 5 is_stmt 0 view .LVU2001
.LBE3631:
.LBE3634:
	.loc 1 4101 23 discriminator 1 view .LVU2002
	str	r7, [r6, #4]
	.loc 1 4102 13 is_stmt 1 view .LVU2003
	mov	r1, r6
	add	r0, sp, #4
.LVL491:
	.loc 1 4102 13 is_stmt 0 view .LVU2004
	bl	mpack_tree_parse_bytes
.LVL492:
	.loc 1 4103 13 is_stmt 1 view .LVU2005
.LBE3859:
.LBE3877:
	.loc 1 4174 13 is_stmt 0 view .LVU2006
	ldr	r7, [sp, #4]
.LBB3878:
.LBB3860:
	.loc 1 4103 13 view .LVU2007
	b	.L504
.LVL493:
.L494:
	.loc 1 3976 13 is_stmt 1 view .LVU2008
	.loc 1 3976 24 is_stmt 0 view .LVU2009
	mov	r2, #9
.LBB3635:
.LBB3636:
	.loc 1 3611 15 view .LVU2010
	ldr	r3, [sp, #12]
.LBE3636:
.LBE3635:
	.loc 1 3976 24 view .LVU2011
	strb	r2, [r6]
	.loc 1 3977 13 is_stmt 1 view .LVU2012
.LVL494:
.LBB3656:
.LBI3635:
	.loc 1 3610 23 view .LVU2013
.LBB3651:
	.loc 1 3611 5 view .LVU2014
	.loc 1 3611 8 is_stmt 0 view .LVU2015
	cmp	r3, #0
	beq	.L836
	.loc 1 3615 5 is_stmt 1 view .LVU2016
.LVL495:
.LBB3637:
.LBI3637:
	.loc 2 1095 23 view .LVU2017
.LBB3638:
	.loc 2 1096 5 view .LVU2018
.LBE3638:
.LBE3637:
	.loc 1 3617 33 is_stmt 0 view .LVU2019
	sub	r2, r3, #1
.LBE3651:
.LBE3656:
.LBB3657:
.LBB3658:
.LBB3659:
.LBB3660:
	.loc 1 3611 8 view .LVU2020
	cmp	r2, #0
.LBE3660:
.LBE3659:
.LBE3658:
.LBE3657:
.LBB3667:
.LBB3652:
	.loc 1 3617 33 view .LVU2021
	str	r2, [sp, #12]
.LBB3640:
.LBB3639:
	.loc 2 1096 12 view .LVU2022
	ldrb	r2, [r1, #1]	@ zero_extendqisi2
.LVL496:
	.loc 2 1096 12 view .LVU2023
.LBE3639:
.LBE3640:
	.loc 1 3616 5 is_stmt 1 view .LVU2024
.LBE3652:
.LBE3667:
	.loc 1 3977 25 is_stmt 0 discriminator 1 view .LVU2025
	str	r2, [r6, #4]
.LVL497:
.LBB3668:
.LBB3653:
	.loc 1 3616 18 view .LVU2026
	add	r2, r1, #2
.LVL498:
	.loc 1 3616 18 view .LVU2027
	str	r2, [sp, #8]
	.loc 1 3617 5 is_stmt 1 view .LVU2028
	.loc 1 3618 5 view .LVU2029
.LVL499:
	.loc 1 3618 5 is_stmt 0 view .LVU2030
.LBE3653:
.LBE3668:
	.loc 1 3978 13 is_stmt 1 view .LVU2031
.LBB3669:
.LBI3657:
	.loc 1 3659 20 view .LVU2032
	.loc 1 3662 5 view .LVU2033
.LBB3665:
.LBI3658:
	.loc 1 3654 22 view .LVU2034
	.loc 1 3654 67 view .LVU2035
.LBB3663:
.LBI3659:
	.loc 1 3610 23 view .LVU2036
.LBB3661:
	.loc 1 3611 5 view .LVU2037
	.loc 1 3611 8 is_stmt 0 view .LVU2038
	beq	.L785
	.loc 1 3615 5 is_stmt 1 view .LVU2039
.LVL500:
	.loc 1 3616 5 view .LVU2040
	.loc 1 3616 18 is_stmt 0 view .LVU2041
	add	r1, r1, #3
	.loc 1 3617 33 view .LVU2042
	sub	r3, r3, #2
	.loc 1 3616 18 view .LVU2043
	str	r1, [sp, #8]
	.loc 1 3617 5 is_stmt 1 view .LVU2044
	.loc 1 3617 33 is_stmt 0 view .LVU2045
	str	r3, [sp, #12]
	.loc 1 3618 5 is_stmt 1 view .LVU2046
	.loc 1 3618 12 is_stmt 0 view .LVU2047
	b	.L610
.LVL501:
.L493:
	.loc 1 3618 12 view .LVU2048
.LBE3661:
.LBE3663:
.LBE3665:
.LBE3669:
	.loc 1 3984 13 is_stmt 1 view .LVU2049
	.loc 1 3984 24 is_stmt 0 view .LVU2050
	mov	r3, #9
.LBB3670:
.LBB3671:
	.loc 1 3622 15 view .LVU2051
	ldr	r7, [sp, #12]
.LBE3671:
.LBE3670:
	.loc 1 3984 24 view .LVU2052
	strb	r3, [r6]
	.loc 1 3985 13 is_stmt 1 view .LVU2053
.LVL502:
.LBB3673:
.LBI3670:
	.loc 1 3621 24 view .LVU2054
.LBB3672:
	.loc 1 3622 5 view .LVU2055
	.loc 1 3622 8 is_stmt 0 view .LVU2056
	cmp	r7, #1
	bls	.L831
	.loc 1 3626 5 is_stmt 1 view .LVU2057
.LVL503:
	.loc 1 3626 5 is_stmt 0 view .LVU2058
	ldrh	r3, [r1, #1]	@ unaligned
	.loc 1 3628 33 view .LVU2059
	sub	r7, r7, #2
	.loc 1 3627 18 view .LVU2060
	add	r1, r1, #3
	rev16	r3, r3
.LVL504:
	.loc 1 3627 5 is_stmt 1 view .LVU2061
	.loc 1 3628 5 view .LVU2062
	.loc 1 3629 5 view .LVU2063
	.loc 1 3628 33 is_stmt 0 view .LVU2064
	str	r7, [sp, #12]
	.loc 1 3627 18 view .LVU2065
	str	r1, [sp, #8]
.LBE3672:
.LBE3673:
	.loc 1 3985 25 discriminator 1 view .LVU2066
	uxth	r3, r3
.LVL505:
.L537:
.LBB3674:
.LBB3675:
.LBB3676:
.LBB3677:
	.loc 1 3611 8 view .LVU2067
	cmp	r7, #0
.LBE3677:
.LBE3676:
.LBE3675:
.LBE3674:
	.loc 1 3993 23 discriminator 1 view .LVU2068
	str	r3, [r6, #4]
	.loc 1 3994 13 is_stmt 1 view .LVU2069
.LVL506:
.LBB3681:
.LBI3674:
	.loc 1 3659 20 view .LVU2070
	.loc 1 3662 5 view .LVU2071
.LBB3680:
.LBI3675:
	.loc 1 3654 22 view .LVU2072
	.loc 1 3654 67 view .LVU2073
.LBB3679:
.LBI3676:
	.loc 1 3610 23 view .LVU2074
.LBB3678:
	.loc 1 3611 5 view .LVU2075
	.loc 1 3611 8 is_stmt 0 view .LVU2076
	beq	.L785
	.loc 1 3615 5 is_stmt 1 view .LVU2077
.LVL507:
	.loc 1 3616 5 view .LVU2078
	.loc 1 3616 18 is_stmt 0 view .LVU2079
	ldr	r3, [sp, #8]
	.loc 1 3617 33 view .LVU2080
	sub	r7, r7, #1
	.loc 1 3616 18 view .LVU2081
	add	r3, r3, #1
	str	r3, [sp, #8]
.LVL508:
	.loc 1 3617 5 is_stmt 1 view .LVU2082
	.loc 1 3617 33 is_stmt 0 view .LVU2083
	str	r7, [sp, #12]
	.loc 1 3618 5 is_stmt 1 view .LVU2084
	.loc 1 3618 12 is_stmt 0 view .LVU2085
	b	.L610
.LVL509:
.L492:
	.loc 1 3618 12 view .LVU2086
.LBE3678:
.LBE3679:
.LBE3680:
.LBE3681:
	.loc 1 3992 13 is_stmt 1 view .LVU2087
	.loc 1 3992 24 is_stmt 0 view .LVU2088
	mov	r3, #9
.LBB3682:
.LBB3683:
	.loc 1 3633 15 view .LVU2089
	ldr	r7, [sp, #12]
.LBE3683:
.LBE3682:
	.loc 1 3992 24 view .LVU2090
	strb	r3, [r6]
	.loc 1 3993 13 is_stmt 1 view .LVU2091
.LVL510:
.LBB3697:
.LBI3682:
	.loc 1 3632 24 view .LVU2092
.LBB3694:
	.loc 1 3633 5 view .LVU2093
	.loc 1 3633 8 is_stmt 0 view .LVU2094
	cmp	r7, #3
	bls	.L831
	.loc 1 3637 5 is_stmt 1 view .LVU2095
.LVL511:
	.loc 1 3637 5 is_stmt 0 view .LVU2096
	ldr	r3, [r1, #1]	@ unaligned
	.loc 1 3639 33 view .LVU2097
	sub	r7, r7, #4
	.loc 1 3638 18 view .LVU2098
	add	r1, r1, #5
	.loc 1 3639 33 view .LVU2099
	str	r7, [sp, #12]
	.loc 1 3638 18 view .LVU2100
	str	r1, [sp, #8]
.LVL512:
	.loc 1 3638 18 view .LVU2101
	rev	r3, r3
.LVL513:
	.loc 1 3638 5 is_stmt 1 view .LVU2102
	.loc 1 3639 5 view .LVU2103
	.loc 1 3640 5 view .LVU2104
	.loc 1 3640 12 is_stmt 0 view .LVU2105
	b	.L537
.LVL514:
.L491:
	.loc 1 3640 12 view .LVU2106
.LBE3694:
.LBE3697:
	.loc 1 4000 13 is_stmt 1 view .LVU2107
	.loc 1 4000 24 is_stmt 0 view .LVU2108
	mov	r2, #3
.LBB3698:
.LBB3699:
.LBB3700:
.LBB3701:
	.loc 1 3633 15 view .LVU2109
	ldr	r3, [sp, #12]
	ldr	r7, [sp, #4]
	.loc 1 3633 8 view .LVU2110
	cmp	r3, r2
.LBE3701:
.LBE3700:
.LBE3699:
.LBE3698:
	.loc 1 4000 24 view .LVU2111
	strb	r2, [r6]
	.loc 1 4001 13 is_stmt 1 view .LVU2112
.LVL515:
.LBB3721:
.LBI3698:
	.loc 1 3665 21 view .LVU2113
.LBB3718:
	.loc 1 3666 5 view .LVU2114
	.loc 1 3670 5 view .LVU2115
.LBB3715:
.LBI3700:
	.loc 1 3632 24 view .LVU2116
.LBB3712:
	.loc 1 3633 5 view .LVU2117
	.loc 1 3633 8 is_stmt 0 view .LVU2118
	bls	.L837
	.loc 1 3637 5 is_stmt 1 view .LVU2119
.LVL516:
	.loc 1 3638 5 view .LVU2120
	.loc 1 3639 33 is_stmt 0 view .LVU2121
	sub	r3, r3, #4
	str	r3, [sp, #12]
	ldr	r3, [r1, #1]	@ unaligned
	.loc 1 3638 18 view .LVU2122
	add	r1, r1, #5
.LVL517:
	.loc 1 3638 18 view .LVU2123
	str	r1, [sp, #8]
.LVL518:
	.loc 1 3639 5 is_stmt 1 view .LVU2124
	.loc 1 3640 5 view .LVU2125
.LBE3712:
.LBE3715:
	.loc 1 3671 13 is_stmt 0 view .LVU2126
	rev	r3, r3
.LVL519:
.L546:
	.loc 1 3671 5 is_stmt 1 view .LVU2127
	.loc 1 3671 5 is_stmt 0 view .LVU2128
.LBE3718:
.LBE3721:
	.loc 1 4001 27 discriminator 1 view .LVU2129
	str	r3, [r6, #8]	@ float
	.loc 1 4002 13 is_stmt 1 view .LVU2130
	b	.L504
.LVL520:
.L490:
	.loc 1 4006 13 view .LVU2131
	.loc 1 4006 24 is_stmt 0 view .LVU2132
	mov	r2, #4
.LBB3722:
.LBB3723:
.LBB3724:
.LBB3725:
	.loc 1 3644 15 view .LVU2133
	ldr	r3, [sp, #12]
	ldr	r7, [sp, #4]
	.loc 1 3644 8 view .LVU2134
	cmp	r3, #7
.LBE3725:
.LBE3724:
.LBE3723:
.LBE3722:
	.loc 1 4006 24 view .LVU2135
	strb	r2, [r6]
	.loc 1 4007 13 is_stmt 1 view .LVU2136
.LVL521:
.LBB3749:
.LBI3722:
	.loc 1 3674 22 view .LVU2137
.LBB3746:
	.loc 1 3675 5 view .LVU2138
	.loc 1 3679 5 view .LVU2139
.LBB3743:
.LBI3724:
	.loc 1 3643 24 view .LVU2140
.LBB3740:
	.loc 1 3644 5 view .LVU2141
	.loc 1 3644 8 is_stmt 0 view .LVU2142
	bls	.L838
	.loc 1 3648 5 is_stmt 1 view .LVU2143
.LVL522:
.LBB3726:
.LBI3726:
	.loc 2 1123 24 view .LVU2144
.LBB3727:
	.loc 2 1125 5 view .LVU2145
	.loc 2 1126 5 view .LVU2146
	.loc 2 1127 5 view .LVU2147
	.loc 2 1126 5 is_stmt 0 view .LVU2148
	ldr	r0, [r1, #1]	@ unaligned
.LVL523:
	.loc 2 1126 5 view .LVU2149
	ldr	ip, [r1, #5]	@ unaligned
.LBE3727:
.LBE3726:
	.loc 1 3650 33 view .LVU2150
	sub	r3, r3, #8
	.loc 1 3649 18 view .LVU2151
	add	r1, r1, #9
.LVL524:
	.loc 1 3650 33 view .LVU2152
	str	r3, [sp, #12]
.LBB3729:
.LBB3728:
	.loc 2 1127 12 view .LVU2153
	rev	r2, ip
	rev	r3, r0
.LVL525:
	.loc 2 1127 12 view .LVU2154
.LBE3728:
.LBE3729:
	.loc 1 3649 5 is_stmt 1 view .LVU2155
	.loc 1 3649 18 is_stmt 0 view .LVU2156
	str	r1, [sp, #8]
.LVL526:
	.loc 1 3650 5 is_stmt 1 view .LVU2157
	.loc 1 3651 5 view .LVU2158
.L551:
	.loc 1 3651 5 is_stmt 0 view .LVU2159
.LBE3740:
.LBE3743:
	.loc 1 3680 5 is_stmt 1 view .LVU2160
	.loc 1 3680 5 is_stmt 0 view .LVU2161
.LBE3746:
.LBE3749:
	.loc 1 4007 27 discriminator 1 view .LVU2162
	strd	r2, [r6, #8]
	.loc 1 4008 13 is_stmt 1 view .LVU2163
	b	.L504
.LVL527:
.L489:
	.loc 1 4012 13 view .LVU2164
	.loc 1 4012 24 is_stmt 0 view .LVU2165
	mov	r2, #6
.LBB3750:
.LBB3751:
	.loc 1 3611 15 view .LVU2166
	ldr	r3, [sp, #12]
	ldr	r7, [sp, #4]
	.loc 1 3611 8 view .LVU2167
	cmp	r3, #0
.LBE3751:
.LBE3750:
	.loc 1 4012 24 view .LVU2168
	strb	r2, [r6]
	.loc 1 4013 13 is_stmt 1 view .LVU2169
.LVL528:
.LBB3756:
.LBI3750:
	.loc 1 3610 23 view .LVU2170
.LBB3754:
	.loc 1 3611 5 view .LVU2171
	.loc 1 3611 8 is_stmt 0 view .LVU2172
	beq	.L804
	.loc 1 3615 5 is_stmt 1 view .LVU2173
.LVL529:
.LBB3752:
.LBI3752:
	.loc 2 1095 23 view .LVU2174
.LBB3753:
	.loc 2 1096 5 view .LVU2175
	.loc 2 1096 5 is_stmt 0 view .LVU2176
.LBE3753:
.LBE3752:
	.loc 1 3616 5 is_stmt 1 view .LVU2177
	.loc 1 3617 33 is_stmt 0 view .LVU2178
	sub	r3, r3, #1
	str	r3, [sp, #12]
	.loc 1 3616 18 view .LVU2179
	add	r3, r1, #2
	str	r3, [sp, #8]
	.loc 1 3617 5 is_stmt 1 view .LVU2180
	.loc 1 3618 5 view .LVU2181
.LBE3754:
.LBE3756:
	.loc 1 4013 29 is_stmt 0 discriminator 1 view .LVU2182
	mov	r2, #0
	ldrb	r3, [r1, #1]	@ zero_extendqisi2
.LVL530:
.LBB3757:
.LBB3755:
	.loc 1 3618 12 view .LVU2183
	b	.L591
.LVL531:
.L471:
	.loc 1 3618 12 view .LVU2184
.LBE3755:
.LBE3757:
	.loc 1 4135 13 is_stmt 1 view .LVU2185
	.loc 1 4135 24 is_stmt 0 view .LVU2186
	mov	r2, #11
.LBB3758:
.LBB3759:
	.loc 1 3622 15 view .LVU2187
	ldr	r3, [sp, #12]
.LBE3759:
.LBE3758:
	.loc 1 4135 24 view .LVU2188
	strb	r2, [r6]
	.loc 1 4136 13 is_stmt 1 view .LVU2189
.LVL532:
.LBB3762:
.LBI3758:
	.loc 1 3621 24 view .LVU2190
.LBB3760:
	.loc 1 3622 5 view .LVU2191
	.loc 1 3622 8 is_stmt 0 view .LVU2192
	cmp	r3, #1
	bls	.L822
.LVL533:
.L637:
	.loc 1 3626 5 is_stmt 1 view .LVU2193
	.loc 1 3628 33 is_stmt 0 view .LVU2194
	sub	r3, r3, #2
	str	r3, [sp, #12]
	ldrh	r3, [r1, #1]	@ unaligned
	.loc 1 3627 18 view .LVU2195
	add	r1, r1, #3
	rev16	r3, r3
.LVL534:
	.loc 1 3627 5 is_stmt 1 view .LVU2196
	.loc 1 3628 5 view .LVU2197
	.loc 1 3629 5 view .LVU2198
	.loc 1 3627 18 is_stmt 0 view .LVU2199
	str	r1, [sp, #8]
.LBE3760:
.LBE3762:
	.loc 1 4136 25 discriminator 1 view .LVU2200
	uxth	r3, r3
.LBB3763:
.LBB3761:
	.loc 1 3629 12 view .LVU2201
	b	.L646
.LVL535:
.L486:
	.loc 1 3629 12 view .LVU2202
.LBE3761:
.LBE3763:
	.loc 1 4030 13 is_stmt 1 view .LVU2203
	.loc 1 4030 24 is_stmt 0 view .LVU2204
	mov	r2, #6
.L826:
.LBB3764:
.LBB3594:
.LBB3589:
.LBB3584:
	.loc 1 3644 15 view .LVU2205
	ldr	r3, [sp, #12]
	ldr	r7, [sp, #4]
	.loc 1 3644 8 view .LVU2206
	cmp	r3, #7
.LBE3584:
.LBE3589:
.LBE3594:
.LBE3764:
	.loc 1 4054 24 view .LVU2207
	strb	r2, [r6]
	.loc 1 4055 13 is_stmt 1 view .LVU2208
.LVL536:
.LBB3765:
.LBI3564:
	.loc 1 3657 23 view .LVU2209
.LBB3595:
	.loc 1 3657 68 view .LVU2210
.LBB3590:
.LBI3566:
	.loc 1 3643 24 view .LVU2211
.LBB3585:
	.loc 1 3644 5 view .LVU2212
	.loc 1 3644 8 is_stmt 0 view .LVU2213
	bls	.L804
	.loc 1 3648 5 is_stmt 1 view .LVU2214
.LVL537:
.LBB3577:
.LBI3577:
	.loc 2 1123 24 view .LVU2215
.LBB3578:
	.loc 2 1125 5 view .LVU2216
	.loc 2 1126 5 view .LVU2217
	.loc 2 1127 5 view .LVU2218
	.loc 2 1127 5 is_stmt 0 view .LVU2219
.LBE3578:
.LBE3577:
	.loc 1 3650 33 view .LVU2220
	sub	r3, r3, #8
.LBB3581:
.LBB3579:
	.loc 2 1126 5 view .LVU2221
	ldr	r2, [r1, #1]	@ unaligned
.LBE3579:
.LBE3581:
	.loc 1 3650 33 view .LVU2222
	str	r3, [sp, #12]
.LBB3582:
.LBB3580:
	.loc 2 1126 5 view .LVU2223
	ldr	r3, [r1, #5]	@ unaligned
.LVL538:
	.loc 2 1126 5 view .LVU2224
.LBE3580:
.LBE3582:
	.loc 1 3649 5 is_stmt 1 view .LVU2225
	.loc 1 3649 18 is_stmt 0 view .LVU2226
	add	r1, r1, #9
.LVL539:
	.loc 1 3649 18 view .LVU2227
.LBE3585:
.LBE3590:
	.loc 1 3657 75 discriminator 1 view .LVU2228
	rev	r2, r2
.LVL540:
.LBB3591:
.LBB3586:
	.loc 1 3649 18 view .LVU2229
	str	r1, [sp, #8]
.LVL541:
	.loc 1 3650 5 is_stmt 1 view .LVU2230
	.loc 1 3651 5 view .LVU2231
.LBE3586:
.LBE3591:
	.loc 1 3657 75 is_stmt 0 discriminator 1 view .LVU2232
	rev	r3, r3
.LVL542:
.LBB3592:
.LBB3587:
	.loc 1 3651 12 view .LVU2233
	b	.L591
.LVL543:
.L485:
	.loc 1 3651 12 view .LVU2234
.LBE3587:
.LBE3592:
.LBE3595:
.LBE3765:
	.loc 1 4036 13 is_stmt 1 view .LVU2235
	.loc 1 4036 24 is_stmt 0 view .LVU2236
	mov	r2, #5
.LBB3766:
.LBB3767:
.LBB3768:
.LBB3769:
	.loc 1 3611 15 view .LVU2237
	ldr	r3, [sp, #12]
	ldr	r7, [sp, #4]
	.loc 1 3611 8 view .LVU2238
	cmp	r3, #0
.LBE3769:
.LBE3768:
.LBE3767:
.LBE3766:
	.loc 1 4036 24 view .LVU2239
	strb	r2, [r6]
	.loc 1 4037 13 is_stmt 1 view .LVU2240
.LVL544:
.LBB3781:
.LBI3766:
	.loc 1 3654 22 view .LVU2241
.LBB3778:
	.loc 1 3654 67 view .LVU2242
.LBB3775:
.LBI3768:
	.loc 1 3610 23 view .LVU2243
.LBB3772:
	.loc 1 3611 5 view .LVU2244
	.loc 1 3611 8 is_stmt 0 view .LVU2245
	beq	.L804
	.loc 1 3615 5 is_stmt 1 view .LVU2246
.LVL545:
.LBB3770:
.LBI3770:
	.loc 2 1095 23 view .LVU2247
.LBB3771:
	.loc 2 1096 5 view .LVU2248
	.loc 2 1096 5 is_stmt 0 view .LVU2249
.LBE3771:
.LBE3770:
	.loc 1 3616 5 is_stmt 1 view .LVU2250
	.loc 1 3617 33 is_stmt 0 view .LVU2251
	sub	r3, r3, #1
	str	r3, [sp, #12]
.LBE3772:
.LBE3775:
.LBE3778:
.LBE3781:
	.loc 1 4037 29 discriminator 1 view .LVU2252
	ldrsb	r3, [r1, #1]
.LBB3782:
.LBB3779:
.LBB3776:
.LBB3773:
	.loc 1 3616 18 view .LVU2253
	add	r1, r1, #2
.LVL546:
	.loc 1 3616 18 view .LVU2254
	str	r1, [sp, #8]
.LVL547:
	.loc 1 3617 5 is_stmt 1 view .LVU2255
	.loc 1 3618 5 view .LVU2256
.LBE3773:
.LBE3776:
.LBE3779:
.LBE3782:
	.loc 1 4037 29 is_stmt 0 discriminator 1 view .LVU2257
	asr	r2, r3, #31
.LVL548:
.LBB3783:
.LBB3780:
.LBB3777:
.LBB3774:
	.loc 1 3618 12 view .LVU2258
	b	.L591
.LVL549:
.L484:
	.loc 1 3618 12 view .LVU2259
.LBE3774:
.LBE3777:
.LBE3780:
.LBE3783:
	.loc 1 4042 13 is_stmt 1 view .LVU2260
	.loc 1 4042 24 is_stmt 0 view .LVU2261
	mov	r2, #5
.LBB3784:
.LBB3785:
.LBB3786:
	.loc 1 3622 15 view .LVU2262
	ldr	r3, [sp, #12]
	ldr	r7, [sp, #4]
	.loc 1 3622 8 view .LVU2263
	cmp	r3, #1
.LBE3786:
.LBE3785:
.LBE3784:
	.loc 1 4042 24 view .LVU2264
	strb	r2, [r6]
	.loc 1 4043 13 is_stmt 1 view .LVU2265
.LVL550:
.LBB3791:
.LBI3784:
	.loc 1 3655 23 view .LVU2266
	.loc 1 3655 68 view .LVU2267
.LBB3789:
.LBI3785:
	.loc 1 3621 24 view .LVU2268
.LBB3787:
	.loc 1 3622 5 view .LVU2269
	.loc 1 3622 8 is_stmt 0 view .LVU2270
	bls	.L804
	.loc 1 3626 5 is_stmt 1 view .LVU2271
.LVL551:
	.loc 1 3628 33 is_stmt 0 view .LVU2272
	sub	r3, r3, #2
	str	r3, [sp, #12]
	ldrh	r3, [r1, #1]	@ unaligned
	.loc 1 3627 18 view .LVU2273
	add	r1, r1, #3
	revsh	r3, r3
.LVL552:
	.loc 1 3627 5 is_stmt 1 view .LVU2274
	.loc 1 3628 5 view .LVU2275
	.loc 1 3629 5 view .LVU2276
	.loc 1 3627 18 is_stmt 0 view .LVU2277
	str	r1, [sp, #8]
.LVL553:
	.loc 1 3627 18 view .LVU2278
.LBE3787:
.LBE3789:
.LBE3791:
	.loc 1 4043 29 discriminator 1 view .LVU2279
	asr	r2, r3, #31
.LVL554:
.LBB3792:
.LBB3790:
.LBB3788:
	.loc 1 3629 12 view .LVU2280
	b	.L591
.LVL555:
.L482:
	.loc 1 3629 12 view .LVU2281
.LBE3788:
.LBE3790:
.LBE3792:
	.loc 1 4054 13 is_stmt 1 view .LVU2282
	.loc 1 4054 24 is_stmt 0 view .LVU2283
	mov	r2, #5
	b	.L826
.L481:
	.loc 1 4060 13 is_stmt 1 view .LVU2284
	.loc 1 4060 24 is_stmt 0 view .LVU2285
	mov	r3, #9
	.loc 1 4061 23 view .LVU2286
	mov	r2, #1
.L812:
	.loc 1 4092 24 view .LVU2287
	strb	r3, [r6]
	.loc 1 4093 13 is_stmt 1 view .LVU2288
	.loc 1 4094 13 view .LVU2289
.LVL556:
.LBB3793:
.LBI3793:
	.loc 1 3659 20 view .LVU2290
	.loc 1 3662 5 view .LVU2291
.LBB3794:
.LBI3794:
	.loc 1 3654 22 view .LVU2292
	.loc 1 3654 67 view .LVU2293
.LBB3795:
.LBI3795:
	.loc 1 3610 23 view .LVU2294
.LBB3796:
	.loc 1 3611 5 view .LVU2295
	.loc 1 3611 15 is_stmt 0 view .LVU2296
	ldr	r3, [sp, #12]
.LBE3796:
.LBE3795:
.LBE3794:
.LBE3793:
	.loc 1 4093 23 view .LVU2297
	str	r2, [r6, #4]
.LBB3809:
.LBB3807:
.LBB3805:
.LBB3803:
	.loc 1 3611 8 view .LVU2298
	cmp	r3, #0
	beq	.L785
	.loc 1 3615 5 is_stmt 1 view .LVU2299
.LVL557:
	.loc 1 3616 5 view .LVU2300
	.loc 1 3616 18 is_stmt 0 view .LVU2301
	add	r1, r1, #2
	.loc 1 3617 33 view .LVU2302
	sub	r3, r3, #1
	.loc 1 3616 18 view .LVU2303
	str	r1, [sp, #8]
.LVL558:
	.loc 1 3617 5 is_stmt 1 view .LVU2304
	.loc 1 3617 33 is_stmt 0 view .LVU2305
	str	r3, [sp, #12]
	.loc 1 3618 5 is_stmt 1 view .LVU2306
.LVL559:
.L610:
	.loc 1 3618 5 is_stmt 0 view .LVU2307
.LBE3803:
.LBE3805:
.LBE3807:
.LBE3809:
	.loc 1 4095 13 is_stmt 1 view .LVU2308
	mov	r1, r6
	add	r0, sp, #4
.LVL560:
	.loc 1 4095 13 is_stmt 0 view .LVU2309
	bl	mpack_tree_parse_bytes
.LVL561:
	.loc 1 4096 13 is_stmt 1 view .LVU2310
.LBE3860:
.LBE3878:
	.loc 1 4174 13 is_stmt 0 view .LVU2311
	ldr	r7, [sp, #4]
.LBB3879:
.LBB3861:
	.loc 1 4096 13 view .LVU2312
	b	.L504
.LVL562:
.L480:
	.loc 1 4068 13 is_stmt 1 view .LVU2313
	.loc 1 4068 24 is_stmt 0 view .LVU2314
	mov	r3, #9
	.loc 1 4069 23 view .LVU2315
	mov	r2, #2
	b	.L812
.L479:
	.loc 1 4076 13 is_stmt 1 view .LVU2316
	.loc 1 4076 24 is_stmt 0 view .LVU2317
	mov	r3, #9
	.loc 1 4077 23 view .LVU2318
	mov	r2, #4
	b	.L812
.L478:
	.loc 1 4084 13 is_stmt 1 view .LVU2319
	.loc 1 4084 24 is_stmt 0 view .LVU2320
	mov	r3, #9
	.loc 1 4085 23 view .LVU2321
	mov	r2, #8
	b	.L812
.L477:
	.loc 1 4092 13 is_stmt 1 view .LVU2322
	.loc 1 4092 24 is_stmt 0 view .LVU2323
	mov	r3, #9
	.loc 1 4093 23 view .LVU2324
	mov	r2, #16
	b	.L812
.L476:
	.loc 1 4100 13 is_stmt 1 view .LVU2325
	.loc 1 4100 24 is_stmt 0 view .LVU2326
	mov	r3, #7
.LBB3810:
.LBB3632:
	.loc 1 3611 15 view .LVU2327
	ldr	r7, [sp, #12]
.LBE3632:
.LBE3810:
	.loc 1 4100 24 view .LVU2328
	strb	r3, [r6]
	.loc 1 4101 13 is_stmt 1 view .LVU2329
.LVL563:
.LBB3811:
.LBI3621:
	.loc 1 3610 23 view .LVU2330
.LBB3633:
	.loc 1 3611 5 view .LVU2331
	.loc 1 3611 8 is_stmt 0 view .LVU2332
	cmp	r7, #0
	bne	.L612
.LVL564:
.L794:
	.loc 1 3611 8 view .LVU2333
	ldr	r0, [sp, #4]
.LVL565:
.LBB3625:
.LBI3625:
	.loc 1 3610 23 is_stmt 1 view .LVU2334
.LBB3626:
	.loc 1 3612 9 view .LVU2335
.LBB3627:
.LBI3627:
	.loc 1 4445 6 view .LVU2336
.LBB3628:
	.loc 1 4446 5 view .LVU2337
	.loc 1 4446 8 is_stmt 0 view .LVU2338
	ldrb	r3, [r0, #32]	@ zero_extendqisi2
	cmp	r3, #0
	bne	.L616
.LVL566:
.LBB3629:
.LBI3629:
	.loc 1 4445 6 is_stmt 1 view .LVU2339
.LBB3630:
	.loc 1 4447 9 view .LVU2340
	.loc 1 4448 9 view .LVU2341
	.loc 1 4448 21 is_stmt 0 view .LVU2342
	mov	r1, #3
	.loc 1 4449 17 view .LVU2343
	ldr	r3, [r0]
	.loc 1 4448 21 view .LVU2344
	strb	r1, [r0, #32]
	.loc 1 4449 9 is_stmt 1 view .LVU2345
	.loc 1 4449 12 is_stmt 0 view .LVU2346
	cmp	r3, #0
	beq	.L616
	.loc 1 4450 13 is_stmt 1 view .LVU2347
	blx	r3
.LVL567:
	.loc 1 4450 13 is_stmt 0 view .LVU2348
	b	.L616
.LVL568:
.L475:
	.loc 1 4450 13 view .LVU2349
.LBE3630:
.LBE3629:
.LBE3628:
.LBE3627:
.LBE3626:
.LBE3625:
.LBE3633:
.LBE3811:
	.loc 1 4107 13 is_stmt 1 view .LVU2350
	.loc 1 4107 24 is_stmt 0 view .LVU2351
	mov	r2, #7
.LBB3812:
.LBB3813:
	.loc 1 3622 15 view .LVU2352
	ldr	r3, [sp, #12]
.LBE3813:
.LBE3812:
	.loc 1 4107 24 view .LVU2353
	strb	r2, [r6]
	.loc 1 4108 13 is_stmt 1 view .LVU2354
.LVL569:
.LBB3815:
.LBI3812:
	.loc 1 3621 24 view .LVU2355
.LBB3814:
	.loc 1 3622 5 view .LVU2356
	.loc 1 3622 8 is_stmt 0 view .LVU2357
	cmp	r3, #1
	bls	.L818
.LVL570:
.L617:
	.loc 1 3626 5 is_stmt 1 view .LVU2358
	.loc 1 3628 33 is_stmt 0 view .LVU2359
	sub	r3, r3, #2
	str	r3, [sp, #12]
	ldrh	r3, [r1, #1]	@ unaligned
	.loc 1 3627 18 view .LVU2360
	add	r1, r1, #3
	rev16	r3, r3
.LVL571:
	.loc 1 3627 5 is_stmt 1 view .LVU2361
	.loc 1 3628 5 view .LVU2362
	.loc 1 3629 5 view .LVU2363
	.loc 1 3627 18 is_stmt 0 view .LVU2364
	str	r1, [sp, #8]
.LBE3814:
.LBE3815:
	.loc 1 4108 25 discriminator 1 view .LVU2365
	uxth	r3, r3
.LVL572:
.L626:
	.loc 1 4116 13 view .LVU2366
	mov	r1, r6
	.loc 1 4115 23 discriminator 1 view .LVU2367
	str	r3, [r6, #4]
	.loc 1 4116 13 is_stmt 1 view .LVU2368
	add	r0, sp, #4
.LVL573:
	.loc 1 4116 13 is_stmt 0 view .LVU2369
	bl	mpack_tree_parse_bytes
.LVL574:
	.loc 1 4117 13 is_stmt 1 view .LVU2370
.LBE3861:
.LBE3879:
	.loc 1 4174 13 is_stmt 0 view .LVU2371
	ldr	r7, [sp, #4]
.LBB3880:
.LBB3862:
	.loc 1 4117 13 view .LVU2372
	b	.L504
.LVL575:
.L474:
	.loc 1 4114 13 is_stmt 1 view .LVU2373
	.loc 1 4114 24 is_stmt 0 view .LVU2374
	mov	r2, #7
.LBB3816:
.LBB3817:
	.loc 1 3633 15 view .LVU2375
	ldr	r3, [sp, #12]
.LBE3817:
.LBE3816:
	.loc 1 4114 24 view .LVU2376
	strb	r2, [r6]
	.loc 1 4115 13 is_stmt 1 view .LVU2377
.LVL576:
.LBB3826:
.LBI3816:
	.loc 1 3632 24 view .LVU2378
.LBB3824:
	.loc 1 3633 5 view .LVU2379
	.loc 1 3633 8 is_stmt 0 view .LVU2380
	cmp	r3, #3
	bls	.L818
.LVL577:
.L622:
	.loc 1 3637 5 is_stmt 1 view .LVU2381
	.loc 1 3639 33 is_stmt 0 view .LVU2382
	sub	r3, r3, #4
	str	r3, [sp, #12]
	ldr	r3, [r1, #1]	@ unaligned
	.loc 1 3638 18 view .LVU2383
	add	r1, r1, #5
	str	r1, [sp, #8]
.LVL578:
	.loc 1 3638 18 view .LVU2384
	rev	r3, r3
.LVL579:
	.loc 1 3638 5 is_stmt 1 view .LVU2385
	.loc 1 3639 5 view .LVU2386
	.loc 1 3640 5 view .LVU2387
	.loc 1 3640 12 is_stmt 0 view .LVU2388
	b	.L626
.LVL580:
.L495:
	.loc 1 3640 12 view .LVU2389
.LBE3824:
.LBE3826:
	.loc 1 3969 13 is_stmt 1 view .LVU2390
	.loc 1 3969 24 is_stmt 0 view .LVU2391
	mov	r2, #8
.LBB3827:
.LBB3828:
	.loc 1 3633 15 view .LVU2392
	ldr	r3, [sp, #12]
.LBE3828:
.LBE3827:
	.loc 1 3969 24 view .LVU2393
	strb	r2, [r6]
	.loc 1 3970 13 is_stmt 1 view .LVU2394
.LVL581:
.LBB3830:
.LBI3827:
	.loc 1 3632 24 view .LVU2395
.LBB3829:
	.loc 1 3633 5 view .LVU2396
	.loc 1 3633 8 is_stmt 0 view .LVU2397
	cmp	r3, #3
	bhi	.L622
.LVL582:
.L818:
	.loc 1 3633 8 view .LVU2398
	ldr	r0, [sp, #4]
.LVL583:
	.loc 1 3633 8 view .LVU2399
.LBE3829:
.LBE3830:
.LBB3831:
.LBB3825:
.LBB3818:
.LBI3818:
	.loc 1 3632 24 is_stmt 1 view .LVU2400
.LBB3819:
	.loc 1 3634 9 view .LVU2401
.LBB3820:
.LBI3820:
	.loc 1 4445 6 view .LVU2402
.LBB3821:
	.loc 1 4446 5 view .LVU2403
	.loc 1 4446 8 is_stmt 0 view .LVU2404
	ldrb	r3, [r0, #32]	@ zero_extendqisi2
	cmp	r3, #0
	bne	.L624
.LVL584:
.LBB3822:
.LBI3822:
	.loc 1 4445 6 is_stmt 1 view .LVU2405
.LBB3823:
	.loc 1 4447 9 view .LVU2406
	.loc 1 4448 9 view .LVU2407
	.loc 1 4448 21 is_stmt 0 view .LVU2408
	mov	r1, #3
	.loc 1 4449 17 view .LVU2409
	ldr	r3, [r0]
	.loc 1 4448 21 view .LVU2410
	strb	r1, [r0, #32]
	.loc 1 4449 9 is_stmt 1 view .LVU2411
	.loc 1 4449 12 is_stmt 0 view .LVU2412
	cmp	r3, #0
	beq	.L624
	.loc 1 4450 13 is_stmt 1 view .LVU2413
	blx	r3
.LVL585:
.L624:
	.loc 1 4450 13 is_stmt 0 view .LVU2414
.LBE3823:
.LBE3822:
.LBE3821:
.LBE3820:
.LBE3819:
.LBE3818:
.LBE3825:
.LBE3831:
.LBE3862:
.LBE3880:
.LBE3889:
.LBE3897:
.LBE3907:
	.loc 1 4239 26 view .LVU2415
	mov	r3, #0
	b	.L626
.LVL586:
.L473:
.LBB3908:
.LBB3898:
.LBB3890:
.LBB3881:
.LBB3863:
	.loc 1 4121 13 is_stmt 1 view .LVU2416
	.loc 1 4121 24 is_stmt 0 view .LVU2417
	mov	r2, #10
.LBB3832:
.LBB3833:
	.loc 1 3622 15 view .LVU2418
	ldr	r3, [sp, #12]
.LBE3833:
.LBE3832:
	.loc 1 4121 24 view .LVU2419
	strb	r2, [r6]
	.loc 1 4122 13 is_stmt 1 view .LVU2420
.LVL587:
.LBB3835:
.LBI3832:
	.loc 1 3621 24 view .LVU2421
.LBB3834:
	.loc 1 3622 5 view .LVU2422
	.loc 1 3622 8 is_stmt 0 view .LVU2423
	cmp	r3, #1
	bhi	.L637
	b	.L822
.LVL588:
.L496:
	.loc 1 3622 8 view .LVU2424
.LBE3834:
.LBE3835:
	.loc 1 3962 13 is_stmt 1 view .LVU2425
	.loc 1 3962 24 is_stmt 0 view .LVU2426
	mov	r2, #8
.LBB3836:
.LBB3837:
	.loc 1 3622 15 view .LVU2427
	ldr	r3, [sp, #12]
.LBE3837:
.LBE3836:
	.loc 1 3962 24 view .LVU2428
	strb	r2, [r6]
	.loc 1 3963 13 is_stmt 1 view .LVU2429
.LVL589:
.LBB3839:
.LBI3836:
	.loc 1 3621 24 view .LVU2430
.LBB3838:
	.loc 1 3622 5 view .LVU2431
	.loc 1 3622 8 is_stmt 0 view .LVU2432
	cmp	r3, #1
	bhi	.L617
	b	.L818
.LVL590:
.L832:
	.loc 1 3622 8 view .LVU2433
	str	r3, [sp, #24]
	lsl	r0, r3, #3
.L649:
.LBE3838:
.LBE3839:
.LBE3863:
.LBE3881:
	.loc 1 4168 28 view .LVU2434
	ldr	r6, [lr]
.LBB3882:
.LBB3864:
	.loc 1 3832 20 view .LVU2435
	ldr	r1, [sp, #8]
	add	lr, r6, #16
	b	.L652
.LVL591:
.L834:
	.loc 1 3832 20 view .LVU2436
.LBE3864:
.LBE3882:
.LBE3890:
.LBE3898:
.LBE3908:
	.loc 1 4245 9 is_stmt 1 view .LVU2437
	ldr	r0, [sp, #32]
	bl	free
.LVL592:
	b	.L653
.LVL593:
.L785:
	.loc 1 4245 9 is_stmt 0 view .LVU2438
	ldr	r0, [sp, #4]
.L789:
.LBB3909:
.LBB3899:
.LBB3891:
.LBB3883:
.LBB3865:
.LBB3840:
.LBB3808:
.LBB3806:
.LBB3804:
.LBB3797:
.LBI3797:
	.loc 1 3610 23 is_stmt 1 view .LVU2439
.LVL594:
.LBB3798:
	.loc 1 3612 9 view .LVU2440
.LBB3799:
.LBI3799:
	.loc 1 4445 6 view .LVU2441
.LBB3800:
	.loc 1 4446 5 view .LVU2442
	.loc 1 4446 8 is_stmt 0 view .LVU2443
	ldrb	r3, [r0, #32]	@ zero_extendqisi2
	cmp	r3, #0
	bne	.L610
.LVL595:
.LBB3801:
.LBI3801:
	.loc 1 4445 6 is_stmt 1 view .LVU2444
.LBB3802:
	.loc 1 4447 9 view .LVU2445
	.loc 1 4448 9 view .LVU2446
	.loc 1 4448 21 is_stmt 0 view .LVU2447
	mov	r1, #3
	.loc 1 4449 17 view .LVU2448
	ldr	r3, [r0]
	.loc 1 4448 21 view .LVU2449
	strb	r1, [r0, #32]
	.loc 1 4449 9 is_stmt 1 view .LVU2450
	.loc 1 4449 12 is_stmt 0 view .LVU2451
	cmp	r3, #0
	beq	.L610
	.loc 1 4450 13 is_stmt 1 view .LVU2452
	blx	r3
.LVL596:
	.loc 1 4450 13 is_stmt 0 view .LVU2453
	b	.L610
.LVL597:
.L835:
	.loc 1 4450 13 view .LVU2454
.LBE3802:
.LBE3801:
.LBE3800:
.LBE3799:
.LBE3798:
.LBE3797:
.LBE3804:
.LBE3806:
.LBE3808:
.LBE3840:
.LBB3841:
.LBB3596:
.LBB3593:
.LBB3588:
.LBB3583:
.LBB3576:
.LBB3575:
.LBB3574:
.LBB3572:
.LBI3572:
	.loc 1 4445 6 is_stmt 1 view .LVU2455
.LBB3573:
	.loc 1 4447 9 view .LVU2456
	.loc 1 4448 9 view .LVU2457
	.loc 1 4448 21 is_stmt 0 view .LVU2458
	mov	r1, #3
	.loc 1 4449 17 view .LVU2459
	ldr	r3, [r7]
	.loc 1 4448 21 view .LVU2460
	strb	r1, [r7, #32]
.LVL598:
	.loc 1 4449 9 is_stmt 1 view .LVU2461
	.loc 1 4449 12 is_stmt 0 view .LVU2462
	cmp	r3, #0
	beq	.L589
	.loc 1 4450 13 is_stmt 1 view .LVU2463
	mov	r0, r7
.LVL599:
	.loc 1 4450 13 is_stmt 0 view .LVU2464
	blx	r3
.LVL600:
	b	.L589
.LVL601:
.L582:
	.loc 1 4450 13 view .LVU2465
.LBE3573:
.LBE3572:
.LBE3574:
.LBE3575:
.LBE3576:
.LBE3583:
.LBE3588:
.LBE3593:
.LBE3596:
.LBE3841:
.LBB3842:
.LBB3561:
.LBB3558:
.LBB3555:
	.loc 1 3637 5 is_stmt 1 view .LVU2466
	.loc 1 3639 33 is_stmt 0 view .LVU2467
	sub	r3, r3, #4
	str	r3, [sp, #12]
	ldr	r3, [r1, #1]	@ unaligned
	.loc 1 3638 18 view .LVU2468
	add	r1, r1, #5
	rev	r3, r3
.LVL602:
	.loc 1 3638 5 is_stmt 1 view .LVU2469
	.loc 1 3639 5 view .LVU2470
	.loc 1 3640 5 view .LVU2471
	.loc 1 3638 18 is_stmt 0 view .LVU2472
	str	r1, [sp, #8]
.LVL603:
	.loc 1 3638 18 view .LVU2473
.LBE3555:
.LBE3558:
.LBE3561:
.LBE3842:
	.loc 1 4049 29 discriminator 1 view .LVU2474
	asr	r2, r3, #31
.LVL604:
.LBB3843:
.LBB3562:
.LBB3559:
.LBB3556:
	.loc 1 3640 12 view .LVU2475
	b	.L591
.LVL605:
.L831:
	.loc 1 3640 12 view .LVU2476
	ldr	r0, [sp, #4]
.LVL606:
	.loc 1 3640 12 view .LVU2477
.LBE3556:
.LBE3559:
.LBE3562:
.LBE3843:
.LBB3844:
.LBB3695:
.LBB3684:
.LBI3684:
	.loc 1 3632 24 is_stmt 1 view .LVU2478
.LBB3685:
	.loc 1 3634 9 view .LVU2479
.LBB3686:
.LBI3686:
	.loc 1 4445 6 view .LVU2480
.LBB3687:
	.loc 1 4446 5 view .LVU2481
	.loc 1 4446 8 is_stmt 0 view .LVU2482
	ldrb	r3, [r0, #32]	@ zero_extendqisi2
	cmp	r3, #0
	beq	.L839
.LVL607:
.L536:
	.loc 1 4446 8 view .LVU2483
.LBE3687:
.LBE3686:
.LBE3685:
.LBE3684:
.LBE3695:
.LBE3844:
.LBE3865:
.LBE3883:
.LBE3891:
.LBE3899:
.LBE3909:
	.loc 1 4239 26 view .LVU2484
	mov	r3, #0
	b	.L537
.LVL608:
.L836:
	.loc 1 4239 26 view .LVU2485
	ldr	r0, [sp, #4]
.LVL609:
.LBB3910:
.LBB3900:
.LBB3892:
.LBB3884:
.LBB3866:
.LBB3845:
.LBB3654:
.LBB3641:
.LBI3641:
	.loc 1 3610 23 is_stmt 1 view .LVU2486
.LBB3642:
	.loc 1 3612 9 view .LVU2487
.LBB3643:
.LBI3643:
	.loc 1 4445 6 view .LVU2488
.LBB3644:
	.loc 1 4446 5 view .LVU2489
	.loc 1 4446 8 is_stmt 0 view .LVU2490
	ldrb	r2, [r0, #32]	@ zero_extendqisi2
	cmp	r2, #0
.LBE3644:
.LBE3643:
.LBE3642:
.LBE3641:
.LBE3654:
.LBE3845:
	.loc 1 3977 23 discriminator 1 view .LVU2491
	strne	r3, [r6, #4]
.LBB3846:
.LBB3655:
.LBB3650:
.LBB3649:
.LBB3648:
.LBB3647:
	.loc 1 4446 8 view .LVU2492
	bne	.L610
.LVL610:
.LBB3645:
.LBI3645:
	.loc 1 4445 6 is_stmt 1 view .LVU2493
.LBB3646:
	.loc 1 4447 9 view .LVU2494
	.loc 1 4448 9 view .LVU2495
	.loc 1 4448 21 is_stmt 0 view .LVU2496
	mov	r1, #3
	.loc 1 4449 17 view .LVU2497
	ldr	r3, [r0]
	.loc 1 4448 21 view .LVU2498
	strb	r1, [r0, #32]
	.loc 1 4449 9 is_stmt 1 view .LVU2499
	.loc 1 4449 12 is_stmt 0 view .LVU2500
	cmp	r3, #0
	beq	.L523
	.loc 1 4450 13 is_stmt 1 view .LVU2501
	blx	r3
.LVL611:
	.loc 1 4450 13 is_stmt 0 view .LVU2502
	ldr	r0, [sp, #4]
.L523:
.LVL612:
	.loc 1 4450 13 view .LVU2503
.LBE3646:
.LBE3645:
.LBE3647:
.LBE3648:
.LBE3649:
.LBE3650:
.LBE3655:
.LBE3846:
	.loc 1 3977 23 discriminator 1 view .LVU2504
	mov	r3, #0
	str	r3, [r6, #4]
	.loc 1 3978 13 is_stmt 1 view .LVU2505
.LVL613:
.LBB3847:
	.loc 1 3659 20 view .LVU2506
	.loc 1 3662 5 view .LVU2507
.LBB3666:
	.loc 1 3654 22 view .LVU2508
	.loc 1 3654 67 view .LVU2509
.LBB3664:
	.loc 1 3610 23 view .LVU2510
.LBB3662:
	.loc 1 3611 5 view .LVU2511
	b	.L789
.LVL614:
.L837:
	.loc 1 3611 5 is_stmt 0 view .LVU2512
.LBE3662:
.LBE3664:
.LBE3666:
.LBE3847:
.LBB3848:
.LBB3719:
.LBB3716:
.LBB3713:
.LBB3702:
.LBI3702:
	.loc 1 3632 24 is_stmt 1 view .LVU2513
.LBB3703:
	.loc 1 3634 9 view .LVU2514
.LBB3704:
.LBI3704:
	.loc 1 4445 6 view .LVU2515
.LBB3705:
	.loc 1 4446 5 view .LVU2516
	.loc 1 4446 8 is_stmt 0 view .LVU2517
	ldrb	r3, [r7, #32]	@ zero_extendqisi2
	cmp	r3, #0
	beq	.L840
.LVL615:
.L544:
	.loc 1 4446 8 view .LVU2518
.LBE3705:
.LBE3704:
.LBE3703:
.LBE3702:
.LBE3713:
.LBE3716:
.LBE3719:
.LBE3848:
.LBE3866:
.LBE3884:
.LBE3892:
.LBE3900:
.LBE3910:
	.loc 1 4239 26 view .LVU2519
	mov	r3, #0
	b	.L546
.LVL616:
.L838:
.LBB3911:
.LBB3901:
.LBB3893:
.LBB3885:
.LBB3867:
.LBB3849:
.LBB3747:
.LBB3744:
.LBB3741:
.LBB3730:
.LBI3730:
	.loc 1 3643 24 is_stmt 1 view .LVU2520
.LBB3731:
	.loc 1 3645 9 view .LVU2521
.LBB3732:
.LBI3732:
	.loc 1 4445 6 view .LVU2522
.LBB3733:
	.loc 1 4446 5 view .LVU2523
	.loc 1 4446 8 is_stmt 0 view .LVU2524
	ldrb	r3, [r7, #32]	@ zero_extendqisi2
	cmp	r3, #0
	beq	.L841
.LVL617:
.L549:
	.loc 1 4446 8 view .LVU2525
.LBE3733:
.LBE3732:
.LBE3731:
.LBE3730:
.LBE3741:
.LBE3744:
.LBE3747:
.LBE3849:
.LBE3867:
.LBE3885:
.LBE3893:
.LBE3901:
.LBE3911:
	.loc 1 4239 26 view .LVU2526
	mov	r2, #0
	mov	r3, #0
	b	.L551
.LVL618:
.L839:
.LBB3912:
.LBB3902:
.LBB3894:
.LBB3886:
.LBB3868:
.LBB3850:
.LBB3696:
.LBB3693:
.LBB3692:
.LBB3691:
.LBB3690:
.LBB3688:
.LBI3688:
	.loc 1 4445 6 is_stmt 1 view .LVU2527
.LBB3689:
	.loc 1 4447 9 view .LVU2528
	.loc 1 4448 9 view .LVU2529
	.loc 1 4448 21 is_stmt 0 view .LVU2530
	mov	r1, #3
	.loc 1 4449 17 view .LVU2531
	ldr	r3, [r0]
	.loc 1 4448 21 view .LVU2532
	strb	r1, [r0, #32]
	.loc 1 4449 9 is_stmt 1 view .LVU2533
	.loc 1 4449 12 is_stmt 0 view .LVU2534
	cmp	r3, #0
	beq	.L536
	.loc 1 4450 13 is_stmt 1 view .LVU2535
	blx	r3
.LVL619:
	.loc 1 4450 13 is_stmt 0 view .LVU2536
	b	.L536
.LVL620:
.L840:
	.loc 1 4450 13 view .LVU2537
.LBE3689:
.LBE3688:
.LBE3690:
.LBE3691:
.LBE3692:
.LBE3693:
.LBE3696:
.LBE3850:
.LBB3851:
.LBB3720:
.LBB3717:
.LBB3714:
.LBB3711:
.LBB3710:
.LBB3709:
.LBB3708:
.LBB3706:
.LBI3706:
	.loc 1 4445 6 is_stmt 1 view .LVU2538
.LBB3707:
	.loc 1 4447 9 view .LVU2539
	.loc 1 4448 9 view .LVU2540
	.loc 1 4449 17 is_stmt 0 view .LVU2541
	ldr	r3, [r7]
	.loc 1 4448 21 view .LVU2542
	strb	r2, [r7, #32]
	.loc 1 4449 9 is_stmt 1 view .LVU2543
	.loc 1 4449 12 is_stmt 0 view .LVU2544
	cmp	r3, #0
	beq	.L544
	.loc 1 4450 13 is_stmt 1 view .LVU2545
	mov	r1, r2
	mov	r0, r7
.LVL621:
	.loc 1 4450 13 is_stmt 0 view .LVU2546
	blx	r3
.LVL622:
	.loc 1 4450 13 view .LVU2547
	b	.L544
.LVL623:
.L841:
	.loc 1 4450 13 view .LVU2548
.LBE3707:
.LBE3706:
.LBE3708:
.LBE3709:
.LBE3710:
.LBE3711:
.LBE3714:
.LBE3717:
.LBE3720:
.LBE3851:
.LBB3852:
.LBB3748:
.LBB3745:
.LBB3742:
.LBB3739:
.LBB3738:
.LBB3737:
.LBB3736:
.LBB3734:
.LBI3734:
	.loc 1 4445 6 is_stmt 1 view .LVU2549
.LBB3735:
	.loc 1 4447 9 view .LVU2550
	.loc 1 4448 9 view .LVU2551
	.loc 1 4448 21 is_stmt 0 view .LVU2552
	mov	r1, #3
	.loc 1 4449 17 view .LVU2553
	ldr	r3, [r7]
	.loc 1 4448 21 view .LVU2554
	strb	r1, [r7, #32]
	.loc 1 4449 9 is_stmt 1 view .LVU2555
	.loc 1 4449 12 is_stmt 0 view .LVU2556
	cmp	r3, #0
	beq	.L549
	.loc 1 4450 13 is_stmt 1 view .LVU2557
	mov	r0, r7
.LVL624:
	.loc 1 4450 13 is_stmt 0 view .LVU2558
	blx	r3
.LVL625:
	.loc 1 4450 13 view .LVU2559
	b	.L549
.LVL626:
.L467:
	.loc 1 4450 13 view .LVU2560
.LBE3735:
.LBE3734:
.LBE3736:
.LBE3737:
.LBE3738:
.LBE3739:
.LBE3742:
.LBE3745:
.LBE3748:
.LBE3852:
	.loc 1 3902 13 is_stmt 1 view .LVU2561
	.loc 1 3902 24 is_stmt 0 view .LVU2562
	mov	r3, #6
	.loc 1 3903 27 view .LVU2563
	mov	r2, #0
	ldr	r7, [sp, #4]
	str	r0, [r6, #8]
	str	r2, [r6, #12]
	.loc 1 3902 24 view .LVU2564
	strb	r3, [r6]
	.loc 1 3903 13 is_stmt 1 view .LVU2565
	.loc 1 3904 13 view .LVU2566
	b	.L504
.LBE3868:
.LBE3886:
.LBE3894:
.LBE3902:
.LBE3912:
	.cfi_endproc
.LFE453:
	.size	mpack_tree_parse.part.0.constprop.0, .-mpack_tree_parse.part.0.constprop.0
	.section	.text.mpack_growable_writer_flush,"ax",%progbits
	.align	2
	.syntax unified
	.arm
	.type	mpack_growable_writer_flush, %function
mpack_growable_writer_flush:
.LVL627:
.LFB153:
	.loc 1 745 97 view -0
	.cfi_startproc
	@ args = 0, pretend = 0, frame = 0
	@ frame_needed = 0, uses_anonymous_args = 0
	.loc 1 760 5 view .LVU2568
	.loc 1 745 97 is_stmt 0 view .LVU2569
	push	{r4, r5, r6, r7, r8, lr}
	.cfi_def_cfa_offset 24
	.cfi_offset 4, -24
	.cfi_offset 5, -20
	.cfi_offset 6, -16
	.cfi_offset 7, -12
	.cfi_offset 8, -8
	.cfi_offset 14, -4
	.loc 1 745 97 view .LVU2570
	mov	r5, r0
	.loc 1 760 23 view .LVU2571
	ldr	r0, [r0, #16]
.LVL628:
	.loc 1 745 97 view .LVU2572
	mov	r7, r1
	.loc 1 760 8 view .LVU2573
	cmp	r0, r1
	.loc 1 745 97 view .LVU2574
	mov	r6, r2
	.loc 1 774 41 discriminator 1 view .LVU2575
	ldr	r3, [r5, #24]
	.loc 1 760 8 view .LVU2576
	beq	.L843
	.loc 1 771 5 is_stmt 1 view .LVU2577
	.loc 1 774 5 view .LVU2578
	.loc 1 774 64 is_stmt 0 discriminator 1 view .LVU2579
	ldr	r4, [r5, #20]
	.loc 1 774 48 discriminator 1 view .LVU2580
	add	r3, r3, r2
.LVL629:
.L844:
	.loc 1 780 5 is_stmt 1 view .LVU2581
	.loc 1 781 21 is_stmt 0 view .LVU2582
	cmp	r3, r4, lsl #1
	.loc 1 780 12 view .LVU2583
	lsl	r4, r4, #1
.LVL630:
	.loc 1 781 5 is_stmt 1 view .LVU2584
	.loc 1 781 21 view .LVU2585
	bls	.L847
.L848:
	.loc 1 782 9 view .LVU2586
	.loc 1 782 18 is_stmt 0 view .LVU2587
	lsl	r4, r4, #1
.LVL631:
	.loc 1 781 21 is_stmt 1 view .LVU2588
	cmp	r4, r3
	bcc	.L848
.L847:
	.loc 1 784 5 view .LVU2589
	.loc 1 787 5 view .LVU2590
.LVL632:
.LBB3919:
.LBI3919:
	.loc 2 741 28 view .LVU2591
.LBB3920:
	.loc 2 742 13 view .LVU2592
	.loc 2 743 13 view .LVU2593
	.loc 2 743 20 is_stmt 0 view .LVU2594
	mov	r1, r4
.LVL633:
	.loc 2 743 20 view .LVU2595
	bl	realloc
.LVL634:
	.loc 2 743 20 view .LVU2596
.LBE3920:
.LBE3919:
	.loc 1 788 5 is_stmt 1 view .LVU2597
	.loc 1 788 8 is_stmt 0 view .LVU2598
	cmp	r0, #0
	.loc 1 788 8 view .LVU2599
	beq	.L859
	.loc 1 792 5 is_stmt 1 view .LVU2600
	.loc 1 796 8 is_stmt 0 view .LVU2601
	cmp	r6, #0
	.loc 1 792 20 view .LVU2602
	str	r0, [r5, #16]
	.loc 1 793 5 is_stmt 1 view .LVU2603
	.loc 1 793 18 is_stmt 0 view .LVU2604
	str	r4, [r5, #20]
	.loc 1 796 5 is_stmt 1 view .LVU2605
	.loc 1 796 8 is_stmt 0 view .LVU2606
	popeq	{r4, r5, r6, r7, r8, pc}
	.loc 1 797 9 is_stmt 1 view .LVU2607
	.loc 1 797 31 is_stmt 0 view .LVU2608
	ldr	r3, [r5, #24]
	.loc 1 797 9 view .LVU2609
	mov	r1, r7
	add	r0, r0, r3
.LVL635:
	.loc 1 797 9 view .LVU2610
	mov	r2, r6
	bl	memcpy
.LVL636:
	.loc 1 798 9 is_stmt 1 view .LVU2611
	.loc 1 798 22 is_stmt 0 view .LVU2612
	ldr	r3, [r5, #24]
	add	r3, r3, r6
	str	r3, [r5, #24]
	.loc 1 801 5 is_stmt 1 view .LVU2613
	.loc 1 802 1 is_stmt 0 view .LVU2614
	pop	{r4, r5, r6, r7, r8, pc}
.LVL637:
.L843:
	.loc 1 763 9 is_stmt 1 view .LVU2615
	.loc 1 763 12 is_stmt 0 view .LVU2616
	cmp	r3, r2
	popeq	{r4, r5, r6, r7, r8, pc}
	.loc 1 767 9 is_stmt 1 view .LVU2617
	.loc 1 774 64 is_stmt 0 discriminator 1 view .LVU2618
	mov	r3, r2
	.loc 1 768 15 view .LVU2619
	mov	r6, #0
	.loc 1 774 64 discriminator 1 view .LVU2620
	ldr	r4, [r5, #20]
	.loc 1 767 22 view .LVU2621
	str	r2, [r5, #24]
	.loc 1 768 9 is_stmt 1 view .LVU2622
.LVL638:
	.loc 1 771 5 view .LVU2623
	.loc 1 774 5 view .LVU2624
	b	.L844
.LVL639:
.L859:
	.loc 1 789 9 view .LVU2625
.LBB3921:
.LBI3921:
	.loc 1 915 6 view .LVU2626
.LBB3922:
	.loc 1 916 5 view .LVU2627
	.loc 1 918 5 view .LVU2628
	.loc 1 918 8 is_stmt 0 view .LVU2629
	ldrb	r3, [r5, #28]	@ zero_extendqisi2
	cmp	r3, #0
	popne	{r4, r5, r6, r7, r8, pc}
.LVL640:
.LBB3923:
.LBI3923:
	.loc 1 915 6 is_stmt 1 view .LVU2630
.LBB3924:
	.loc 1 919 9 view .LVU2631
	.loc 1 919 23 is_stmt 0 view .LVU2632
	mov	r1, #6
	.loc 1 920 19 view .LVU2633
	ldr	r3, [r5, #4]
	.loc 1 919 23 view .LVU2634
	strb	r1, [r5, #28]
	.loc 1 920 9 is_stmt 1 view .LVU2635
	.loc 1 920 12 is_stmt 0 view .LVU2636
	cmp	r3, #0
	popeq	{r4, r5, r6, r7, r8, pc}
	.loc 1 921 13 is_stmt 1 view .LVU2637
	mov	r0, r5
.LVL641:
	.loc 1 921 13 is_stmt 0 view .LVU2638
.LBE3924:
.LBE3923:
.LBE3922:
.LBE3921:
	.loc 1 802 1 view .LVU2639
	pop	{r4, r5, r6, r7, r8, lr}
	.cfi_restore 14
	.cfi_restore 8
	.cfi_restore 7
	.cfi_restore 6
	.cfi_restore 5
	.cfi_restore 4
	.cfi_def_cfa_offset 0
.LVL642:
.LBB3928:
.LBB3927:
.LBB3926:
.LBB3925:
	.loc 1 921 13 view .LVU2640
	bx	r3	@ indirect register sibling call
.LVL643:
	.loc 1 921 13 view .LVU2641
.LBE3925:
.LBE3926:
.LBE3927:
.LBE3928:
	.cfi_endproc
.LFE153:
	.size	mpack_growable_writer_flush, .-mpack_growable_writer_flush
	.section	.text.mpack_realloc,"ax",%progbits
	.align	2
	.global	mpack_realloc
	.syntax unified
	.arm
	.type	mpack_realloc, %function
mpack_realloc:
.LVL644:
.LFB8:
	.loc 2 741 92 is_stmt 1 view -0
	.cfi_startproc
	@ args = 0, pretend = 0, frame = 0
	@ frame_needed = 0, uses_anonymous_args = 0
	@ link register save eliminated.
	.loc 2 742 13 view .LVU2643
	.loc 2 743 13 view .LVU2644
	.loc 2 743 20 is_stmt 0 view .LVU2645
	mov	r1, r2
.LVL645:
	.loc 2 743 20 view .LVU2646
	b	realloc
.LVL646:
	.loc 2 743 20 view .LVU2647
	.cfi_endproc
.LFE8:
	.size	mpack_realloc, .-mpack_realloc
	.section	.text.mpack_tag_nil,"ax",%progbits
	.align	2
	.global	mpack_tag_nil
	.syntax unified
	.arm
	.type	mpack_tag_nil, %function
mpack_tag_nil:
.LVL647:
.LFB9:
	.loc 2 926 47 is_stmt 1 view -0
	.cfi_startproc
	@ args = 0, pretend = 0, frame = 16
	@ frame_needed = 0, uses_anonymous_args = 0
	@ link register save eliminated.
	.loc 2 927 5 view .LVU2649
	.loc 2 928 5 view .LVU2650
	.loc 2 926 47 is_stmt 0 view .LVU2651
	sub	sp, sp, #16
	.cfi_def_cfa_offset 16
	.loc 2 928 5 view .LVU2652
	mov	r2, #0
	mov	r3, sp
	.loc 2 929 14 view .LVU2653
	mov	r1, #1
	.loc 2 926 47 view .LVU2654
	mov	ip, r0
	.loc 2 928 5 view .LVU2655
	str	r2, [sp]
	str	r2, [r3, #4]
	.loc 2 929 14 view .LVU2656
	strb	r1, [sp]
	.loc 2 928 5 view .LVU2657
	str	r2, [r3, #8]
	str	r2, [r3, #12]
	.loc 2 929 5 is_stmt 1 view .LVU2658
	.loc 2 930 5 view .LVU2659
	.loc 2 930 12 is_stmt 0 view .LVU2660
	ldm	r3, {r0, r1, r2, r3}
.LVL648:
	.loc 2 930 12 view .LVU2661
	stm	ip, {r0, r1, r2, r3}
	.loc 2 931 1 view .LVU2662
	mov	r0, ip
	add	sp, sp, #16
	.cfi_def_cfa_offset 0
	@ sp needed
	bx	lr
	.cfi_endproc
.LFE9:
	.size	mpack_tag_nil, .-mpack_tag_nil
	.section	.text.mpack_tag_bool,"ax",%progbits
	.align	2
	.global	mpack_tag_bool
	.syntax unified
	.arm
	.type	mpack_tag_bool, %function
mpack_tag_bool:
.LVL649:
.LFB10:
	.loc 2 934 52 is_stmt 1 view -0
	.cfi_startproc
	@ args = 0, pretend = 0, frame = 16
	@ frame_needed = 0, uses_anonymous_args = 0
	.loc 2 935 5 view .LVU2664
	.loc 2 936 5 view .LVU2665
	.loc 2 934 52 is_stmt 0 view .LVU2666
	str	lr, [sp, #-4]!
	.cfi_def_cfa_offset 4
	.cfi_offset 14, -4
	sub	sp, sp, #20
	.cfi_def_cfa_offset 24
	.loc 2 936 5 view .LVU2667
	mov	r2, #0
	mov	r3, sp
	.loc 2 937 14 view .LVU2668
	mov	lr, #2
	.loc 2 934 52 view .LVU2669
	mov	ip, r0
	.loc 2 936 5 view .LVU2670
	str	r2, [sp]
	str	r2, [r3, #8]
	.loc 2 937 14 view .LVU2671
	strb	lr, [sp]
	.loc 2 938 13 view .LVU2672
	strb	r1, [sp, #8]
	.loc 2 936 5 view .LVU2673
	str	r2, [r3, #12]
	.loc 2 937 5 is_stmt 1 view .LVU2674
	.loc 2 938 5 view .LVU2675
	.loc 2 939 5 view .LVU2676
	.loc 2 936 5 is_stmt 0 view .LVU2677
	str	r2, [r3, #4]
	.loc 2 939 12 view .LVU2678
	ldm	r3, {r0, r1, r2, r3}
.LVL650:
	.loc 2 939 12 view .LVU2679
	stm	ip, {r0, r1, r2, r3}
	.loc 2 940 1 view .LVU2680
	mov	r0, ip
	add	sp, sp, #20
	.cfi_def_cfa_offset 4
	@ sp needed
	ldr	pc, [sp], #4
	.cfi_endproc
.LFE10:
	.size	mpack_tag_bool, .-mpack_tag_bool
	.section	.text.mpack_tag_true,"ax",%progbits
	.align	2
	.global	mpack_tag_true
	.syntax unified
	.arm
	.type	mpack_tag_true, %function
mpack_tag_true:
.LVL651:
.LFB11:
	.loc 2 943 48 is_stmt 1 view -0
	.cfi_startproc
	@ args = 0, pretend = 0, frame = 16
	@ frame_needed = 0, uses_anonymous_args = 0
	.loc 2 944 5 view .LVU2682
	.loc 2 945 5 view .LVU2683
	.loc 2 943 48 is_stmt 0 view .LVU2684
	str	lr, [sp, #-4]!
	.cfi_def_cfa_offset 4
	.cfi_offset 14, -4
	sub	sp, sp, #20
	.cfi_def_cfa_offset 24
	.loc 2 945 5 view .LVU2685
	mov	r2, #0
	mov	r3, sp
	.loc 2 946 14 view .LVU2686
	mov	lr, #2
	.loc 2 947 13 view .LVU2687
	mov	r1, #1
	.loc 2 943 48 view .LVU2688
	mov	ip, r0
	.loc 2 945 5 view .LVU2689
	str	r2, [sp]
	str	r2, [r3, #8]
	.loc 2 946 14 view .LVU2690
	strb	lr, [sp]
	.loc 2 947 13 view .LVU2691
	strb	r1, [sp, #8]
	.loc 2 945 5 view .LVU2692
	str	r2, [r3, #12]
	.loc 2 946 5 is_stmt 1 view .LVU2693
	.loc 2 947 5 view .LVU2694
	.loc 2 948 5 view .LVU2695
	.loc 2 945 5 is_stmt 0 view .LVU2696
	str	r2, [r3, #4]
	.loc 2 948 12 view .LVU2697
	ldm	r3, {r0, r1, r2, r3}
.LVL652:
	.loc 2 948 12 view .LVU2698
	stm	ip, {r0, r1, r2, r3}
	.loc 2 949 1 view .LVU2699
	mov	r0, ip
	add	sp, sp, #20
	.cfi_def_cfa_offset 4
	@ sp needed
	ldr	pc, [sp], #4
	.cfi_endproc
.LFE11:
	.size	mpack_tag_true, .-mpack_tag_true
	.section	.text.mpack_tag_false,"ax",%progbits
	.align	2
	.global	mpack_tag_false
	.syntax unified
	.arm
	.type	mpack_tag_false, %function
mpack_tag_false:
.LVL653:
.LFB12:
	.loc 2 952 49 is_stmt 1 view -0
	.cfi_startproc
	@ args = 0, pretend = 0, frame = 16
	@ frame_needed = 0, uses_anonymous_args = 0
	@ link register save eliminated.
	.loc 2 953 5 view .LVU2701
	.loc 2 954 5 view .LVU2702
	.loc 2 952 49 is_stmt 0 view .LVU2703
	sub	sp, sp, #16
	.cfi_def_cfa_offset 16
	.loc 2 954 5 view .LVU2704
	mov	r2, #0
	mov	r3, sp
	.loc 2 955 14 view .LVU2705
	mov	r1, #2
	.loc 2 952 49 view .LVU2706
	mov	ip, r0
	.loc 2 954 5 view .LVU2707
	str	r2, [sp]
	str	r2, [r3, #4]
	.loc 2 955 14 view .LVU2708
	strb	r1, [sp]
	.loc 2 954 5 view .LVU2709
	str	r2, [r3, #8]
	str	r2, [r3, #12]
	.loc 2 955 5 is_stmt 1 view .LVU2710
	.loc 2 956 5 view .LVU2711
	.loc 2 957 5 view .LVU2712
	.loc 2 957 12 is_stmt 0 view .LVU2713
	ldm	r3, {r0, r1, r2, r3}
.LVL654:
	.loc 2 957 12 view .LVU2714
	stm	ip, {r0, r1, r2, r3}
	.loc 2 958 1 view .LVU2715
	mov	r0, ip
	add	sp, sp, #16
	.cfi_def_cfa_offset 0
	@ sp needed
	bx	lr
	.cfi_endproc
.LFE12:
	.size	mpack_tag_false, .-mpack_tag_false
	.section	.text.mpack_tag_int,"ax",%progbits
	.align	2
	.global	mpack_tag_int
	.syntax unified
	.arm
	.type	mpack_tag_int, %function
mpack_tag_int:
.LVL655:
.LFB13:
	.loc 2 961 56 is_stmt 1 view -0
	.cfi_startproc
	@ args = 0, pretend = 0, frame = 16
	@ frame_needed = 0, uses_anonymous_args = 0
	.loc 2 962 5 view .LVU2717
	.loc 2 963 5 view .LVU2718
	.loc 2 961 56 is_stmt 0 view .LVU2719
	push	{r4, r5, lr}
	.cfi_def_cfa_offset 12
	.cfi_offset 4, -12
	.cfi_offset 5, -8
	.cfi_offset 14, -4
	mov	r4, r2
	mov	r5, r3
	sub	sp, sp, #20
	.cfi_def_cfa_offset 32
	.loc 2 963 5 view .LVU2720
	mov	r1, #0
	mov	r3, sp
	.loc 2 964 14 view .LVU2721
	mov	lr, #5
	.loc 2 961 56 view .LVU2722
	mov	ip, r0
	.loc 2 965 13 view .LVU2723
	strd	r4, [sp, #8]
	.loc 2 963 5 view .LVU2724
	str	r1, [sp]
	str	r1, [r3, #4]
	.loc 2 964 5 is_stmt 1 view .LVU2725
	.loc 2 964 14 is_stmt 0 view .LVU2726
	strb	lr, [sp]
	.loc 2 965 5 is_stmt 1 view .LVU2727
	.loc 2 966 5 view .LVU2728
	.loc 2 966 12 is_stmt 0 view .LVU2729
	ldm	r3, {r0, r1, r2, r3}
.LVL656:
	.loc 2 966 12 view .LVU2730
	stm	ip, {r0, r1, r2, r3}
	.loc 2 967 1 view .LVU2731
	mov	r0, ip
	add	sp, sp, #20
	.cfi_def_cfa_offset 12
	@ sp needed
	pop	{r4, r5, pc}
	.cfi_endproc
.LFE13:
	.size	mpack_tag_int, .-mpack_tag_int
	.section	.text.mpack_tag_uint,"ax",%progbits
	.align	2
	.global	mpack_tag_uint
	.syntax unified
	.arm
	.type	mpack_tag_uint, %function
mpack_tag_uint:
.LVL657:
.LFB14:
	.loc 2 970 58 is_stmt 1 view -0
	.cfi_startproc
	@ args = 0, pretend = 0, frame = 16
	@ frame_needed = 0, uses_anonymous_args = 0
	.loc 2 971 5 view .LVU2733
	.loc 2 972 5 view .LVU2734
	.loc 2 970 58 is_stmt 0 view .LVU2735
	push	{r4, r5, lr}
	.cfi_def_cfa_offset 12
	.cfi_offset 4, -12
	.cfi_offset 5, -8
	.cfi_offset 14, -4
	mov	r4, r2
	mov	r5, r3
	sub	sp, sp, #20
	.cfi_def_cfa_offset 32
	.loc 2 972 5 view .LVU2736
	mov	r1, #0
	mov	r3, sp
	.loc 2 973 14 view .LVU2737
	mov	lr, #6
	.loc 2 970 58 view .LVU2738
	mov	ip, r0
	.loc 2 974 13 view .LVU2739
	strd	r4, [sp, #8]
	.loc 2 972 5 view .LVU2740
	str	r1, [sp]
	str	r1, [r3, #4]
	.loc 2 973 5 is_stmt 1 view .LVU2741
	.loc 2 973 14 is_stmt 0 view .LVU2742
	strb	lr, [sp]
	.loc 2 974 5 is_stmt 1 view .LVU2743
	.loc 2 975 5 view .LVU2744
	.loc 2 975 12 is_stmt 0 view .LVU2745
	ldm	r3, {r0, r1, r2, r3}
.LVL658:
	.loc 2 975 12 view .LVU2746
	stm	ip, {r0, r1, r2, r3}
	.loc 2 976 1 view .LVU2747
	mov	r0, ip
	add	sp, sp, #20
	.cfi_def_cfa_offset 12
	@ sp needed
	pop	{r4, r5, pc}
	.cfi_endproc
.LFE14:
	.size	mpack_tag_uint, .-mpack_tag_uint
	.section	.text.mpack_tag_float,"ax",%progbits
	.align	2
	.global	mpack_tag_float
	.syntax unified
	.arm
	.type	mpack_tag_float, %function
mpack_tag_float:
.LVL659:
.LFB15:
	.loc 2 979 56 is_stmt 1 view -0
	.cfi_startproc
	@ args = 0, pretend = 0, frame = 16
	@ frame_needed = 0, uses_anonymous_args = 0
	@ link register save eliminated.
	.loc 2 980 5 view .LVU2749
	.loc 2 981 5 view .LVU2750
	.loc 2 979 56 is_stmt 0 view .LVU2751
	sub	sp, sp, #16
	.cfi_def_cfa_offset 16
	.loc 2 981 5 view .LVU2752
	mov	r2, #0
	mov	r3, sp
	.loc 2 982 14 view .LVU2753
	mov	r1, #3
	.loc 2 979 56 view .LVU2754
	mov	ip, r0
	.loc 2 983 13 view .LVU2755
	vstr.32	s0, [sp, #8]
	.loc 2 981 5 view .LVU2756
	str	r2, [sp]
	.loc 2 982 14 view .LVU2757
	strb	r1, [sp]
	.loc 2 981 5 view .LVU2758
	str	r2, [r3, #4]
	str	r2, [r3, #12]
	.loc 2 982 5 is_stmt 1 view .LVU2759
	.loc 2 983 5 view .LVU2760
	.loc 2 984 5 view .LVU2761
	.loc 2 984 12 is_stmt 0 view .LVU2762
	ldm	r3, {r0, r1, r2, r3}
.LVL660:
	.loc 2 984 12 view .LVU2763
	stm	ip, {r0, r1, r2, r3}
	.loc 2 985 1 view .LVU2764
	mov	r0, ip
	add	sp, sp, #16
	.cfi_def_cfa_offset 0
	@ sp needed
	bx	lr
	.cfi_endproc
.LFE15:
	.size	mpack_tag_float, .-mpack_tag_float
	.section	.text.mpack_tag_double,"ax",%progbits
	.align	2
	.global	mpack_tag_double
	.syntax unified
	.arm
	.type	mpack_tag_double, %function
mpack_tag_double:
.LVL661:
.LFB16:
	.loc 2 988 58 is_stmt 1 view -0
	.cfi_startproc
	@ args = 0, pretend = 0, frame = 16
	@ frame_needed = 0, uses_anonymous_args = 0
	@ link register save eliminated.
	.loc 2 989 5 view .LVU2766
	.loc 2 990 5 view .LVU2767
	.loc 2 988 58 is_stmt 0 view .LVU2768
	sub	sp, sp, #16
	.cfi_def_cfa_offset 16
	.loc 2 990 5 view .LVU2769
	mov	r2, #0
	mov	r3, sp
	.loc 2 991 14 view .LVU2770
	mov	r1, #4
	.loc 2 988 58 view .LVU2771
	mov	ip, r0
	.loc 2 992 13 view .LVU2772
	vstr.64	d0, [sp, #8]
	.loc 2 990 5 view .LVU2773
	str	r2, [sp]
	str	r2, [r3, #4]
	.loc 2 991 5 is_stmt 1 view .LVU2774
	.loc 2 991 14 is_stmt 0 view .LVU2775
	strb	r1, [sp]
	.loc 2 992 5 is_stmt 1 view .LVU2776
	.loc 2 993 5 view .LVU2777
	.loc 2 993 12 is_stmt 0 view .LVU2778
	ldm	r3, {r0, r1, r2, r3}
.LVL662:
	.loc 2 993 12 view .LVU2779
	stm	ip, {r0, r1, r2, r3}
	.loc 2 994 1 view .LVU2780
	mov	r0, ip
	add	sp, sp, #16
	.cfi_def_cfa_offset 0
	@ sp needed
	bx	lr
	.cfi_endproc
.LFE16:
	.size	mpack_tag_double, .-mpack_tag_double
	.section	.text.mpack_tag_array,"ax",%progbits
	.align	2
	.global	mpack_tag_array
	.syntax unified
	.arm
	.type	mpack_tag_array, %function
mpack_tag_array:
.LVL663:
.LFB17:
	.loc 2 997 58 is_stmt 1 view -0
	.cfi_startproc
	@ args = 0, pretend = 0, frame = 16
	@ frame_needed = 0, uses_anonymous_args = 0
	.loc 2 998 5 view .LVU2782
	.loc 2 999 5 view .LVU2783
	.loc 2 997 58 is_stmt 0 view .LVU2784
	str	lr, [sp, #-4]!
	.cfi_def_cfa_offset 4
	.cfi_offset 14, -4
	sub	sp, sp, #20
	.cfi_def_cfa_offset 24
	.loc 2 999 5 view .LVU2785
	mov	r2, #0
	mov	r3, sp
	.loc 2 1000 14 view .LVU2786
	mov	lr, #10
	.loc 2 997 58 view .LVU2787
	mov	ip, r0
	.loc 2 999 5 view .LVU2788
	str	r2, [sp]
	.loc 2 1001 13 view .LVU2789
	str	r1, [sp, #8]
	.loc 2 1000 14 view .LVU2790
	strb	lr, [sp]
	.loc 2 999 5 view .LVU2791
	str	r2, [r3, #4]
	str	r2, [r3, #12]
	.loc 2 1000 5 is_stmt 1 view .LVU2792
	.loc 2 1001 5 view .LVU2793
	.loc 2 1002 5 view .LVU2794
	.loc 2 1002 12 is_stmt 0 view .LVU2795
	ldm	r3, {r0, r1, r2, r3}
.LVL664:
	.loc 2 1002 12 view .LVU2796
	stm	ip, {r0, r1, r2, r3}
	.loc 2 1003 1 view .LVU2797
	mov	r0, ip
	add	sp, sp, #20
	.cfi_def_cfa_offset 4
	@ sp needed
	ldr	pc, [sp], #4
	.cfi_endproc
.LFE17:
	.size	mpack_tag_array, .-mpack_tag_array
	.section	.text.mpack_tag_map,"ax",%progbits
	.align	2
	.global	mpack_tag_map
	.syntax unified
	.arm
	.type	mpack_tag_map, %function
mpack_tag_map:
.LVL665:
.LFB18:
	.loc 2 1006 56 is_stmt 1 view -0
	.cfi_startproc
	@ args = 0, pretend = 0, frame = 16
	@ frame_needed = 0, uses_anonymous_args = 0
	.loc 2 1007 5 view .LVU2799
	.loc 2 1008 5 view .LVU2800
	.loc 2 1006 56 is_stmt 0 view .LVU2801
	str	lr, [sp, #-4]!
	.cfi_def_cfa_offset 4
	.cfi_offset 14, -4
	sub	sp, sp, #20
	.cfi_def_cfa_offset 24
	.loc 2 1008 5 view .LVU2802
	mov	r2, #0
	mov	r3, sp
	.loc 2 1009 14 view .LVU2803
	mov	lr, #11
	.loc 2 1006 56 view .LVU2804
	mov	ip, r0
	.loc 2 1008 5 view .LVU2805
	str	r2, [sp]
	.loc 2 1010 13 view .LVU2806
	str	r1, [sp, #8]
	.loc 2 1009 14 view .LVU2807
	strb	lr, [sp]
	.loc 2 1008 5 view .LVU2808
	str	r2, [r3, #4]
	str	r2, [r3, #12]
	.loc 2 1009 5 is_stmt 1 view .LVU2809
	.loc 2 1010 5 view .LVU2810
	.loc 2 1011 5 view .LVU2811
	.loc 2 1011 12 is_stmt 0 view .LVU2812
	ldm	r3, {r0, r1, r2, r3}
.LVL666:
	.loc 2 1011 12 view .LVU2813
	stm	ip, {r0, r1, r2, r3}
	.loc 2 1012 1 view .LVU2814
	mov	r0, ip
	add	sp, sp, #20
	.cfi_def_cfa_offset 4
	@ sp needed
	ldr	pc, [sp], #4
	.cfi_endproc
.LFE18:
	.size	mpack_tag_map, .-mpack_tag_map
	.section	.text.mpack_tag_str,"ax",%progbits
	.align	2
	.global	mpack_tag_str
	.syntax unified
	.arm
	.type	mpack_tag_str, %function
mpack_tag_str:
.LVL667:
.LFB19:
	.loc 2 1015 57 is_stmt 1 view -0
	.cfi_startproc
	@ args = 0, pretend = 0, frame = 16
	@ frame_needed = 0, uses_anonymous_args = 0
	.loc 2 1016 5 view .LVU2816
	.loc 2 1017 5 view .LVU2817
	.loc 2 1015 57 is_stmt 0 view .LVU2818
	str	lr, [sp, #-4]!
	.cfi_def_cfa_offset 4
	.cfi_offset 14, -4
	sub	sp, sp, #20
	.cfi_def_cfa_offset 24
	.loc 2 1017 5 view .LVU2819
	mov	r2, #0
	mov	r3, sp
	.loc 2 1018 14 view .LVU2820
	mov	lr, #7
	.loc 2 1015 57 view .LVU2821
	mov	ip, r0
	.loc 2 1017 5 view .LVU2822
	str	r2, [sp]
	.loc 2 1019 13 view .LVU2823
	str	r1, [sp, #8]
	.loc 2 1018 14 view .LVU2824
	strb	lr, [sp]
	.loc 2 1017 5 view .LVU2825
	str	r2, [r3, #4]
	str	r2, [r3, #12]
	.loc 2 1018 5 is_stmt 1 view .LVU2826
	.loc 2 1019 5 view .LVU2827
	.loc 2 1020 5 view .LVU2828
	.loc 2 1020 12 is_stmt 0 view .LVU2829
	ldm	r3, {r0, r1, r2, r3}
.LVL668:
	.loc 2 1020 12 view .LVU2830
	stm	ip, {r0, r1, r2, r3}
	.loc 2 1021 1 view .LVU2831
	mov	r0, ip
	add	sp, sp, #20
	.cfi_def_cfa_offset 4
	@ sp needed
	ldr	pc, [sp], #4
	.cfi_endproc
.LFE19:
	.size	mpack_tag_str, .-mpack_tag_str
	.section	.text.mpack_tag_bin,"ax",%progbits
	.align	2
	.global	mpack_tag_bin
	.syntax unified
	.arm
	.type	mpack_tag_bin, %function
mpack_tag_bin:
.LVL669:
.LFB20:
	.loc 2 1024 57 is_stmt 1 view -0
	.cfi_startproc
	@ args = 0, pretend = 0, frame = 16
	@ frame_needed = 0, uses_anonymous_args = 0
	.loc 2 1025 5 view .LVU2833
	.loc 2 1026 5 view .LVU2834
	.loc 2 1024 57 is_stmt 0 view .LVU2835
	str	lr, [sp, #-4]!
	.cfi_def_cfa_offset 4
	.cfi_offset 14, -4
	sub	sp, sp, #20
	.cfi_def_cfa_offset 24
	.loc 2 1026 5 view .LVU2836
	mov	r2, #0
	mov	r3, sp
	.loc 2 1027 14 view .LVU2837
	mov	lr, #8
	.loc 2 1024 57 view .LVU2838
	mov	ip, r0
	.loc 2 1026 5 view .LVU2839
	str	r2, [sp]
	.loc 2 1028 13 view .LVU2840
	str	r1, [sp, #8]
	.loc 2 1027 14 view .LVU2841
	strb	lr, [sp]
	.loc 2 1026 5 view .LVU2842
	str	r2, [r3, #4]
	str	r2, [r3, #12]
	.loc 2 1027 5 is_stmt 1 view .LVU2843
	.loc 2 1028 5 view .LVU2844
	.loc 2 1029 5 view .LVU2845
	.loc 2 1029 12 is_stmt 0 view .LVU2846
	ldm	r3, {r0, r1, r2, r3}
.LVL670:
	.loc 2 1029 12 view .LVU2847
	stm	ip, {r0, r1, r2, r3}
	.loc 2 1030 1 view .LVU2848
	mov	r0, ip
	add	sp, sp, #20
	.cfi_def_cfa_offset 4
	@ sp needed
	ldr	pc, [sp], #4
	.cfi_endproc
.LFE20:
	.size	mpack_tag_bin, .-mpack_tag_bin
	.section	.text.mpack_tag_ext,"ax",%progbits
	.align	2
	.global	mpack_tag_ext
	.syntax unified
	.arm
	.type	mpack_tag_ext, %function
mpack_tag_ext:
.LVL671:
.LFB21:
	.loc 2 1033 73 is_stmt 1 view -0
	.cfi_startproc
	@ args = 0, pretend = 0, frame = 16
	@ frame_needed = 0, uses_anonymous_args = 0
	.loc 2 1034 5 view .LVU2850
	.loc 2 1035 5 view .LVU2851
	.loc 2 1033 73 is_stmt 0 view .LVU2852
	push	{r4, lr}
	.cfi_def_cfa_offset 8
	.cfi_offset 4, -8
	.cfi_offset 14, -4
	sub	sp, sp, #16
	.cfi_def_cfa_offset 24
	.loc 2 1035 5 view .LVU2853
	mov	lr, #0
	mov	r3, sp
	.loc 2 1036 14 view .LVU2854
	mov	r4, #9
	.loc 2 1033 73 view .LVU2855
	mov	ip, r0
	.loc 2 1035 5 view .LVU2856
	str	lr, [sp]
	.loc 2 1038 13 view .LVU2857
	str	r2, [sp, #8]
	.loc 2 1036 14 view .LVU2858
	strb	r4, [sp]
	.loc 2 1037 17 view .LVU2859
	strb	r1, [sp, #1]
	.loc 2 1035 5 view .LVU2860
	str	lr, [r3, #4]
	str	lr, [r3, #12]
	.loc 2 1036 5 is_stmt 1 view .LVU2861
	.loc 2 1037 5 view .LVU2862
	.loc 2 1038 5 view .LVU2863
	.loc 2 1039 5 view .LVU2864
	.loc 2 1039 12 is_stmt 0 view .LVU2865
	ldm	r3, {r0, r1, r2, r3}
.LVL672:
	.loc 2 1039 12 view .LVU2866
	stm	ip, {r0, r1, r2, r3}
	.loc 2 1040 1 view .LVU2867
	mov	r0, ip
	add	sp, sp, #16
	.cfi_def_cfa_offset 8
	@ sp needed
	pop	{r4, pc}
	.cfi_endproc
.LFE21:
	.size	mpack_tag_ext, .-mpack_tag_ext
	.section	.text.mpack_load_u8,"ax",%progbits
	.align	2
	.global	mpack_load_u8
	.syntax unified
	.arm
	.type	mpack_load_u8, %function
mpack_load_u8:
.LVL673:
.LFB23:
	.loc 2 1095 52 is_stmt 1 view -0
	.cfi_startproc
	@ args = 0, pretend = 0, frame = 0
	@ frame_needed = 0, uses_anonymous_args = 0
	@ link register save eliminated.
	.loc 2 1096 5 view .LVU2869
	.loc 2 1097 1 is_stmt 0 view .LVU2870
	ldrb	r0, [r0]	@ zero_extendqisi2
.LVL674:
	.loc 2 1097 1 view .LVU2871
	bx	lr
	.cfi_endproc
.LFE23:
	.size	mpack_load_u8, .-mpack_load_u8
	.section	.text.mpack_load_u16,"ax",%progbits
	.align	2
	.global	mpack_load_u16
	.syntax unified
	.arm
	.type	mpack_load_u16, %function
mpack_load_u16:
.LVL675:
.LFB24:
	.loc 2 1099 54 is_stmt 1 view -0
	.cfi_startproc
	@ args = 0, pretend = 0, frame = 0
	@ frame_needed = 0, uses_anonymous_args = 0
	@ link register save eliminated.
	.loc 2 1105 5 view .LVU2873
	.loc 2 1105 12 is_stmt 0 discriminator 1 view .LVU2874
	ldrh	r0, [r0]	@ unaligned
.LVL676:
	.loc 2 1105 12 discriminator 1 view .LVU2875
	rev16	r0, r0
	.loc 2 1108 1 view .LVU2876
	uxth	r0, r0
	bx	lr
	.cfi_endproc
.LFE24:
	.size	mpack_load_u16, .-mpack_load_u16
	.section	.text.mpack_load_u32,"ax",%progbits
	.align	2
	.global	mpack_load_u32
	.syntax unified
	.arm
	.type	mpack_load_u32, %function
mpack_load_u32:
.LVL677:
.LFB25:
	.loc 2 1110 54 is_stmt 1 view -0
	.cfi_startproc
	@ args = 0, pretend = 0, frame = 0
	@ frame_needed = 0, uses_anonymous_args = 0
	@ link register save eliminated.
	.loc 2 1116 5 view .LVU2878
	ldr	r0, [r0]	@ unaligned
.LVL678:
	.loc 2 1121 1 is_stmt 0 view .LVU2879
	rev	r0, r0
	bx	lr
	.cfi_endproc
.LFE25:
	.size	mpack_load_u32, .-mpack_load_u32
	.section	.text.mpack_load_u64,"ax",%progbits
	.align	2
	.global	mpack_load_u64
	.syntax unified
	.arm
	.type	mpack_load_u64, %function
mpack_load_u64:
.LVL679:
.LFB26:
	.loc 2 1123 54 is_stmt 1 view -0
	.cfi_startproc
	@ args = 0, pretend = 0, frame = 0
	@ frame_needed = 0, uses_anonymous_args = 0
	@ link register save eliminated.
	.loc 2 1125 5 view .LVU2881
	.loc 2 1126 5 view .LVU2882
	.loc 2 1127 5 view .LVU2883
	.loc 2 1126 5 is_stmt 0 view .LVU2884
	ldr	r1, [r0]	@ unaligned
	ldr	r0, [r0, #4]	@ unaligned
.LVL680:
	.loc 2 1138 1 view .LVU2885
	rev	r1, r1
	rev	r0, r0
	bx	lr
	.cfi_endproc
.LFE26:
	.size	mpack_load_u64, .-mpack_load_u64
	.section	.text.mpack_store_u8,"ax",%progbits
	.align	2
	.global	mpack_store_u8
	.syntax unified
	.arm
	.type	mpack_store_u8, %function
mpack_store_u8:
.LVL681:
.LFB27:
	.loc 2 1140 57 is_stmt 1 view -0
	.cfi_startproc
	@ args = 0, pretend = 0, frame = 0
	@ frame_needed = 0, uses_anonymous_args = 0
	@ link register save eliminated.
	.loc 2 1141 5 view .LVU2887
	.loc 2 1142 5 view .LVU2888
	.loc 2 1142 10 is_stmt 0 view .LVU2889
	strb	r1, [r0]
	.loc 2 1143 1 view .LVU2890
	bx	lr
	.cfi_endproc
.LFE27:
	.size	mpack_store_u8, .-mpack_store_u8
	.section	.text.mpack_store_u16,"ax",%progbits
	.align	2
	.global	mpack_store_u16
	.syntax unified
	.arm
	.type	mpack_store_u16, %function
mpack_store_u16:
.LVL682:
.LFB28:
	.loc 2 1145 59 is_stmt 1 view -0
	.cfi_startproc
	@ args = 0, pretend = 0, frame = 0
	@ frame_needed = 0, uses_anonymous_args = 0
	@ link register save eliminated.
	.loc 2 1150 5 view .LVU2892
	.loc 2 1151 5 view .LVU2893
	.loc 2 1151 12 is_stmt 0 view .LVU2894
	lsr	r3, r1, #8
	strb	r3, [r0]
	.loc 2 1152 5 is_stmt 1 view .LVU2895
	.loc 2 1152 12 is_stmt 0 view .LVU2896
	strb	r1, [r0, #1]
	.loc 2 1154 1 view .LVU2897
	bx	lr
	.cfi_endproc
.LFE28:
	.size	mpack_store_u16, .-mpack_store_u16
	.section	.text.mpack_store_u32,"ax",%progbits
	.align	2
	.global	mpack_store_u32
	.syntax unified
	.arm
	.type	mpack_store_u32, %function
mpack_store_u32:
.LVL683:
.LFB29:
	.loc 2 1156 59 is_stmt 1 view -0
	.cfi_startproc
	@ args = 0, pretend = 0, frame = 0
	@ frame_needed = 0, uses_anonymous_args = 0
	@ link register save eliminated.
	.loc 2 1161 5 view .LVU2899
	.loc 2 1162 5 view .LVU2900
	.loc 2 1163 5 view .LVU2901
	.loc 2 1164 5 view .LVU2902
	.loc 2 1165 5 view .LVU2903
	rev	r1, r1
.LVL684:
	.loc 2 1162 10 is_stmt 0 view .LVU2904
	str	r1, [r0]	@ unaligned
	.loc 2 1167 1 view .LVU2905
	bx	lr
	.cfi_endproc
.LFE29:
	.size	mpack_store_u32, .-mpack_store_u32
	.section	.text.mpack_store_u64,"ax",%progbits
	.align	2
	.global	mpack_store_u64
	.syntax unified
	.arm
	.type	mpack_store_u64, %function
mpack_store_u64:
.LVL685:
.LFB30:
	.loc 2 1169 59 is_stmt 1 view -0
	.cfi_startproc
	@ args = 0, pretend = 0, frame = 0
	@ frame_needed = 0, uses_anonymous_args = 0
	@ link register save eliminated.
	.loc 2 1171 5 view .LVU2907
	.loc 2 1171 11 is_stmt 0 view .LVU2908
	rev	r2, r2
.LVL686:
	.loc 2 1171 11 view .LVU2909
	rev	r3, r3
.LVL687:
	.loc 2 1172 5 is_stmt 1 view .LVU2910
	str	r3, [r0]	@ unaligned
	str	r2, [r0, #4]	@ unaligned
	.loc 2 1184 1 is_stmt 0 view .LVU2911
	bx	lr
	.cfi_endproc
.LFE30:
	.size	mpack_store_u64, .-mpack_store_u64
	.section	.text.mpack_load_i8,"ax",%progbits
	.align	2
	.global	mpack_load_i8
	.syntax unified
	.arm
	.type	mpack_load_i8, %function
mpack_load_i8:
.LVL688:
.LFB31:
	.loc 2 1186 52 is_stmt 1 view -0
	.cfi_startproc
	@ args = 0, pretend = 0, frame = 0
	@ frame_needed = 0, uses_anonymous_args = 0
	@ link register save eliminated.
	.loc 2 1186 53 view .LVU2913
.LBB3929:
.LBI3929:
	.loc 2 1095 23 view .LVU2914
.LBB3930:
	.loc 2 1096 5 view .LVU2915
	.loc 2 1096 5 is_stmt 0 view .LVU2916
.LBE3930:
.LBE3929:
	.loc 2 1186 87 view .LVU2917
	ldrsb	r0, [r0]
.LVL689:
	.loc 2 1186 87 view .LVU2918
	bx	lr
	.cfi_endproc
.LFE31:
	.size	mpack_load_i8, .-mpack_load_i8
	.section	.text.mpack_load_i16,"ax",%progbits
	.align	2
	.global	mpack_load_i16
	.syntax unified
	.arm
	.type	mpack_load_i16, %function
mpack_load_i16:
.LVL690:
.LFB32:
	.loc 2 1187 53 is_stmt 1 view -0
	.cfi_startproc
	@ args = 0, pretend = 0, frame = 0
	@ frame_needed = 0, uses_anonymous_args = 0
	@ link register save eliminated.
	.loc 2 1187 54 view .LVU2920
	.loc 2 1187 61 is_stmt 0 discriminator 1 view .LVU2921
	ldrh	r0, [r0]	@ unaligned
.LVL691:
	.loc 2 1187 88 view .LVU2922
	revsh	r0, r0
	bx	lr
	.cfi_endproc
.LFE32:
	.size	mpack_load_i16, .-mpack_load_i16
	.section	.text.mpack_load_i32,"ax",%progbits
	.align	2
	.global	mpack_load_i32
	.syntax unified
	.arm
	.type	mpack_load_i32, %function
mpack_load_i32:
.LVL692:
.LFB33:
	.loc 2 1188 53 is_stmt 1 view -0
	.cfi_startproc
	@ args = 0, pretend = 0, frame = 0
	@ frame_needed = 0, uses_anonymous_args = 0
	@ link register save eliminated.
	.loc 2 1188 54 view .LVU2924
	ldr	r0, [r0]	@ unaligned
.LVL693:
	.loc 2 1188 88 is_stmt 0 view .LVU2925
	rev	r0, r0
	bx	lr
	.cfi_endproc
.LFE33:
	.size	mpack_load_i32, .-mpack_load_i32
	.section	.text.mpack_load_i64,"ax",%progbits
	.align	2
	.global	mpack_load_i64
	.syntax unified
	.arm
	.type	mpack_load_i64, %function
mpack_load_i64:
.LVL694:
.LFB34:
	.loc 2 1189 53 is_stmt 1 view -0
	.cfi_startproc
	@ args = 0, pretend = 0, frame = 0
	@ frame_needed = 0, uses_anonymous_args = 0
	@ link register save eliminated.
	.loc 2 1189 54 view .LVU2927
.LBB3931:
.LBI3931:
	.loc 2 1123 24 view .LVU2928
.LBB3932:
	.loc 2 1125 5 view .LVU2929
	.loc 2 1126 5 view .LVU2930
	.loc 2 1127 5 view .LVU2931
	.loc 2 1126 5 is_stmt 0 view .LVU2932
	ldr	r1, [r0]	@ unaligned
	ldr	r0, [r0, #4]	@ unaligned
.LVL695:
	.loc 2 1126 5 view .LVU2933
.LBE3932:
.LBE3931:
	.loc 2 1189 88 view .LVU2934
	rev	r1, r1
	rev	r0, r0
	bx	lr
	.cfi_endproc
.LFE34:
	.size	mpack_load_i64, .-mpack_load_i64
	.section	.text.mpack_store_i8,"ax",%progbits
	.align	2
	.global	mpack_store_i8
	.syntax unified
	.arm
	.type	mpack_store_i8, %function
mpack_store_i8:
.LVL696:
.LFB35:
	.loc 2 1190 57 is_stmt 1 view -0
	.cfi_startproc
	@ args = 0, pretend = 0, frame = 0
	@ frame_needed = 0, uses_anonymous_args = 0
	@ link register save eliminated.
	.loc 2 1190 58 view .LVU2936
.LBB3933:
.LBI3933:
	.loc 2 1140 20 view .LVU2937
.LBB3934:
	.loc 2 1141 5 view .LVU2938
	.loc 2 1142 5 view .LVU2939
	.loc 2 1142 10 is_stmt 0 view .LVU2940
	strb	r1, [r0]
.LVL697:
	.loc 2 1142 10 view .LVU2941
.LBE3934:
.LBE3933:
	.loc 2 1190 92 view .LVU2942
	bx	lr
	.cfi_endproc
.LFE35:
	.size	mpack_store_i8, .-mpack_store_i8
	.section	.text.mpack_store_i16,"ax",%progbits
	.align	2
	.global	mpack_store_i16
	.syntax unified
	.arm
	.type	mpack_store_i16, %function
mpack_store_i16:
.LVL698:
.LFB36:
	.loc 2 1191 58 is_stmt 1 view -0
	.cfi_startproc
	@ args = 0, pretend = 0, frame = 0
	@ frame_needed = 0, uses_anonymous_args = 0
	@ link register save eliminated.
	.loc 2 1191 59 view .LVU2944
.LBB3935:
.LBI3935:
	.loc 2 1145 20 view .LVU2945
.LBB3936:
	.loc 2 1150 5 view .LVU2946
	.loc 2 1151 5 view .LVU2947
	.loc 2 1151 12 is_stmt 0 view .LVU2948
	uxth	r3, r1
	lsr	r3, r3, #8
	strb	r3, [r0]
	.loc 2 1152 5 is_stmt 1 view .LVU2949
	.loc 2 1152 12 is_stmt 0 view .LVU2950
	strb	r1, [r0, #1]
.LVL699:
	.loc 2 1152 12 view .LVU2951
.LBE3936:
.LBE3935:
	.loc 2 1191 93 view .LVU2952
	bx	lr
	.cfi_endproc
.LFE36:
	.size	mpack_store_i16, .-mpack_store_i16
	.section	.text.mpack_store_i32,"ax",%progbits
	.align	2
	.global	mpack_store_i32
	.syntax unified
	.arm
	.type	mpack_store_i32, %function
mpack_store_i32:
.LVL700:
.LFB37:
	.loc 2 1192 58 is_stmt 1 view -0
	.cfi_startproc
	@ args = 0, pretend = 0, frame = 0
	@ frame_needed = 0, uses_anonymous_args = 0
	@ link register save eliminated.
	.loc 2 1192 59 view .LVU2954
.LBB3937:
.LBI3937:
	.loc 2 1156 20 view .LVU2955
.LBB3938:
	.loc 2 1161 5 view .LVU2956
	.loc 2 1162 5 view .LVU2957
	.loc 2 1163 5 view .LVU2958
	.loc 2 1164 5 view .LVU2959
	.loc 2 1165 5 view .LVU2960
	rev	r1, r1
.LVL701:
	.loc 2 1162 10 is_stmt 0 view .LVU2961
	str	r1, [r0]	@ unaligned
.LVL702:
	.loc 2 1162 10 view .LVU2962
.LBE3938:
.LBE3937:
	.loc 2 1192 93 view .LVU2963
	bx	lr
	.cfi_endproc
.LFE37:
	.size	mpack_store_i32, .-mpack_store_i32
	.section	.text.mpack_store_i64,"ax",%progbits
	.align	2
	.global	mpack_store_i64
	.syntax unified
	.arm
	.type	mpack_store_i64, %function
mpack_store_i64:
.LVL703:
.LFB38:
	.loc 2 1193 58 is_stmt 1 view -0
	.cfi_startproc
	@ args = 0, pretend = 0, frame = 0
	@ frame_needed = 0, uses_anonymous_args = 0
	@ link register save eliminated.
	.loc 2 1193 59 view .LVU2965
.LBB3939:
.LBI3939:
	.loc 2 1169 20 view .LVU2966
.LBB3940:
	.loc 2 1171 5 view .LVU2967
	.loc 2 1171 11 is_stmt 0 view .LVU2968
	rev	r2, r2
.LVL704:
	.loc 2 1171 11 view .LVU2969
	rev	r3, r3
.LVL705:
	.loc 2 1172 5 is_stmt 1 view .LVU2970
	str	r3, [r0]	@ unaligned
	str	r2, [r0, #4]	@ unaligned
.LVL706:
	.loc 2 1172 5 is_stmt 0 view .LVU2971
.LBE3940:
.LBE3939:
	.loc 2 1193 93 view .LVU2972
	bx	lr
	.cfi_endproc
.LFE38:
	.size	mpack_store_i64, .-mpack_store_i64
	.section	.text.mpack_load_float,"ax",%progbits
	.align	2
	.global	mpack_load_float
	.syntax unified
	.arm
	.type	mpack_load_float, %function
mpack_load_float:
.LVL707:
.LFB39:
	.loc 2 1195 53 is_stmt 1 view -0
	.cfi_startproc
	@ args = 0, pretend = 0, frame = 0
	@ frame_needed = 0, uses_anonymous_args = 0
	@ link register save eliminated.
	.loc 2 1196 5 view .LVU2974
	.loc 2 1197 5 view .LVU2975
	.loc 2 1201 5 view .LVU2976
	.loc 2 1202 5 view .LVU2977
	.loc 2 1202 5 is_stmt 0 view .LVU2978
	ldr	r3, [r0]	@ unaligned
	.loc 2 1202 13 view .LVU2979
	rev	r3, r3
	vmov	s0, r3	@ int
	.loc 2 1203 1 view .LVU2980
	bx	lr
	.cfi_endproc
.LFE39:
	.size	mpack_load_float, .-mpack_load_float
	.section	.text.mpack_load_double,"ax",%progbits
	.align	2
	.global	mpack_load_double
	.syntax unified
	.arm
	.type	mpack_load_double, %function
mpack_load_double:
.LVL708:
.LFB40:
	.loc 2 1205 55 is_stmt 1 view -0
	.cfi_startproc
	@ args = 0, pretend = 0, frame = 0
	@ frame_needed = 0, uses_anonymous_args = 0
	@ link register save eliminated.
	.loc 2 1206 5 view .LVU2982
	.loc 2 1207 5 view .LVU2983
	.loc 2 1211 5 view .LVU2984
.LBB3941:
.LBI3941:
	.loc 2 1123 24 view .LVU2985
.LBB3942:
	.loc 2 1125 5 view .LVU2986
	.loc 2 1126 5 view .LVU2987
	.loc 2 1127 5 view .LVU2988
	.loc 2 1126 5 is_stmt 0 view .LVU2989
	ldr	r1, [r0]	@ unaligned
	ldr	r0, [r0, #4]	@ unaligned
.LVL709:
	.loc 2 1127 12 view .LVU2990
	rev	r3, r1
.LVL710:
	.loc 2 1127 12 view .LVU2991
	rev	r2, r0
.LVL711:
	.loc 2 1127 12 view .LVU2992
.LBE3942:
.LBE3941:
	.loc 2 1212 5 is_stmt 1 view .LVU2993
	.loc 2 1212 13 is_stmt 0 view .LVU2994
	vmov	d0, r2, r3
	.loc 2 1213 1 view .LVU2995
	bx	lr
	.cfi_endproc
.LFE40:
	.size	mpack_load_double, .-mpack_load_double
	.section	.text.mpack_store_float,"ax",%progbits
	.align	2
	.global	mpack_store_float
	.syntax unified
	.arm
	.type	mpack_store_float, %function
mpack_store_float:
.LVL712:
.LFB41:
	.loc 2 1215 60 is_stmt 1 view -0
	.cfi_startproc
	@ args = 0, pretend = 0, frame = 0
	@ frame_needed = 0, uses_anonymous_args = 0
	@ link register save eliminated.
	.loc 2 1216 5 view .LVU2997
	.loc 2 1217 5 view .LVU2998
	.loc 2 1221 5 view .LVU2999
	.loc 2 1222 5 view .LVU3000
.LBB3943:
.LBI3943:
	.loc 2 1156 20 view .LVU3001
.LBB3944:
	.loc 2 1161 5 view .LVU3002
	.loc 2 1162 5 view .LVU3003
	.loc 2 1163 5 view .LVU3004
	.loc 2 1164 5 view .LVU3005
	.loc 2 1165 5 view .LVU3006
	vmov	r3, s0	@ int
	rev	r3, r3
	.loc 2 1162 10 is_stmt 0 view .LVU3007
	str	r3, [r0]	@ unaligned
.LVL713:
	.loc 2 1162 10 view .LVU3008
.LBE3944:
.LBE3943:
	.loc 2 1223 1 view .LVU3009
	bx	lr
	.cfi_endproc
.LFE41:
	.size	mpack_store_float, .-mpack_store_float
	.section	.text.mpack_store_double,"ax",%progbits
	.align	2
	.global	mpack_store_double
	.syntax unified
	.arm
	.type	mpack_store_double, %function
mpack_store_double:
.LVL714:
.LFB42:
	.loc 2 1225 62 is_stmt 1 view -0
	.cfi_startproc
	@ args = 0, pretend = 0, frame = 0
	@ frame_needed = 0, uses_anonymous_args = 0
	@ link register save eliminated.
	.loc 2 1226 5 view .LVU3011
	.loc 2 1227 5 view .LVU3012
	.loc 2 1231 5 view .LVU3013
	.loc 2 1225 62 is_stmt 0 view .LVU3014
	push	{r4, r5}
	.cfi_def_cfa_offset 8
	.cfi_offset 4, -8
	.cfi_offset 5, -4
	.loc 2 1225 62 view .LVU3015
	vmov	r4, r5, d0
.LVL715:
	.loc 2 1232 5 is_stmt 1 view .LVU3016
.LBB3945:
.LBI3945:
	.loc 2 1169 20 view .LVU3017
.LBB3946:
	.loc 2 1171 5 view .LVU3018
	.loc 2 1171 11 is_stmt 0 view .LVU3019
	rev	r2, r4
	rev	r3, r5
.LVL716:
	.loc 2 1172 5 is_stmt 1 view .LVU3020
	str	r3, [r0]	@ unaligned
	str	r2, [r0, #4]	@ unaligned
.LVL717:
	.loc 2 1172 5 is_stmt 0 view .LVU3021
.LBE3946:
.LBE3945:
	.loc 2 1233 1 view .LVU3022
	pop	{r4, r5}
	.cfi_restore 5
	.cfi_restore 4
	.cfi_def_cfa_offset 0
	bx	lr
	.cfi_endproc
.LFE42:
	.size	mpack_store_double, .-mpack_store_double
	.section	.text.mpack_writer_track_push,"ax",%progbits
	.align	2
	.global	mpack_writer_track_push
	.syntax unified
	.arm
	.type	mpack_writer_track_push, %function
mpack_writer_track_push:
.LVL718:
.LFB43:
	.loc 2 1466 103 is_stmt 1 view -0
	.cfi_startproc
	@ args = 0, pretend = 0, frame = 0
	@ frame_needed = 0, uses_anonymous_args = 0
	@ link register save eliminated.
	.loc 2 1467 5 view .LVU3024
	.loc 2 1468 5 view .LVU3025
	.loc 2 1469 5 view .LVU3026
	.loc 2 1470 1 is_stmt 0 view .LVU3027
	bx	lr
	.cfi_endproc
.LFE43:
	.size	mpack_writer_track_push, .-mpack_writer_track_push
	.section	.text.mpack_writer_track_pop,"ax",%progbits
	.align	2
	.global	mpack_writer_track_pop
	.syntax unified
	.arm
	.type	mpack_writer_track_pop, %function
mpack_writer_track_pop:
.LVL719:
.LFB44:
	.loc 2 1471 86 is_stmt 1 view -0
	.cfi_startproc
	@ args = 0, pretend = 0, frame = 0
	@ frame_needed = 0, uses_anonymous_args = 0
	@ link register save eliminated.
	.loc 2 1472 5 view .LVU3029
	.loc 2 1473 5 view .LVU3030
	.loc 2 1474 1 is_stmt 0 view .LVU3031
	bx	lr
	.cfi_endproc
.LFE44:
	.size	mpack_writer_track_pop, .-mpack_writer_track_pop
	.section	.text.mpack_writer_track_element,"ax",%progbits
	.align	2
	.global	mpack_writer_track_element
	.syntax unified
	.arm
	.type	mpack_writer_track_element, %function
mpack_writer_track_element:
.LVL720:
.LFB45:
	.loc 2 1475 71 is_stmt 1 view -0
	.cfi_startproc
	@ args = 0, pretend = 0, frame = 0
	@ frame_needed = 0, uses_anonymous_args = 0
	@ link register save eliminated.
	.loc 2 1476 5 view .LVU3033
	.loc 2 1477 1 is_stmt 0 view .LVU3034
	bx	lr
	.cfi_endproc
.LFE45:
	.size	mpack_writer_track_element, .-mpack_writer_track_element
	.section	.text.mpack_writer_track_bytes,"ax",%progbits
	.align	2
	.global	mpack_writer_track_bytes
	.syntax unified
	.arm
	.type	mpack_writer_track_bytes, %function
mpack_writer_track_bytes:
.LVL721:
.LFB46:
	.loc 2 1478 83 is_stmt 1 view -0
	.cfi_startproc
	@ args = 0, pretend = 0, frame = 0
	@ frame_needed = 0, uses_anonymous_args = 0
	@ link register save eliminated.
	.loc 2 1479 5 view .LVU3036
	.loc 2 1480 5 view .LVU3037
	.loc 2 1481 1 is_stmt 0 view .LVU3038
	bx	lr
	.cfi_endproc
.LFE46:
	.size	mpack_writer_track_bytes, .-mpack_writer_track_bytes
	.section	.text.mpack_writer_set_context,"ax",%progbits
	.align	2
	.global	mpack_writer_set_context
	.syntax unified
	.arm
	.type	mpack_writer_set_context, %function
mpack_writer_set_context:
.LVL722:
.LFB47:
	.loc 2 1608 84 is_stmt 1 view -0
	.cfi_startproc
	@ args = 0, pretend = 0, frame = 0
	@ frame_needed = 0, uses_anonymous_args = 0
	@ link register save eliminated.
	.loc 2 1609 5 view .LVU3040
	.loc 2 1609 21 is_stmt 0 view .LVU3041
	str	r1, [r0, #12]
	.loc 2 1610 1 view .LVU3042
	bx	lr
	.cfi_endproc
.LFE47:
	.size	mpack_writer_set_context, .-mpack_writer_set_context
	.section	.text.mpack_writer_set_error_handler,"ax",%progbits
	.align	2
	.global	mpack_writer_set_error_handler
	.syntax unified
	.arm
	.type	mpack_writer_set_error_handler, %function
mpack_writer_set_error_handler:
.LVL723:
.LFB48:
	.loc 2 1639 106 is_stmt 1 view -0
	.cfi_startproc
	@ args = 0, pretend = 0, frame = 0
	@ frame_needed = 0, uses_anonymous_args = 0
	@ link register save eliminated.
	.loc 2 1640 5 view .LVU3044
	.loc 2 1640 22 is_stmt 0 view .LVU3045
	str	r1, [r0, #4]
	.loc 2 1641 1 view .LVU3046
	bx	lr
	.cfi_endproc
.LFE48:
	.size	mpack_writer_set_error_handler, .-mpack_writer_set_error_handler
	.section	.text.mpack_writer_set_teardown,"ax",%progbits
	.align	2
	.global	mpack_writer_set_teardown
	.syntax unified
	.arm
	.type	mpack_writer_set_teardown, %function
mpack_writer_set_teardown:
.LVL724:
.LFB49:
	.loc 2 1652 104 is_stmt 1 view -0
	.cfi_startproc
	@ args = 0, pretend = 0, frame = 0
	@ frame_needed = 0, uses_anonymous_args = 0
	@ link register save eliminated.
	.loc 2 1653 5 view .LVU3048
	.loc 2 1653 22 is_stmt 0 view .LVU3049
	str	r1, [r0, #8]
	.loc 2 1654 1 view .LVU3050
	bx	lr
	.cfi_endproc
.LFE49:
	.size	mpack_writer_set_teardown, .-mpack_writer_set_teardown
	.section	.text.mpack_writer_buffer_used,"ax",%progbits
	.align	2
	.global	mpack_writer_buffer_used
	.syntax unified
	.arm
	.type	mpack_writer_buffer_used, %function
mpack_writer_buffer_used:
.LVL725:
.LFB50:
	.loc 2 1670 71 is_stmt 1 view -0
	.cfi_startproc
	@ args = 0, pretend = 0, frame = 0
	@ frame_needed = 0, uses_anonymous_args = 0
	@ link register save eliminated.
	.loc 2 1671 5 view .LVU3052
	.loc 2 1672 1 is_stmt 0 view .LVU3053
	ldr	r0, [r0, #24]
.LVL726:
	.loc 2 1672 1 view .LVU3054
	bx	lr
	.cfi_endproc
.LFE50:
	.size	mpack_writer_buffer_used, .-mpack_writer_buffer_used
	.section	.text.mpack_writer_buffer_left,"ax",%progbits
	.align	2
	.global	mpack_writer_buffer_left
	.syntax unified
	.arm
	.type	mpack_writer_buffer_left, %function
mpack_writer_buffer_left:
.LVL727:
.LFB51:
	.loc 2 1678 71 is_stmt 1 view -0
	.cfi_startproc
	@ args = 0, pretend = 0, frame = 0
	@ frame_needed = 0, uses_anonymous_args = 0
	@ link register save eliminated.
	.loc 2 1679 5 view .LVU3056
	.loc 2 1679 25 is_stmt 0 view .LVU3057
	ldr	r2, [r0, #20]
	ldr	r0, [r0, #24]
.LVL728:
	.loc 2 1680 1 view .LVU3058
	sub	r0, r2, r0
	bx	lr
	.cfi_endproc
.LFE51:
	.size	mpack_writer_buffer_left, .-mpack_writer_buffer_left
	.section	.text.mpack_writer_error,"ax",%progbits
	.align	2
	.global	mpack_writer_error
	.syntax unified
	.arm
	.type	mpack_writer_error, %function
mpack_writer_error:
.LVL729:
.LFB52:
	.loc 2 1706 72 is_stmt 1 view -0
	.cfi_startproc
	@ args = 0, pretend = 0, frame = 0
	@ frame_needed = 0, uses_anonymous_args = 0
	@ link register save eliminated.
	.loc 2 1707 5 view .LVU3060
	.loc 2 1708 1 is_stmt 0 view .LVU3061
	ldrb	r0, [r0, #28]	@ zero_extendqisi2
.LVL730:
	.loc 2 1708 1 view .LVU3062
	bx	lr
	.cfi_endproc
.LFE52:
	.size	mpack_writer_error, .-mpack_writer_error
	.section	.text.mpack_write_uint,"ax",%progbits
	.align	2
	.global	mpack_write_uint
	.syntax unified
	.arm
	.type	mpack_write_uint, %function
mpack_write_uint:
.LVL731:
.LFB54:
	.loc 2 1767 77 is_stmt 1 view -0
	.cfi_startproc
	@ args = 0, pretend = 0, frame = 0
	@ frame_needed = 0, uses_anonymous_args = 0
	.loc 2 1768 5 view .LVU3064
.LBB3954:
.LBI3954:
	.loc 1 1347 6 view .LVU3065
.LBB3955:
	.loc 1 1348 5 view .LVU3066
	.loc 1 1350 5 view .LVU3067
	.loc 1 1350 8 is_stmt 0 view .LVU3068
	cmp	r2, #128
	sbcs	r1, r3, #0
	bcs	.L919
.LBE3955:
.LBE3954:
	.loc 2 1767 77 view .LVU3069
	push	{r4, r5, r6, lr}
	.cfi_def_cfa_offset 16
	.cfi_offset 4, -16
	.cfi_offset 5, -12
	.cfi_offset 6, -8
	.cfi_offset 14, -4
	mov	r5, r2
.LBB3963:
.LBB3961:
	.loc 1 1351 17 discriminator 1 view .LVU3070
	ldrd	r2, [r0, #20]
.LVL732:
	.loc 1 1351 17 discriminator 1 view .LVU3071
	cmp	r2, r3
	mov	r4, r0
	.loc 1 1351 9 is_stmt 1 view .LVU3072
	.loc 1 1351 14 view .LVU3073
.LVL733:
.LBB3956:
.LBI3956:
	.loc 2 1678 22 view .LVU3074
.LBB3957:
	.loc 2 1679 5 view .LVU3075
.LBE3957:
.LBE3956:
	.loc 1 1351 17 is_stmt 0 discriminator 1 view .LVU3076
	beq	.L928
.LVL734:
.L920:
	.loc 1 1351 93 is_stmt 1 discriminator 3 view .LVU3077
.LBB3958:
.LBI3958:
	.loc 1 1095 20 view .LVU3078
	.loc 1 1096 5 view .LVU3079
	.loc 1 1097 5 view .LVU3080
.LBB3959:
.LBI3959:
	.loc 2 1140 20 view .LVU3081
.LBB3960:
	.loc 2 1141 5 view .LVU3082
	.loc 2 1142 5 view .LVU3083
	.loc 2 1142 10 is_stmt 0 view .LVU3084
	ldr	r2, [r4, #16]
.LBE3960:
.LBE3959:
.LBE3958:
	.loc 1 1351 93 discriminator 3 view .LVU3085
	strb	r5, [r2, r3]
.LVL735:
	.loc 1 1351 162 is_stmt 1 discriminator 1 view .LVU3086
	.loc 1 1351 175 is_stmt 0 discriminator 1 view .LVU3087
	ldr	r3, [r4, #24]
.LVL736:
	.loc 1 1351 175 discriminator 1 view .LVU3088
	add	r3, r3, #1
	str	r3, [r4, #24]
.LBE3961:
.LBE3963:
	.loc 2 1769 1 view .LVU3089
	pop	{r4, r5, r6, pc}
.LVL737:
.L919:
	.cfi_def_cfa_offset 0
	.cfi_restore 4
	.cfi_restore 5
	.cfi_restore 6
	.cfi_restore 14
.LBB3964:
.LBB3962:
	.loc 2 1769 1 view .LVU3090
	b	mpack_write_u64.part.0
.LVL738:
.L928:
	.cfi_def_cfa_offset 16
	.cfi_offset 4, -16
	.cfi_offset 5, -12
	.cfi_offset 6, -8
	.cfi_offset 14, -4
	.loc 1 1351 59 discriminator 2 view .LVU3091
	mov	r1, #1
	bl	mpack_writer_ensure
.LVL739:
	.loc 1 1351 56 discriminator 1 view .LVU3092
	cmp	r0, #0
	popeq	{r4, r5, r6, pc}
	.loc 1 1351 137 discriminator 3 view .LVU3093
	ldr	r3, [r4, #24]
	b	.L920
.LBE3962:
.LBE3964:
	.cfi_endproc
.LFE54:
	.size	mpack_write_uint, .-mpack_write_uint
	.section	.text.mpack_finish_array,"ax",%progbits
	.align	2
	.global	mpack_finish_array
	.syntax unified
	.arm
	.type	mpack_finish_array, %function
mpack_finish_array:
.LFB423:
	.cfi_startproc
	.loc 2 1844 20 is_stmt 1 view -0
	@ args = 0, pretend = 0, frame = 0
	@ frame_needed = 0, uses_anonymous_args = 0
	@ link register save eliminated.
	bx	lr
	.cfi_endproc
.LFE423:
	.size	mpack_finish_array, .-mpack_finish_array
	.section	.text.mpack_finish_map,"ax",%progbits
	.align	2
	.global	mpack_finish_map
	.syntax unified
	.arm
	.type	mpack_finish_map, %function
mpack_finish_map:
.LFB425:
	.cfi_startproc
	.loc 2 1858 20 view -0
	@ args = 0, pretend = 0, frame = 0
	@ frame_needed = 0, uses_anonymous_args = 0
	@ link register save eliminated.
	bx	lr
	.cfi_endproc
.LFE425:
	.size	mpack_finish_map, .-mpack_finish_map
	.section	.text.mpack_finish_str,"ax",%progbits
	.align	2
	.global	mpack_finish_str
	.syntax unified
	.arm
	.type	mpack_finish_str, %function
mpack_finish_str:
.LFB427:
	.cfi_startproc
	.loc 2 2052 20 view -0
	@ args = 0, pretend = 0, frame = 0
	@ frame_needed = 0, uses_anonymous_args = 0
	@ link register save eliminated.
	bx	lr
	.cfi_endproc
.LFE427:
	.size	mpack_finish_str, .-mpack_finish_str
	.section	.text.mpack_finish_bin,"ax",%progbits
	.align	2
	.global	mpack_finish_bin
	.syntax unified
	.arm
	.type	mpack_finish_bin, %function
mpack_finish_bin:
.LFB429:
	.cfi_startproc
	.loc 2 2067 20 view -0
	@ args = 0, pretend = 0, frame = 0
	@ frame_needed = 0, uses_anonymous_args = 0
	@ link register save eliminated.
	bx	lr
	.cfi_endproc
.LFE429:
	.size	mpack_finish_bin, .-mpack_finish_bin
	.section	.text.mpack_finish_ext,"ax",%progbits
	.align	2
	.global	mpack_finish_ext
	.syntax unified
	.arm
	.type	mpack_finish_ext, %function
mpack_finish_ext:
.LFB431:
	.cfi_startproc
	.loc 2 2082 20 view -0
	@ args = 0, pretend = 0, frame = 0
	@ frame_needed = 0, uses_anonymous_args = 0
	@ link register save eliminated.
	bx	lr
	.cfi_endproc
.LFE431:
	.size	mpack_finish_ext, .-mpack_finish_ext
	.section	.text.mpack_finish_type,"ax",%progbits
	.align	2
	.global	mpack_finish_type
	.syntax unified
	.arm
	.type	mpack_finish_type, %function
mpack_finish_type:
.LFB419:
	.cfi_startproc
	.loc 2 2095 20 view -0
	@ args = 0, pretend = 0, frame = 0
	@ frame_needed = 0, uses_anonymous_args = 0
	@ link register save eliminated.
	bx	lr
	.cfi_endproc
.LFE419:
	.size	mpack_finish_type, .-mpack_finish_type
	.section	.text.mpack_reader_set_context,"ax",%progbits
	.align	2
	.global	mpack_reader_set_context
	.syntax unified
	.arm
	.type	mpack_reader_set_context, %function
mpack_reader_set_context:
.LVL740:
.LFB61:
	.loc 2 2528 84 view -0
	.cfi_startproc
	@ args = 0, pretend = 0, frame = 0
	@ frame_needed = 0, uses_anonymous_args = 0
	@ link register save eliminated.
	.loc 2 2529 5 view .LVU3101
	.loc 2 2529 21 is_stmt 0 view .LVU3102
	str	r1, [r0]
	.loc 2 2530 1 view .LVU3103
	bx	lr
	.cfi_endproc
.LFE61:
	.size	mpack_reader_set_context, .-mpack_reader_set_context
	.section	.text.mpack_reader_set_error_handler,"ax",%progbits
	.align	2
	.global	mpack_reader_set_error_handler
	.syntax unified
	.arm
	.type	mpack_reader_set_error_handler, %function
mpack_reader_set_error_handler:
.LVL741:
.LFB62:
	.loc 2 2582 106 is_stmt 1 view -0
	.cfi_startproc
	@ args = 0, pretend = 0, frame = 0
	@ frame_needed = 0, uses_anonymous_args = 0
	@ link register save eliminated.
	.loc 2 2583 5 view .LVU3105
	.loc 2 2583 22 is_stmt 0 view .LVU3106
	str	r1, [r0, #8]
	.loc 2 2584 1 view .LVU3107
	bx	lr
	.cfi_endproc
.LFE62:
	.size	mpack_reader_set_error_handler, .-mpack_reader_set_error_handler
	.section	.text.mpack_reader_set_teardown,"ax",%progbits
	.align	2
	.global	mpack_reader_set_teardown
	.syntax unified
	.arm
	.type	mpack_reader_set_teardown, %function
mpack_reader_set_teardown:
.LVL742:
.LFB63:
	.loc 2 2595 104 is_stmt 1 view -0
	.cfi_startproc
	@ args = 0, pretend = 0, frame = 0
	@ frame_needed = 0, uses_anonymous_args = 0
	@ link register save eliminated.
	.loc 2 2596 5 view .LVU3109
	.loc 2 2596 22 is_stmt 0 view .LVU3110
	str	r1, [r0, #12]
	.loc 2 2597 1 view .LVU3111
	bx	lr
	.cfi_endproc
.LFE63:
	.size	mpack_reader_set_teardown, .-mpack_reader_set_teardown
	.section	.text.mpack_reader_error,"ax",%progbits
	.align	2
	.global	mpack_reader_error
	.syntax unified
	.arm
	.type	mpack_reader_error, %function
mpack_reader_error:
.LVL743:
.LFB64:
	.loc 2 2614 72 is_stmt 1 view -0
	.cfi_startproc
	@ args = 0, pretend = 0, frame = 0
	@ frame_needed = 0, uses_anonymous_args = 0
	@ link register save eliminated.
	.loc 2 2615 5 view .LVU3113
	.loc 2 2616 1 is_stmt 0 view .LVU3114
	ldrb	r0, [r0, #36]	@ zero_extendqisi2
.LVL744:
	.loc 2 2616 1 view .LVU3115
	bx	lr
	.cfi_endproc
.LFE64:
	.size	mpack_reader_error, .-mpack_reader_error
	.section	.text.mpack_reader_flag_if_error,"ax",%progbits
	.align	2
	.global	mpack_reader_flag_if_error
	.syntax unified
	.arm
	.type	mpack_reader_flag_if_error, %function
mpack_reader_flag_if_error:
.LVL745:
.LFB65:
	.loc 2 2640 101 is_stmt 1 view -0
	.cfi_startproc
	@ args = 0, pretend = 0, frame = 0
	@ frame_needed = 0, uses_anonymous_args = 0
	.loc 2 2641 5 view .LVU3117
	.loc 2 2641 8 is_stmt 0 view .LVU3118
	subs	r3, r1, #0
.LBB3971:
.LBB3972:
	.loc 1 1821 15 view .LVU3119
	ldrb	r2, [r0, #36]	@ zero_extendqisi2
.LBE3972:
.LBE3971:
	.loc 2 2641 8 view .LVU3120
	beq	.L946
	.loc 2 2642 9 is_stmt 1 view .LVU3121
.LVL746:
.LBB3978:
.LBI3971:
	.loc 1 1818 6 view .LVU3122
.LBB3976:
	.loc 1 1819 5 view .LVU3123
	.loc 1 1821 5 view .LVU3124
	.loc 1 1821 8 is_stmt 0 view .LVU3125
	cmp	r2, #0
	bne	.L946
.LBE3976:
.LBE3978:
	.loc 2 2640 101 view .LVU3126
	push	{r4, lr}
	.cfi_def_cfa_offset 8
	.cfi_offset 4, -8
	.cfi_offset 14, -4
.LBB3979:
.LBB3977:
.LBB3973:
.LBB3974:
	.loc 1 1823 22 view .LVU3127
	str	r2, [r0, #28]
	.loc 1 1824 19 view .LVU3128
	ldr	r2, [r0, #8]
	mov	r4, r0
.LVL747:
	.loc 1 1824 19 view .LVU3129
.LBE3974:
.LBI3973:
	.loc 1 1818 6 is_stmt 1 view .LVU3130
.LBB3975:
	.loc 1 1822 9 view .LVU3131
	.loc 1 1824 12 is_stmt 0 view .LVU3132
	cmp	r2, #0
	moveq	r2, r3
	.loc 1 1822 23 view .LVU3133
	strb	r3, [r0, #36]
	.loc 1 1823 9 is_stmt 1 view .LVU3134
	.loc 1 1824 9 view .LVU3135
	.loc 1 1824 12 is_stmt 0 view .LVU3136
	beq	.L940
	.loc 1 1825 13 is_stmt 1 view .LVU3137
	blx	r2
.LVL748:
	.loc 1 1825 13 is_stmt 0 view .LVU3138
.LBE3975:
.LBE3973:
.LBE3977:
.LBE3979:
.LBB3980:
.LBB3981:
	.loc 2 2615 18 view .LVU3139
	ldrb	r2, [r4, #36]	@ zero_extendqisi2
.L940:
.LVL749:
	.loc 2 2615 18 view .LVU3140
.LBE3981:
.LBE3980:
	.loc 2 2643 5 is_stmt 1 view .LVU3141
.LBB3984:
.LBI3980:
	.loc 2 2614 29 view .LVU3142
.LBB3982:
	.loc 2 2615 5 view .LVU3143
	.loc 2 2615 5 is_stmt 0 view .LVU3144
.LBE3982:
.LBE3984:
	.loc 2 2644 1 view .LVU3145
	mov	r0, r2
	pop	{r4, pc}
.LVL750:
.L946:
	.cfi_def_cfa_offset 0
	.cfi_restore 4
	.cfi_restore 14
	.loc 2 2643 5 is_stmt 1 view .LVU3146
.LBB3985:
	.loc 2 2614 29 view .LVU3147
.LBB3983:
	.loc 2 2615 5 view .LVU3148
	.loc 2 2615 5 is_stmt 0 view .LVU3149
.LBE3983:
.LBE3985:
	.loc 2 2644 1 view .LVU3150
	mov	r0, r2
.LVL751:
	.loc 2 2644 1 view .LVU3151
	bx	lr
	.cfi_endproc
.LFE65:
	.size	mpack_reader_flag_if_error, .-mpack_reader_flag_if_error
	.section	.text.mpack_should_read_bytes_inplace,"ax",%progbits
	.align	2
	.global	mpack_should_read_bytes_inplace
	.syntax unified
	.arm
	.type	mpack_should_read_bytes_inplace, %function
mpack_should_read_bytes_inplace:
.LVL752:
.LFB67:
	.loc 2 2931 88 is_stmt 1 view -0
	.cfi_startproc
	@ args = 0, pretend = 0, frame = 0
	@ frame_needed = 0, uses_anonymous_args = 0
	@ link register save eliminated.
	.loc 2 2932 5 view .LVU3153
	.loc 2 2932 19 is_stmt 0 view .LVU3154
	ldr	r3, [r0, #24]
	.loc 2 2932 31 view .LVU3155
	cmp	r3, #0
	beq	.L951
	.loc 2 2932 31 discriminator 2 view .LVU3156
	cmp	r1, r3, lsr #5
	movls	r0, #1
.LVL753:
	.loc 2 2932 31 discriminator 2 view .LVU3157
	movhi	r0, #0
	bx	lr
.LVL754:
.L951:
	.loc 2 2932 31 discriminator 2 view .LVU3158
	mov	r0, #1
.LVL755:
	.loc 2 2933 1 view .LVU3159
	bx	lr
	.cfi_endproc
.LFE67:
	.size	mpack_should_read_bytes_inplace, .-mpack_should_read_bytes_inplace
	.section	.text.mpack_done_type,"ax",%progbits
	.align	2
	.global	mpack_done_type
	.syntax unified
	.arm
	.type	mpack_done_type, %function
mpack_done_type:
.LFB421:
	.cfi_startproc
	.loc 2 2953 20 is_stmt 1 view -0
	@ args = 0, pretend = 0, frame = 0
	@ frame_needed = 0, uses_anonymous_args = 0
	@ link register save eliminated.
	bx	lr
	.cfi_endproc
.LFE421:
	.size	mpack_done_type, .-mpack_done_type
	.section	.text.mpack_done_array,"ax",%progbits
	.align	2
	.global	mpack_done_array
	.syntax unified
	.arm
	.type	mpack_done_array, %function
mpack_done_array:
.LFB433:
	.cfi_startproc
	.loc 2 2964 20 view -0
	@ args = 0, pretend = 0, frame = 0
	@ frame_needed = 0, uses_anonymous_args = 0
	@ link register save eliminated.
	bx	lr
	.cfi_endproc
.LFE433:
	.size	mpack_done_array, .-mpack_done_array
	.section	.text.mpack_done_map,"ax",%progbits
	.align	2
	.global	mpack_done_map
	.syntax unified
	.arm
	.type	mpack_done_map, %function
mpack_done_map:
.LFB435:
	.cfi_startproc
	.loc 2 2975 20 view -0
	@ args = 0, pretend = 0, frame = 0
	@ frame_needed = 0, uses_anonymous_args = 0
	@ link register save eliminated.
	bx	lr
	.cfi_endproc
.LFE435:
	.size	mpack_done_map, .-mpack_done_map
	.section	.text.mpack_done_str,"ax",%progbits
	.align	2
	.global	mpack_done_str
	.syntax unified
	.arm
	.type	mpack_done_str, %function
mpack_done_str:
.LFB437:
	.cfi_startproc
	.loc 2 2986 20 view -0
	@ args = 0, pretend = 0, frame = 0
	@ frame_needed = 0, uses_anonymous_args = 0
	@ link register save eliminated.
	bx	lr
	.cfi_endproc
.LFE437:
	.size	mpack_done_str, .-mpack_done_str
	.section	.text.mpack_done_bin,"ax",%progbits
	.align	2
	.global	mpack_done_bin
	.syntax unified
	.arm
	.type	mpack_done_bin, %function
mpack_done_bin:
.LFB439:
	.cfi_startproc
	.loc 2 2997 20 view -0
	@ args = 0, pretend = 0, frame = 0
	@ frame_needed = 0, uses_anonymous_args = 0
	@ link register save eliminated.
	bx	lr
	.cfi_endproc
.LFE439:
	.size	mpack_done_bin, .-mpack_done_bin
	.section	.text.mpack_done_ext,"ax",%progbits
	.align	2
	.global	mpack_done_ext
	.syntax unified
	.arm
	.type	mpack_done_ext, %function
mpack_done_ext:
.LFB441:
	.cfi_startproc
	.loc 2 3008 20 view -0
	@ args = 0, pretend = 0, frame = 0
	@ frame_needed = 0, uses_anonymous_args = 0
	@ link register save eliminated.
	bx	lr
	.cfi_endproc
.LFE441:
	.size	mpack_done_ext, .-mpack_done_ext
	.section	.text.mpack_reader_track_element,"ax",%progbits
	.align	2
	.global	mpack_reader_track_element
	.syntax unified
	.arm
	.type	mpack_reader_track_element, %function
mpack_reader_track_element:
.LVL756:
.LFB77:
	.loc 2 3100 80 view -0
	.cfi_startproc
	@ args = 0, pretend = 0, frame = 0
	@ frame_needed = 0, uses_anonymous_args = 0
	@ link register save eliminated.
	.loc 2 3101 5 view .LVU3167
	.loc 2 3102 1 is_stmt 0 view .LVU3168
	mov	r0, #0
.LVL757:
	.loc 2 3102 1 view .LVU3169
	bx	lr
	.cfi_endproc
.LFE77:
	.size	mpack_reader_track_element, .-mpack_reader_track_element
	.section	.text.mpack_reader_track_peek_element,"ax",%progbits
	.align	2
	.global	mpack_reader_track_peek_element
	.syntax unified
	.arm
	.type	mpack_reader_track_peek_element, %function
mpack_reader_track_peek_element:
.LFB443:
	.cfi_startproc
	.loc 2 3104 29 is_stmt 1 view -0
	@ args = 0, pretend = 0, frame = 0
	@ frame_needed = 0, uses_anonymous_args = 0
	@ link register save eliminated.
	mov	r0, #0
	bx	lr
	.cfi_endproc
.LFE443:
	.size	mpack_reader_track_peek_element, .-mpack_reader_track_peek_element
	.section	.text.mpack_reader_track_bytes,"ax",%progbits
	.align	2
	.global	mpack_reader_track_bytes
	.syntax unified
	.arm
	.type	mpack_reader_track_bytes, %function
mpack_reader_track_bytes:
.LVL758:
.LFB79:
	.loc 2 3108 94 view -0
	.cfi_startproc
	@ args = 0, pretend = 0, frame = 0
	@ frame_needed = 0, uses_anonymous_args = 0
	@ link register save eliminated.
	.loc 2 3109 5 view .LVU3172
	.loc 2 3110 5 view .LVU3173
	.loc 2 3111 1 is_stmt 0 view .LVU3174
	mov	r0, #0
.LVL759:
	.loc 2 3111 1 view .LVU3175
	bx	lr
	.cfi_endproc
.LFE79:
	.size	mpack_reader_track_bytes, .-mpack_reader_track_bytes
	.section	.text.mpack_reader_track_str_bytes_all,"ax",%progbits
	.align	2
	.global	mpack_reader_track_str_bytes_all
	.syntax unified
	.arm
	.type	mpack_reader_track_str_bytes_all, %function
mpack_reader_track_str_bytes_all:
.LFB445:
	.cfi_startproc
	.loc 2 3113 29 is_stmt 1 view -0
	@ args = 0, pretend = 0, frame = 0
	@ frame_needed = 0, uses_anonymous_args = 0
	@ link register save eliminated.
	mov	r0, #0
	bx	lr
	.cfi_endproc
.LFE445:
	.size	mpack_reader_track_str_bytes_all, .-mpack_reader_track_str_bytes_all
	.section	.text.mpack_node,"ax",%progbits
	.align	2
	.global	mpack_node
	.syntax unified
	.arm
	.type	mpack_node, %function
mpack_node:
.LVL760:
.LFB102:
	.loc 2 4514 84 view -0
	.cfi_startproc
	@ args = 0, pretend = 0, frame = 0
	@ frame_needed = 0, uses_anonymous_args = 0
	@ link register save eliminated.
	.loc 2 4515 5 view .LVU3178
	.loc 2 4516 5 view .LVU3179
	.loc 2 4517 5 view .LVU3180
	.loc 2 4518 5 view .LVU3181
	.loc 2 4518 12 is_stmt 0 view .LVU3182
	str	r2, [r0]
	str	r1, [r0, #4]
.LVL761:
	.loc 2 4519 1 view .LVU3183
	bx	lr
	.cfi_endproc
.LFE102:
	.size	mpack_node, .-mpack_node
	.section	.text.mpack_node_child,"ax",%progbits
	.align	2
	.global	mpack_node_child
	.syntax unified
	.arm
	.type	mpack_node_child, %function
mpack_node_child:
.LVL762:
.LFB103:
	.loc 2 4521 84 is_stmt 1 view -0
	.cfi_startproc
	@ args = 0, pretend = 0, frame = 8
	@ frame_needed = 0, uses_anonymous_args = 0
	@ link register save eliminated.
	.loc 2 4522 5 view .LVU3185
	.loc 2 4521 84 is_stmt 0 view .LVU3186
	sub	sp, sp, #8
	.cfi_def_cfa_offset 8
	.loc 2 4521 84 view .LVU3187
	add	r3, sp, #8
	stmdb	r3, {r0, r1}
	.loc 2 4522 38 view .LVU3188
	ldr	r0, [r0, #8]
	.loc 2 4523 1 view .LVU3189
	add	r0, r0, r2, lsl #4
	add	sp, sp, #8
	.cfi_def_cfa_offset 0
	@ sp needed
	bx	lr
	.cfi_endproc
.LFE103:
	.size	mpack_node_child, .-mpack_node_child
	.section	.text.mpack_tree_nil_node,"ax",%progbits
	.align	2
	.global	mpack_tree_nil_node
	.syntax unified
	.arm
	.type	mpack_tree_nil_node, %function
mpack_tree_nil_node:
.LVL763:
.LFB104:
	.loc 2 4525 68 is_stmt 1 view -0
	.cfi_startproc
	@ args = 0, pretend = 0, frame = 0
	@ frame_needed = 0, uses_anonymous_args = 0
	@ link register save eliminated.
	.loc 2 4526 5 view .LVU3191
.LBB3986:
.LBI3986:
	.loc 2 4514 28 view .LVU3192
.LBB3987:
	.loc 2 4515 5 view .LVU3193
	.loc 2 4516 5 view .LVU3194
	.loc 2 4517 5 view .LVU3195
	.loc 2 4518 5 view .LVU3196
.LBE3987:
.LBE3986:
	.loc 2 4526 12 is_stmt 0 view .LVU3197
	add	r2, r1, #16
.LVL764:
.LBB3989:
.LBB3988:
	.loc 2 4518 12 view .LVU3198
	str	r2, [r0]
	str	r1, [r0, #4]
.LVL765:
	.loc 2 4518 12 view .LVU3199
.LBE3988:
.LBE3989:
	.loc 2 4527 1 view .LVU3200
	bx	lr
	.cfi_endproc
.LFE104:
	.size	mpack_tree_nil_node, .-mpack_tree_nil_node
	.section	.text.mpack_tree_error,"ax",%progbits
	.align	2
	.global	mpack_tree_error
	.syntax unified
	.arm
	.type	mpack_tree_error, %function
mpack_tree_error:
.LVL766:
.LFB105:
	.loc 2 4592 66 is_stmt 1 view -0
	.cfi_startproc
	@ args = 0, pretend = 0, frame = 0
	@ frame_needed = 0, uses_anonymous_args = 0
	@ link register save eliminated.
	.loc 2 4593 5 view .LVU3202
	.loc 2 4594 1 is_stmt 0 view .LVU3203
	ldrb	r0, [r0, #32]	@ zero_extendqisi2
.LVL767:
	.loc 2 4594 1 view .LVU3204
	bx	lr
	.cfi_endproc
.LFE105:
	.size	mpack_tree_error, .-mpack_tree_error
	.section	.text.mpack_tree_size,"ax",%progbits
	.align	2
	.global	mpack_tree_size
	.syntax unified
	.arm
	.type	mpack_tree_size, %function
mpack_tree_size:
.LVL768:
.LFB106:
	.loc 2 4605 58 is_stmt 1 view -0
	.cfi_startproc
	@ args = 0, pretend = 0, frame = 0
	@ frame_needed = 0, uses_anonymous_args = 0
	@ link register save eliminated.
	.loc 2 4606 5 view .LVU3206
	.loc 2 4607 1 is_stmt 0 view .LVU3207
	ldr	r0, [r0, #40]
.LVL769:
	.loc 2 4607 1 view .LVU3208
	bx	lr
	.cfi_endproc
.LFE106:
	.size	mpack_tree_size, .-mpack_tree_size
	.section	.text.mpack_tree_set_context,"ax",%progbits
	.align	2
	.global	mpack_tree_set_context
	.syntax unified
	.arm
	.type	mpack_tree_set_context, %function
mpack_tree_set_context:
.LVL770:
.LFB107:
	.loc 2 4620 78 is_stmt 1 view -0
	.cfi_startproc
	@ args = 0, pretend = 0, frame = 0
	@ frame_needed = 0, uses_anonymous_args = 0
	@ link register save eliminated.
	.loc 2 4621 5 view .LVU3210
	.loc 2 4621 19 is_stmt 0 view .LVU3211
	str	r1, [r0, #8]
	.loc 2 4622 1 view .LVU3212
	bx	lr
	.cfi_endproc
.LFE107:
	.size	mpack_tree_set_context, .-mpack_tree_set_context
	.section	.text.mpack_tree_set_error_handler,"ax",%progbits
	.align	2
	.global	mpack_tree_set_error_handler
	.syntax unified
	.arm
	.type	mpack_tree_set_error_handler, %function
mpack_tree_set_error_handler:
.LVL771:
.LFB108:
	.loc 2 4637 98 is_stmt 1 view -0
	.cfi_startproc
	@ args = 0, pretend = 0, frame = 0
	@ frame_needed = 0, uses_anonymous_args = 0
	@ link register save eliminated.
	.loc 2 4638 5 view .LVU3214
	.loc 2 4638 20 is_stmt 0 view .LVU3215
	str	r1, [r0]
	.loc 2 4639 1 view .LVU3216
	bx	lr
	.cfi_endproc
.LFE108:
	.size	mpack_tree_set_error_handler, .-mpack_tree_set_error_handler
	.section	.text.mpack_tree_set_teardown,"ax",%progbits
	.align	2
	.global	mpack_tree_set_teardown
	.syntax unified
	.arm
	.type	mpack_tree_set_teardown, %function
mpack_tree_set_teardown:
.LVL772:
.LFB109:
	.loc 2 4650 96 is_stmt 1 view -0
	.cfi_startproc
	@ args = 0, pretend = 0, frame = 0
	@ frame_needed = 0, uses_anonymous_args = 0
	@ link register save eliminated.
	.loc 2 4651 5 view .LVU3218
	.loc 2 4651 20 is_stmt 0 view .LVU3219
	str	r1, [r0, #4]
	.loc 2 4652 1 view .LVU3220
	bx	lr
	.cfi_endproc
.LFE109:
	.size	mpack_tree_set_teardown, .-mpack_tree_set_teardown
	.section	.text.mpack_node_error,"ax",%progbits
	.align	2
	.global	mpack_node_error
	.syntax unified
	.arm
	.type	mpack_node_error, %function
mpack_node_error:
.LFB110:
	.loc 2 4690 65 is_stmt 1 view -0
	.cfi_startproc
	@ args = 0, pretend = 0, frame = 8
	@ frame_needed = 0, uses_anonymous_args = 0
	@ link register save eliminated.
	.loc 2 4691 5 view .LVU3222
	.loc 2 4690 65 is_stmt 0 view .LVU3223
	sub	sp, sp, #8
	.cfi_def_cfa_offset 8
.LVL773:
.LBB3990:
.LBI3990:
	.loc 2 4592 29 is_stmt 1 view .LVU3224
.LBB3991:
	.loc 2 4593 5 view .LVU3225
	.loc 2 4593 5 is_stmt 0 view .LVU3226
.LBE3991:
.LBE3990:
	.loc 2 4690 65 view .LVU3227
	add	r3, sp, #8
	stmdb	r3, {r0, r1}
	.loc 2 4692 1 view .LVU3228
	ldrb	r0, [r1, #32]	@ zero_extendqisi2
	add	sp, sp, #8
	.cfi_def_cfa_offset 0
	@ sp needed
	bx	lr
	.cfi_endproc
.LFE110:
	.size	mpack_node_error, .-mpack_node_error
	.section	.text.mpack_node_print,"ax",%progbits
	.align	2
	.global	mpack_node_print
	.syntax unified
	.arm
	.type	mpack_node_print, %function
mpack_node_print:
.LFB111:
	.loc 2 4712 56 is_stmt 1 view -0
	.cfi_startproc
	@ args = 0, pretend = 0, frame = 16
	@ frame_needed = 0, uses_anonymous_args = 0
	.loc 2 4713 5 view .LVU3230
	.loc 2 4712 56 is_stmt 0 view .LVU3231
	push	{r4, r5, r6, r7, lr}
	.cfi_def_cfa_offset 20
	.cfi_offset 4, -20
	.cfi_offset 5, -16
	.cfi_offset 6, -12
	.cfi_offset 7, -8
	.cfi_offset 14, -4
	sub	sp, sp, #20
	.cfi_def_cfa_offset 40
	.loc 2 4712 56 view .LVU3232
	mov	r6, sp
	stm	r6, {r0, r1}
	.loc 2 4713 35 view .LVU3233
	bl	__getreent
.LVL774:
.LBB3995:
.LBB3996:
.LBB3997:
	.loc 1 4590 9 view .LVU3234
	ldr	r7, .L975
.LBE3997:
.LBE3996:
.LBE3995:
	.loc 2 4713 49 discriminator 1 view .LVU3235
	ldr	r4, [r0, #8]
	add	r5, sp, #8
	ldm	r6, {r0, r1}
.LBB4003:
.LBB4000:
.LBB3998:
	.loc 1 4590 9 view .LVU3236
	mov	r3, r4
	stm	r5, {r0, r1}
.LVL775:
	.loc 1 4590 9 view .LVU3237
.LBE3998:
.LBE4000:
.LBI3995:
	.loc 1 4586 6 is_stmt 1 view .LVU3238
.LBB4001:
	.loc 1 4587 5 view .LVU3239
.LBB3999:
	.loc 1 4589 23 discriminator 1 view .LVU3240
	.loc 1 4590 9 view .LVU3241
	mov	r2, #4
	mov	r1, #1
	mov	r0, r7
	bl	fwrite
.LVL776:
	.loc 1 4589 32 discriminator 3 view .LVU3242
	.loc 1 4589 23 discriminator 1 view .LVU3243
	.loc 1 4590 9 view .LVU3244
	mov	r3, r4
	mov	r2, #4
	mov	r1, #1
	mov	r0, r7
	bl	fwrite
.LVL777:
	.loc 1 4589 32 discriminator 3 view .LVU3245
	.loc 1 4589 23 discriminator 1 view .LVU3246
.LBE3999:
	.loc 1 4591 5 view .LVU3247
	ldm	r5, {r0, r1}
	mov	r3, r4
	mov	r2, #2
	bl	mpack_node_print_element
.LVL778:
	.loc 1 4592 5 view .LVU3248
	mov	r1, r4
	mov	r0, #10
.LBE4001:
.LBE4003:
	.loc 2 4714 1 is_stmt 0 view .LVU3249
	add	sp, sp, #20
	.cfi_def_cfa_offset 20
	@ sp needed
	pop	{r4, r5, r6, r7, lr}
	.cfi_restore 14
	.cfi_restore 7
	.cfi_restore 6
	.cfi_restore 5
	.cfi_restore 4
	.cfi_def_cfa_offset 0
.LVL779:
.LBB4004:
.LBB4002:
	.loc 1 4592 5 view .LVU3250
	b	putc
.LVL780:
.L976:
	.loc 1 4592 5 view .LVU3251
	.align	2
.L975:
	.word	.LC12
.LBE4002:
.LBE4004:
	.cfi_endproc
.LFE111:
	.size	mpack_node_print, .-mpack_node_print
	.section	.text.mpack_node_type,"ax",%progbits
	.align	2
	.global	mpack_node_type
	.syntax unified
	.arm
	.type	mpack_node_type, %function
mpack_node_type:
.LFB112:
	.loc 2 4730 63 is_stmt 1 view -0
	.cfi_startproc
	@ args = 0, pretend = 0, frame = 8
	@ frame_needed = 0, uses_anonymous_args = 0
	@ link register save eliminated.
	sub	sp, sp, #8
	.cfi_def_cfa_offset 8
.LVL781:
	.loc 2 4731 5 view .LVU3253
.LBB4005:
.LBI4005:
	.loc 2 4690 29 view .LVU3254
	.loc 2 4691 5 view .LVU3255
.LBB4006:
.LBI4006:
	.loc 2 4592 29 view .LVU3256
.LBB4007:
	.loc 2 4593 5 view .LVU3257
	.loc 2 4593 5 is_stmt 0 view .LVU3258
.LBE4007:
.LBE4006:
.LBE4005:
	.loc 2 4730 63 view .LVU3259
	add	r3, sp, #8
	stmdb	r3, {r0, r1}
.LVL782:
	.loc 2 4731 8 discriminator 1 view .LVU3260
	ldrb	r3, [r1, #32]	@ zero_extendqisi2
	cmp	r3, #0
	.loc 2 4733 5 is_stmt 1 view .LVU3261
	.loc 2 4733 21 is_stmt 0 view .LVU3262
	moveq	r3, r0
	.loc 2 4732 16 view .LVU3263
	movne	r0, #1
	.loc 2 4733 21 view .LVU3264
	ldrbeq	r0, [r3]	@ zero_extendqisi2
	.loc 2 4734 1 view .LVU3265
	add	sp, sp, #8
	.cfi_def_cfa_offset 0
	@ sp needed
	bx	lr
	.cfi_endproc
.LFE112:
	.size	mpack_node_type, .-mpack_node_type
	.section	.text.mpack_node_nil,"ax",%progbits
	.align	2
	.global	mpack_node_nil
	.syntax unified
	.arm
	.type	mpack_node_nil, %function
mpack_node_nil:
.LFB113:
	.loc 2 4739 54 is_stmt 1 view -0
	.cfi_startproc
	@ args = 0, pretend = 0, frame = 8
	@ frame_needed = 0, uses_anonymous_args = 0
	@ link register save eliminated.
	sub	sp, sp, #8
	.cfi_def_cfa_offset 8
	.loc 2 4739 54 is_stmt 0 view .LVU3267
	add	r3, sp, #8
	stmdb	r3, {r0, r1}
	.loc 2 4740 8 discriminator 1 view .LVU3268
	ldrb	r3, [r1, #32]	@ zero_extendqisi2
	ldr	r2, [sp]
.LVL783:
	.loc 2 4740 5 is_stmt 1 view .LVU3269
.LBB4016:
.LBI4016:
	.loc 2 4690 29 view .LVU3270
	.loc 2 4691 5 view .LVU3271
.LBB4017:
.LBI4017:
	.loc 2 4592 29 view .LVU3272
.LBB4018:
	.loc 2 4593 5 view .LVU3273
	.loc 2 4593 5 is_stmt 0 view .LVU3274
.LBE4018:
.LBE4017:
.LBE4016:
	.loc 2 4740 8 discriminator 1 view .LVU3275
	cmp	r3, #0
	bne	.L981
	.loc 2 4742 5 is_stmt 1 view .LVU3276
	.loc 2 4742 8 is_stmt 0 view .LVU3277
	ldrb	r3, [r2]	@ zero_extendqisi2
	cmp	r3, #1
	bne	.L992
.LVL784:
.L981:
	.loc 2 4744 1 view .LVU3278
	add	sp, sp, #8
	.cfi_remember_state
	.cfi_def_cfa_offset 0
	@ sp needed
	bx	lr
.LVL785:
.L992:
	.cfi_restore_state
	.loc 2 4744 1 view .LVU3279
	mov	r0, r1
.LVL786:
	.loc 2 4743 9 is_stmt 1 view .LVU3280
.LBB4019:
.LBI4019:
	.loc 1 4461 6 view .LVU3281
	.loc 1 4462 5 view .LVU3282
.LBB4020:
.LBI4020:
	.loc 1 4445 6 view .LVU3283
	.loc 1 4446 5 view .LVU3284
.LBB4021:
.LBI4021:
	.loc 1 4445 6 view .LVU3285
.LBB4022:
	.loc 1 4447 9 view .LVU3286
	.loc 1 4448 9 view .LVU3287
	.loc 1 4448 21 is_stmt 0 view .LVU3288
	mov	r1, #4
	.loc 1 4449 17 view .LVU3289
	ldr	r3, [r0]
	.loc 1 4448 21 view .LVU3290
	strb	r1, [r0, #32]
	.loc 1 4449 9 is_stmt 1 view .LVU3291
	.loc 1 4449 12 is_stmt 0 view .LVU3292
	cmp	r3, #0
	beq	.L981
	.loc 1 4450 13 is_stmt 1 view .LVU3293
.LBE4022:
.LBE4021:
.LBE4020:
.LBE4019:
	.loc 2 4744 1 is_stmt 0 view .LVU3294
	add	sp, sp, #8
	.cfi_def_cfa_offset 0
	@ sp needed
.LBB4026:
.LBB4025:
.LBB4024:
.LBB4023:
	.loc 1 4450 13 view .LVU3295
	bx	r3	@ indirect register sibling call
.LVL787:
	.loc 1 4450 13 view .LVU3296
.LBE4023:
.LBE4024:
.LBE4025:
.LBE4026:
	.cfi_endproc
.LFE113:
	.size	mpack_node_nil, .-mpack_node_nil
	.section	.text.mpack_node_bool,"ax",%progbits
	.align	2
	.global	mpack_node_bool
	.syntax unified
	.arm
	.type	mpack_node_bool, %function
mpack_node_bool:
.LFB114:
	.loc 2 4750 53 is_stmt 1 view -0
	.cfi_startproc
	@ args = 0, pretend = 0, frame = 8
	@ frame_needed = 0, uses_anonymous_args = 0
	str	lr, [sp, #-4]!
	.cfi_def_cfa_offset 4
	.cfi_offset 14, -4
	sub	sp, sp, #12
	.cfi_def_cfa_offset 16
	.loc 2 4750 53 is_stmt 0 view .LVU3298
	add	r3, sp, #8
	stmdb	r3, {r0, r1}
	.loc 2 4751 8 discriminator 1 view .LVU3299
	ldrb	r3, [r1, #32]	@ zero_extendqisi2
	ldr	r2, [sp]
.LVL788:
	.loc 2 4751 5 is_stmt 1 view .LVU3300
.LBB4041:
.LBI4041:
	.loc 2 4690 29 view .LVU3301
	.loc 2 4691 5 view .LVU3302
.LBB4042:
.LBI4042:
	.loc 2 4592 29 view .LVU3303
.LBB4043:
	.loc 2 4593 5 view .LVU3304
	.loc 2 4593 5 is_stmt 0 view .LVU3305
.LBE4043:
.LBE4042:
.LBE4041:
	.loc 2 4751 8 discriminator 1 view .LVU3306
	cmp	r3, #0
	bne	.L995
	.loc 2 4754 5 is_stmt 1 view .LVU3307
	.loc 2 4754 8 is_stmt 0 view .LVU3308
	ldrb	r3, [r2]	@ zero_extendqisi2
	cmp	r3, #2
	.loc 2 4755 32 view .LVU3309
	ldrbeq	r0, [r2, #8]	@ zero_extendqisi2
.LVL789:
	.loc 2 4754 8 view .LVU3310
	beq	.L997
	mov	r0, r1
	.loc 2 4757 5 is_stmt 1 view .LVU3311
.LVL790:
.LBB4044:
.LBI4044:
	.loc 1 4461 6 view .LVU3312
	.loc 1 4462 5 view .LVU3313
.LBB4045:
.LBI4045:
	.loc 1 4445 6 view .LVU3314
	.loc 1 4446 5 view .LVU3315
.LBB4046:
.LBI4046:
	.loc 1 4445 6 view .LVU3316
.LBB4047:
	.loc 1 4447 9 view .LVU3317
	.loc 1 4448 9 view .LVU3318
	.loc 1 4448 21 is_stmt 0 view .LVU3319
	mov	r1, #4
.LVL791:
	.loc 1 4449 17 view .LVU3320
	ldr	r3, [r0]
	.loc 1 4448 21 view .LVU3321
	strb	r1, [r0, #32]
	.loc 1 4449 9 is_stmt 1 view .LVU3322
	.loc 1 4449 12 is_stmt 0 view .LVU3323
	cmp	r3, #0
	beq	.L995
	.loc 1 4450 13 is_stmt 1 view .LVU3324
	blx	r3
.LVL792:
.L995:
	.loc 1 4450 13 is_stmt 0 view .LVU3325
.LBE4047:
.LBE4046:
.LBE4045:
.LBE4044:
	.loc 2 4752 15 view .LVU3326
	mov	r0, #0
.L997:
	.loc 2 4759 1 view .LVU3327
	add	sp, sp, #12
	.cfi_def_cfa_offset 4
	@ sp needed
	ldr	pc, [sp], #4
	.cfi_endproc
.LFE114:
	.size	mpack_node_bool, .-mpack_node_bool
	.section	.text.mpack_node_true,"ax",%progbits
	.align	2
	.global	mpack_node_true
	.syntax unified
	.arm
	.type	mpack_node_true, %function
mpack_node_true:
.LFB115:
	.loc 2 4765 55 is_stmt 1 view -0
	.cfi_startproc
	@ args = 0, pretend = 0, frame = 8
	@ frame_needed = 0, uses_anonymous_args = 0
	push	{r4, lr}
	.cfi_def_cfa_offset 8
	.cfi_offset 4, -8
	.cfi_offset 14, -4
	sub	sp, sp, #8
	.cfi_def_cfa_offset 16
	.loc 2 4765 55 is_stmt 0 view .LVU3329
	add	r3, sp, #8
	stmdb	r3, {r0, r1}
.LVL793:
	.loc 2 4766 5 is_stmt 1 view .LVU3330
.LBB4063:
.LBI4063:
	.loc 2 4750 18 view .LVU3331
.LBB4064:
	.loc 2 4751 5 view .LVU3332
.LBB4065:
.LBI4065:
	.loc 2 4690 29 view .LVU3333
	.loc 2 4691 5 view .LVU3334
.LBB4066:
.LBI4066:
	.loc 2 4592 29 view .LVU3335
.LBB4067:
	.loc 2 4593 5 view .LVU3336
	.loc 2 4593 5 is_stmt 0 view .LVU3337
.LBE4067:
.LBE4066:
.LBE4065:
	.loc 2 4751 8 discriminator 1 view .LVU3338
	ldrb	r3, [r1, #32]	@ zero_extendqisi2
	cmp	r3, #0
	bne	.L1003
	.loc 2 4754 8 view .LVU3339
	ldrb	r3, [r0]	@ zero_extendqisi2
	mov	r4, r1
	.loc 2 4754 5 is_stmt 1 view .LVU3340
	.loc 2 4754 8 is_stmt 0 view .LVU3341
	cmp	r3, #2
	beq	.L1017
	.loc 2 4757 5 is_stmt 1 view .LVU3342
.LVL794:
.LBB4068:
.LBI4068:
	.loc 1 4461 6 view .LVU3343
	.loc 1 4462 5 view .LVU3344
.LBB4069:
.LBI4069:
	.loc 1 4445 6 view .LVU3345
	.loc 1 4446 5 view .LVU3346
.LBB4070:
.LBI4070:
	.loc 1 4445 6 view .LVU3347
.LBB4071:
	.loc 1 4447 9 view .LVU3348
	.loc 1 4448 9 view .LVU3349
	.loc 1 4448 21 is_stmt 0 view .LVU3350
	mov	r1, #4
.LVL795:
	.loc 1 4449 17 view .LVU3351
	ldr	r3, [r4]
	.loc 1 4448 21 view .LVU3352
	strb	r1, [r4, #32]
	.loc 1 4449 9 is_stmt 1 view .LVU3353
	.loc 1 4449 12 is_stmt 0 view .LVU3354
	cmp	r3, #0
	beq	.L1003
	.loc 1 4450 13 is_stmt 1 view .LVU3355
	mov	r0, r4
.LVL796:
	.loc 1 4450 13 is_stmt 0 view .LVU3356
	blx	r3
.LVL797:
	.loc 1 4450 13 view .LVU3357
.LBE4071:
.LBE4070:
.LBE4069:
.LBE4068:
.LBE4064:
.LBE4063:
	.loc 2 4767 9 is_stmt 1 view .LVU3358
.LBB4073:
.LBI4073:
	.loc 1 4461 6 view .LVU3359
	.loc 1 4462 5 view .LVU3360
.LBB4074:
.LBI4074:
	.loc 1 4445 6 view .LVU3361
.LBB4075:
	.loc 1 4446 5 view .LVU3362
	.loc 1 4446 8 is_stmt 0 view .LVU3363
	ldrb	r3, [r4, #32]	@ zero_extendqisi2
	cmp	r3, #0
	bne	.L1003
.LVL798:
.L1008:
.LBB4076:
.LBI4076:
	.loc 1 4445 6 is_stmt 1 view .LVU3364
.LBB4077:
	.loc 1 4447 9 view .LVU3365
	.loc 1 4448 9 view .LVU3366
	.loc 1 4448 21 is_stmt 0 view .LVU3367
	mov	r1, #4
	.loc 1 4449 17 view .LVU3368
	ldr	r3, [r4]
	.loc 1 4448 21 view .LVU3369
	strb	r1, [r4, #32]
	.loc 1 4449 9 is_stmt 1 view .LVU3370
	.loc 1 4449 12 is_stmt 0 view .LVU3371
	cmp	r3, #0
	beq	.L1003
	.loc 1 4450 13 is_stmt 1 view .LVU3372
	mov	r0, r4
.LBE4077:
.LBE4076:
.LBE4075:
.LBE4074:
.LBE4073:
	.loc 2 4768 1 is_stmt 0 view .LVU3373
	add	sp, sp, #8
	.cfi_remember_state
	.cfi_def_cfa_offset 8
	@ sp needed
	pop	{r4, lr}
	.cfi_restore 14
	.cfi_restore 4
	.cfi_def_cfa_offset 0
.LVL799:
.LBB4082:
.LBB4081:
.LBB4080:
.LBB4079:
.LBB4078:
	.loc 1 4450 13 view .LVU3374
	bx	r3	@ indirect register sibling call
.LVL800:
.L1017:
	.cfi_restore_state
	.loc 1 4450 13 view .LVU3375
.LBE4078:
.LBE4079:
.LBE4080:
.LBE4081:
.LBE4082:
.LBB4083:
.LBB4072:
	.loc 2 4755 9 is_stmt 1 view .LVU3376
	.loc 2 4755 9 is_stmt 0 view .LVU3377
.LBE4072:
.LBE4083:
	.loc 2 4766 8 discriminator 1 view .LVU3378
	ldrb	r3, [r0, #8]	@ zero_extendqisi2
	cmp	r3, #0
	beq	.L1008
.LVL801:
.L1003:
	.loc 2 4768 1 view .LVU3379
	add	sp, sp, #8
	.cfi_def_cfa_offset 8
	@ sp needed
	pop	{r4, pc}
	.cfi_endproc
.LFE115:
	.size	mpack_node_true, .-mpack_node_true
	.section	.text.mpack_node_false,"ax",%progbits
	.align	2
	.global	mpack_node_false
	.syntax unified
	.arm
	.type	mpack_node_false, %function
mpack_node_false:
.LFB116:
	.loc 2 4774 56 is_stmt 1 view -0
	.cfi_startproc
	@ args = 0, pretend = 0, frame = 8
	@ frame_needed = 0, uses_anonymous_args = 0
	@ link register save eliminated.
	sub	sp, sp, #8
	.cfi_def_cfa_offset 8
	.loc 2 4774 56 is_stmt 0 view .LVU3381
	add	r3, sp, #8
	stmdb	r3, {r0, r1}
.LVL802:
	.loc 2 4775 5 is_stmt 1 view .LVU3382
.LBB4099:
.LBB4100:
	.loc 2 4751 8 is_stmt 0 discriminator 1 view .LVU3383
	ldrb	r3, [r1, #32]	@ zero_extendqisi2
	ldr	r2, [sp]
.LVL803:
	.loc 2 4751 8 discriminator 1 view .LVU3384
.LBE4100:
.LBI4099:
	.loc 2 4750 18 is_stmt 1 view .LVU3385
.LBB4104:
	.loc 2 4751 5 view .LVU3386
.LBB4101:
.LBI4101:
	.loc 2 4690 29 view .LVU3387
	.loc 2 4691 5 view .LVU3388
.LBB4102:
.LBI4102:
	.loc 2 4592 29 view .LVU3389
.LBB4103:
	.loc 2 4593 5 view .LVU3390
	.loc 2 4593 5 is_stmt 0 view .LVU3391
.LBE4103:
.LBE4102:
.LBE4101:
	.loc 2 4751 8 discriminator 1 view .LVU3392
	cmp	r3, #0
	bne	.L1018
	.loc 2 4754 8 view .LVU3393
	ldrb	r3, [r2]	@ zero_extendqisi2
	mov	r0, r1
.LVL804:
	.loc 2 4754 5 is_stmt 1 view .LVU3394
	.loc 2 4754 8 is_stmt 0 view .LVU3395
	cmp	r3, #2
	beq	.L1033
.LVL805:
.L1022:
	.loc 2 4754 8 view .LVU3396
.LBE4104:
.LBE4099:
	.loc 2 4776 9 is_stmt 1 view .LVU3397
.LBB4106:
.LBI4106:
	.loc 1 4461 6 view .LVU3398
	.loc 1 4462 5 view .LVU3399
.LBB4107:
.LBI4107:
	.loc 1 4445 6 view .LVU3400
	.loc 1 4446 5 view .LVU3401
.LBB4108:
.LBI4108:
	.loc 1 4445 6 view .LVU3402
.LBB4109:
	.loc 1 4447 9 view .LVU3403
	.loc 1 4448 9 view .LVU3404
	.loc 1 4448 21 is_stmt 0 view .LVU3405
	mov	r1, #4
.LVL806:
	.loc 1 4449 17 view .LVU3406
	ldr	r3, [r0]
	.loc 1 4448 21 view .LVU3407
	strb	r1, [r0, #32]
	.loc 1 4449 9 is_stmt 1 view .LVU3408
	.loc 1 4449 12 is_stmt 0 view .LVU3409
	cmp	r3, #0
	beq	.L1018
	.loc 1 4450 13 is_stmt 1 view .LVU3410
.LBE4109:
.LBE4108:
.LBE4107:
.LBE4106:
	.loc 2 4777 1 is_stmt 0 view .LVU3411
	add	sp, sp, #8
	.cfi_remember_state
	.cfi_def_cfa_offset 0
	@ sp needed
.LBB4113:
.LBB4112:
.LBB4111:
.LBB4110:
	.loc 1 4450 13 view .LVU3412
	bx	r3	@ indirect register sibling call
.LVL807:
.L1033:
	.cfi_restore_state
	.loc 1 4450 13 view .LVU3413
.LBE4110:
.LBE4111:
.LBE4112:
.LBE4113:
.LBB4114:
.LBB4105:
	.loc 2 4755 9 is_stmt 1 view .LVU3414
	.loc 2 4755 9 is_stmt 0 view .LVU3415
.LBE4105:
.LBE4114:
	.loc 2 4775 8 discriminator 1 view .LVU3416
	ldrb	r3, [r2, #8]	@ zero_extendqisi2
	cmp	r3, #0
	bne	.L1022
.LVL808:
.L1018:
	.loc 2 4777 1 view .LVU3417
	add	sp, sp, #8
	.cfi_def_cfa_offset 0
	@ sp needed
	bx	lr
	.cfi_endproc
.LFE116:
	.size	mpack_node_false, .-mpack_node_false
	.section	.text.mpack_node_u8,"ax",%progbits
	.align	2
	.global	mpack_node_u8
	.syntax unified
	.arm
	.type	mpack_node_u8, %function
mpack_node_u8:
.LFB117:
	.loc 2 4783 56 is_stmt 1 view -0
	.cfi_startproc
	@ args = 0, pretend = 0, frame = 8
	@ frame_needed = 0, uses_anonymous_args = 0
	str	lr, [sp, #-4]!
	.cfi_def_cfa_offset 4
	.cfi_offset 14, -4
	sub	sp, sp, #12
	.cfi_def_cfa_offset 16
	.loc 2 4783 56 is_stmt 0 view .LVU3419
	add	r3, sp, #8
	stmdb	r3, {r0, r1}
	.loc 2 4784 8 discriminator 1 view .LVU3420
	ldrb	r2, [r1, #32]	@ zero_extendqisi2
	ldr	r3, [sp]
.LVL809:
	.loc 2 4784 5 is_stmt 1 view .LVU3421
.LBB4123:
.LBI4123:
	.loc 2 4690 29 view .LVU3422
	.loc 2 4691 5 view .LVU3423
.LBB4124:
.LBI4124:
	.loc 2 4592 29 view .LVU3424
.LBB4125:
	.loc 2 4593 5 view .LVU3425
	.loc 2 4593 5 is_stmt 0 view .LVU3426
.LBE4125:
.LBE4124:
.LBE4123:
	.loc 2 4784 8 discriminator 1 view .LVU3427
	cmp	r2, #0
	bne	.L1036
	.loc 2 4787 18 view .LVU3428
	ldrb	r2, [r3]	@ zero_extendqisi2
	mov	r0, r1
.LVL810:
	.loc 2 4787 5 is_stmt 1 view .LVU3429
	.loc 2 4787 8 is_stmt 0 view .LVU3430
	cmp	r2, #6
	beq	.L1047
	.loc 2 4790 12 is_stmt 1 view .LVU3431
	.loc 2 4790 15 is_stmt 0 view .LVU3432
	cmp	r2, #5
	beq	.L1047
.LVL811:
.L1038:
	.loc 2 4795 5 is_stmt 1 view .LVU3433
.LBB4126:
.LBI4126:
	.loc 1 4461 6 view .LVU3434
	.loc 1 4462 5 view .LVU3435
.LBB4127:
.LBI4127:
	.loc 1 4445 6 view .LVU3436
	.loc 1 4446 5 view .LVU3437
.LBB4128:
.LBI4128:
	.loc 1 4445 6 view .LVU3438
.LBB4129:
	.loc 1 4447 9 view .LVU3439
	.loc 1 4448 9 view .LVU3440
	.loc 1 4448 21 is_stmt 0 view .LVU3441
	mov	r1, #4
	.loc 1 4449 17 view .LVU3442
	ldr	r3, [r0]
	.loc 1 4448 21 view .LVU3443
	strb	r1, [r0, #32]
	.loc 1 4449 9 is_stmt 1 view .LVU3444
	.loc 1 4449 12 is_stmt 0 view .LVU3445
	cmp	r3, #0
	beq	.L1036
	.loc 1 4450 13 is_stmt 1 view .LVU3446
	blx	r3
.LVL812:
.L1036:
	.loc 1 4450 13 is_stmt 0 view .LVU3447
.LBE4129:
.LBE4128:
.LBE4127:
.LBE4126:
	.loc 2 4785 16 view .LVU3448
	mov	r0, #0
	.loc 2 4797 1 view .LVU3449
	add	sp, sp, #12
	.cfi_remember_state
	.cfi_def_cfa_offset 4
	@ sp needed
	ldr	pc, [sp], #4
.LVL813:
.L1047:
	.cfi_restore_state
	.loc 2 4791 9 is_stmt 1 view .LVU3450
	.loc 2 4791 29 is_stmt 0 view .LVU3451
	ldrd	r2, [r3, #8]
.LVL814:
	.loc 2 4791 12 view .LVU3452
	cmp	r2, #256
	sbcs	r3, r3, #0
	.loc 2 4792 20 view .LVU3453
	uxtbcc	r0, r2
	.loc 2 4791 12 view .LVU3454
	bcs	.L1038
	.loc 2 4797 1 view .LVU3455
	add	sp, sp, #12
	.cfi_def_cfa_offset 4
	@ sp needed
	ldr	pc, [sp], #4
	.cfi_endproc
.LFE117:
	.size	mpack_node_u8, .-mpack_node_u8
	.section	.text.mpack_node_i8,"ax",%progbits
	.align	2
	.global	mpack_node_i8
	.syntax unified
	.arm
	.type	mpack_node_i8, %function
mpack_node_i8:
.LFB118:
	.loc 2 4803 55 is_stmt 1 view -0
	.cfi_startproc
	@ args = 0, pretend = 0, frame = 8
	@ frame_needed = 0, uses_anonymous_args = 0
	str	lr, [sp, #-4]!
	.cfi_def_cfa_offset 4
	.cfi_offset 14, -4
	sub	sp, sp, #12
	.cfi_def_cfa_offset 16
	.loc 2 4803 55 is_stmt 0 view .LVU3457
	add	r3, sp, #8
	stmdb	r3, {r0, r1}
	.loc 2 4804 8 discriminator 1 view .LVU3458
	ldrb	r3, [r1, #32]	@ zero_extendqisi2
	ldr	r2, [sp]
.LVL815:
	.loc 2 4804 5 is_stmt 1 view .LVU3459
.LBB4138:
.LBI4138:
	.loc 2 4690 29 view .LVU3460
	.loc 2 4691 5 view .LVU3461
.LBB4139:
.LBI4139:
	.loc 2 4592 29 view .LVU3462
.LBB4140:
	.loc 2 4593 5 view .LVU3463
	.loc 2 4593 5 is_stmt 0 view .LVU3464
.LBE4140:
.LBE4139:
.LBE4138:
	.loc 2 4804 8 discriminator 1 view .LVU3465
	cmp	r3, #0
	bne	.L1051
	.loc 2 4807 18 view .LVU3466
	ldrb	r3, [r2]	@ zero_extendqisi2
	mov	r0, r1
.LVL816:
	.loc 2 4807 5 is_stmt 1 view .LVU3467
	.loc 2 4807 8 is_stmt 0 view .LVU3468
	cmp	r3, #6
	beq	.L1061
	.loc 2 4810 12 is_stmt 1 view .LVU3469
	.loc 2 4810 15 is_stmt 0 view .LVU3470
	cmp	r3, #5
	beq	.L1062
.LVL817:
.L1053:
	.loc 2 4815 5 is_stmt 1 view .LVU3471
.LBB4141:
.LBI4141:
	.loc 1 4461 6 view .LVU3472
	.loc 1 4462 5 view .LVU3473
.LBB4142:
.LBI4142:
	.loc 1 4445 6 view .LVU3474
	.loc 1 4446 5 view .LVU3475
.LBB4143:
.LBI4143:
	.loc 1 4445 6 view .LVU3476
.LBB4144:
	.loc 1 4447 9 view .LVU3477
	.loc 1 4448 9 view .LVU3478
	.loc 1 4448 21 is_stmt 0 view .LVU3479
	mov	r1, #4
	.loc 1 4449 17 view .LVU3480
	ldr	r3, [r0]
	.loc 1 4448 21 view .LVU3481
	strb	r1, [r0, #32]
	.loc 1 4449 9 is_stmt 1 view .LVU3482
	.loc 1 4449 12 is_stmt 0 view .LVU3483
	cmp	r3, #0
	beq	.L1051
	.loc 1 4450 13 is_stmt 1 view .LVU3484
	blx	r3
.LVL818:
.L1051:
	.loc 1 4450 13 is_stmt 0 view .LVU3485
.LBE4144:
.LBE4143:
.LBE4142:
.LBE4141:
	.loc 2 4805 16 view .LVU3486
	mov	r0, #0
	.loc 2 4817 1 view .LVU3487
	add	sp, sp, #12
	.cfi_remember_state
	.cfi_def_cfa_offset 4
	@ sp needed
	ldr	pc, [sp], #4
.LVL819:
.L1061:
	.cfi_restore_state
	.loc 2 4808 9 is_stmt 1 view .LVU3488
	.loc 2 4808 29 is_stmt 0 view .LVU3489
	ldr	r3, [r2, #8]
	ldr	r2, [r2, #12]
.LVL820:
	.loc 2 4808 12 view .LVU3490
	cmp	r3, #128
	sbcs	r2, r2, #0
	bcs	.L1053
.L1060:
	.loc 2 4812 13 is_stmt 1 view .LVU3491
	.loc 2 4812 20 is_stmt 0 view .LVU3492
	sxtb	r0, r3
	.loc 2 4817 1 view .LVU3493
	add	sp, sp, #12
	.cfi_remember_state
	.cfi_def_cfa_offset 4
	@ sp needed
	ldr	pc, [sp], #4
.LVL821:
.L1062:
	.cfi_restore_state
	.loc 2 4811 9 is_stmt 1 view .LVU3494
	.loc 2 4811 29 is_stmt 0 view .LVU3495
	ldr	r3, [r2, #8]
	ldr	r2, [r2, #12]
.LVL822:
	.loc 2 4811 43 view .LVU3496
	adds	r1, r3, #128
	adc	r2, r2, #0
	.loc 2 4811 12 view .LVU3497
	cmp	r1, #256
	sbcs	r2, r2, #0
	bcs	.L1053
	b	.L1060
	.cfi_endproc
.LFE118:
	.size	mpack_node_i8, .-mpack_node_i8
	.section	.text.mpack_node_u16,"ax",%progbits
	.align	2
	.global	mpack_node_u16
	.syntax unified
	.arm
	.type	mpack_node_u16, %function
mpack_node_u16:
.LFB119:
	.loc 2 4823 58 is_stmt 1 view -0
	.cfi_startproc
	@ args = 0, pretend = 0, frame = 8
	@ frame_needed = 0, uses_anonymous_args = 0
	str	lr, [sp, #-4]!
	.cfi_def_cfa_offset 4
	.cfi_offset 14, -4
	sub	sp, sp, #12
	.cfi_def_cfa_offset 16
	.loc 2 4823 58 is_stmt 0 view .LVU3499
	add	r3, sp, #8
	stmdb	r3, {r0, r1}
	.loc 2 4824 8 discriminator 1 view .LVU3500
	ldrb	r2, [r1, #32]	@ zero_extendqisi2
	ldr	r3, [sp]
.LVL823:
	.loc 2 4824 5 is_stmt 1 view .LVU3501
.LBB4153:
.LBI4153:
	.loc 2 4690 29 view .LVU3502
	.loc 2 4691 5 view .LVU3503
.LBB4154:
.LBI4154:
	.loc 2 4592 29 view .LVU3504
.LBB4155:
	.loc 2 4593 5 view .LVU3505
	.loc 2 4593 5 is_stmt 0 view .LVU3506
.LBE4155:
.LBE4154:
.LBE4153:
	.loc 2 4824 8 discriminator 1 view .LVU3507
	cmp	r2, #0
	bne	.L1065
	.loc 2 4827 18 view .LVU3508
	ldrb	r2, [r3]	@ zero_extendqisi2
	mov	r0, r1
.LVL824:
	.loc 2 4827 5 is_stmt 1 view .LVU3509
	.loc 2 4827 8 is_stmt 0 view .LVU3510
	cmp	r2, #6
	beq	.L1076
	.loc 2 4830 12 is_stmt 1 view .LVU3511
	.loc 2 4830 15 is_stmt 0 view .LVU3512
	cmp	r2, #5
	beq	.L1076
.LVL825:
.L1067:
	.loc 2 4835 5 is_stmt 1 view .LVU3513
.LBB4156:
.LBI4156:
	.loc 1 4461 6 view .LVU3514
	.loc 1 4462 5 view .LVU3515
.LBB4157:
.LBI4157:
	.loc 1 4445 6 view .LVU3516
	.loc 1 4446 5 view .LVU3517
.LBB4158:
.LBI4158:
	.loc 1 4445 6 view .LVU3518
.LBB4159:
	.loc 1 4447 9 view .LVU3519
	.loc 1 4448 9 view .LVU3520
	.loc 1 4448 21 is_stmt 0 view .LVU3521
	mov	r1, #4
	.loc 1 4449 17 view .LVU3522
	ldr	r3, [r0]
	.loc 1 4448 21 view .LVU3523
	strb	r1, [r0, #32]
	.loc 1 4449 9 is_stmt 1 view .LVU3524
	.loc 1 4449 12 is_stmt 0 view .LVU3525
	cmp	r3, #0
	beq	.L1065
	.loc 1 4450 13 is_stmt 1 view .LVU3526
	blx	r3
.LVL826:
.L1065:
	.loc 1 4450 13 is_stmt 0 view .LVU3527
.LBE4159:
.LBE4158:
.LBE4157:
.LBE4156:
	.loc 2 4825 16 view .LVU3528
	mov	r0, #0
	.loc 2 4837 1 view .LVU3529
	add	sp, sp, #12
	.cfi_remember_state
	.cfi_def_cfa_offset 4
	@ sp needed
	ldr	pc, [sp], #4
.LVL827:
.L1076:
	.cfi_restore_state
	.loc 2 4831 9 is_stmt 1 view .LVU3530
	.loc 2 4831 29 is_stmt 0 view .LVU3531
	ldrd	r2, [r3, #8]
.LVL828:
	.loc 2 4831 12 view .LVU3532
	cmp	r2, #65536
	sbcs	r3, r3, #0
	.loc 2 4832 20 view .LVU3533
	uxthcc	r0, r2
	.loc 2 4831 12 view .LVU3534
	bcs	.L1067
	.loc 2 4837 1 view .LVU3535
	add	sp, sp, #12
	.cfi_def_cfa_offset 4
	@ sp needed
	ldr	pc, [sp], #4
	.cfi_endproc
.LFE119:
	.size	mpack_node_u16, .-mpack_node_u16
	.section	.text.mpack_node_i16,"ax",%progbits
	.align	2
	.global	mpack_node_i16
	.syntax unified
	.arm
	.type	mpack_node_i16, %function
mpack_node_i16:
.LFB120:
	.loc 2 4843 57 is_stmt 1 view -0
	.cfi_startproc
	@ args = 0, pretend = 0, frame = 8
	@ frame_needed = 0, uses_anonymous_args = 0
	str	lr, [sp, #-4]!
	.cfi_def_cfa_offset 4
	.cfi_offset 14, -4
	sub	sp, sp, #12
	.cfi_def_cfa_offset 16
	.loc 2 4843 57 is_stmt 0 view .LVU3537
	add	r3, sp, #8
	stmdb	r3, {r0, r1}
	.loc 2 4844 8 discriminator 1 view .LVU3538
	ldrb	r3, [r1, #32]	@ zero_extendqisi2
	ldr	r2, [sp]
.LVL829:
	.loc 2 4844 5 is_stmt 1 view .LVU3539
.LBB4168:
.LBI4168:
	.loc 2 4690 29 view .LVU3540
	.loc 2 4691 5 view .LVU3541
.LBB4169:
.LBI4169:
	.loc 2 4592 29 view .LVU3542
.LBB4170:
	.loc 2 4593 5 view .LVU3543
	.loc 2 4593 5 is_stmt 0 view .LVU3544
.LBE4170:
.LBE4169:
.LBE4168:
	.loc 2 4844 8 discriminator 1 view .LVU3545
	cmp	r3, #0
	bne	.L1080
	.loc 2 4847 18 view .LVU3546
	ldrb	r3, [r2]	@ zero_extendqisi2
	mov	r0, r1
.LVL830:
	.loc 2 4847 5 is_stmt 1 view .LVU3547
	.loc 2 4847 8 is_stmt 0 view .LVU3548
	cmp	r3, #6
	beq	.L1090
	.loc 2 4850 12 is_stmt 1 view .LVU3549
	.loc 2 4850 15 is_stmt 0 view .LVU3550
	cmp	r3, #5
	beq	.L1091
.LVL831:
.L1082:
	.loc 2 4855 5 is_stmt 1 view .LVU3551
.LBB4171:
.LBI4171:
	.loc 1 4461 6 view .LVU3552
	.loc 1 4462 5 view .LVU3553
.LBB4172:
.LBI4172:
	.loc 1 4445 6 view .LVU3554
	.loc 1 4446 5 view .LVU3555
.LBB4173:
.LBI4173:
	.loc 1 4445 6 view .LVU3556
.LBB4174:
	.loc 1 4447 9 view .LVU3557
	.loc 1 4448 9 view .LVU3558
	.loc 1 4448 21 is_stmt 0 view .LVU3559
	mov	r1, #4
	.loc 1 4449 17 view .LVU3560
	ldr	r3, [r0]
	.loc 1 4448 21 view .LVU3561
	strb	r1, [r0, #32]
	.loc 1 4449 9 is_stmt 1 view .LVU3562
	.loc 1 4449 12 is_stmt 0 view .LVU3563
	cmp	r3, #0
	beq	.L1080
	.loc 1 4450 13 is_stmt 1 view .LVU3564
	blx	r3
.LVL832:
.L1080:
	.loc 1 4450 13 is_stmt 0 view .LVU3565
.LBE4174:
.LBE4173:
.LBE4172:
.LBE4171:
	.loc 2 4845 16 view .LVU3566
	mov	r0, #0
	.loc 2 4857 1 view .LVU3567
	add	sp, sp, #12
	.cfi_remember_state
	.cfi_def_cfa_offset 4
	@ sp needed
	ldr	pc, [sp], #4
.LVL833:
.L1090:
