	.arch armv6k
	.fpu vfp
	.eabi_attribute 28, 1
	.eabi_attribute 20, 1
	.eabi_attribute 21, 1
	.eabi_attribute 23, 3
	.eabi_attribute 24, 1
	.eabi_attribute 25, 1
	.eabi_attribute 26, 1
	.eabi_attribute 30, 2
	.eabi_attribute 34, 1
	.eabi_attribute 18, 4
	.file	"PlayerController.c"
	.text
.Ltext0:
	.cfi_sections	.debug_frame
	.file 1 "C:/Users/Elias/CLionProjects/3DSCraft/source/entity/PlayerController.c"
	.section	.rodata.str1.4,"aMS",%progbits,1
	.align	2
.LC1:
	.ascii	"%s\000"
	.align	2
.LC2:
	.ascii	"forward\000"
	.align	2
.LC3:
	.ascii	"controls\000"
	.align	2
.LC4:
	.ascii	"backward\000"
	.align	2
.LC5:
	.ascii	"strafeLeft\000"
	.align	2
.LC6:
	.ascii	"strafeRight\000"
	.align	2
.LC7:
	.ascii	"lookLeft\000"
	.align	2
.LC8:
	.ascii	"lookRight\000"
	.align	2
.LC9:
	.ascii	"lookUp\000"
	.align	2
.LC10:
	.ascii	"lookDown\000"
	.align	2
.LC11:
	.ascii	"placeBlock\000"
	.align	2
.LC12:
	.ascii	"breakBlock\000"
	.align	2
.LC13:
	.ascii	"jump\000"
	.align	2
.LC14:
	.ascii	"switchBlockLeft\000"
	.align	2
.LC15:
	.ascii	"switchBlockRight\000"
	.align	2
.LC16:
	.ascii	"openCmd\000"
	.align	2
.LC17:
	.ascii	"crouch\000"
	.align	2
.LC18:
	.ascii	"%d\000"
	.align	2
.LC19:
	.ascii	"auto_jumping\000"
	.align	2
.LC20:
	.ascii	"w\000"
	.align	2
.LC21:
	.ascii	"[controls]\012\000"
	.align	2
.LC22:
	.ascii	"; The allowed key values are: \012; \000"
	.align	2
.LC23:
	.ascii	"%s, \000"
	.align	2
.LC24:
	.ascii	"\012 ; \000"
	.align	2
.LC25:
	.ascii	"%s\012\012\000"
	.align	2
.LC26:
	.ascii	"forward=%s\012\000"
	.align	2
.LC27:
	.ascii	"backward=%s\012\000"
	.align	2
.LC28:
	.ascii	"strafeLeft=%s\012\000"
	.align	2
.LC29:
	.ascii	"strafeRight=%s\012\000"
	.align	2
.LC30:
	.ascii	"lookLeft=%s\012\000"
	.align	2
.LC31:
	.ascii	"lookRight=%s\012\000"
	.align	2
.LC32:
	.ascii	"lookUp=%s\012\000"
	.align	2
.LC33:
	.ascii	"lookDown=%s\012\000"
	.align	2
.LC34:
	.ascii	"placeBlock=%s\012\000"
	.align	2
.LC35:
	.ascii	"breakBlock=%s\012\000"
	.align	2
.LC36:
	.ascii	"jump=%s\012\000"
	.align	2
.LC37:
	.ascii	"switchBlockLeft=%s\012\000"
	.align	2
.LC38:
	.ascii	"switchBlockRight=%s\012\000"
	.align	2
.LC39:
	.ascii	"openCmd=%s\012\000"
	.align	2
.LC40:
	.ascii	"crouch=%s\012\000"
	.align	2
.LC41:
	.ascii	"; 0 = disabled, 1 = enabled default: 1 for O3ds, 0 "
	.ascii	"for N3ds\012autojump=%d\012\000"
	.align	2
.LC0:
	.ascii	"sdmc:/craftus_redesigned/options.ini\000"
	.section	.text.PlayerController_Init,"ax",%progbits
	.align	2
	.global	PlayerController_Init
	.syntax unified
	.arm
	.type	PlayerController_Init, %function
PlayerController_Init:
.LVL0:
.LFB152:
	.loc 1 138 68 view -0
	.cfi_startproc
	@ args = 0, pretend = 0, frame = 112
	@ frame_needed = 0, uses_anonymous_args = 0
	.loc 1 139 2 view .LVU1
	.loc 1 138 68 is_stmt 0 view .LVU2
	push	{r4, r5, r6, r7, r8, r9, r10, fp, lr}
	.cfi_def_cfa_offset 36
	.cfi_offset 4, -36
	.cfi_offset 5, -32
	.cfi_offset 6, -28
	.cfi_offset 7, -24
	.cfi_offset 8, -20
	.cfi_offset 9, -16
	.cfi_offset 10, -12
	.cfi_offset 11, -8
	.cfi_offset 14, -4
	.loc 1 139 26 view .LVU3
	mov	r3, #0
	.loc 1 138 68 view .LVU4
	mov	r7, r0
	.loc 1 142 6 view .LVU5
	mov	r4, #0
	.loc 1 138 68 view .LVU6
	sub	sp, sp, #124
	.cfi_def_cfa_offset 160
	.loc 1 139 26 view .LVU7
	str	r3, [r7, #64]	@ float
	.loc 1 140 2 is_stmt 1 view .LVU8
	.loc 1 143 2 is_stmt 0 view .LVU9
	add	r0, sp, #15
.LVL1:
	.loc 1 140 15 view .LVU10
	str	r1, [r7]
	.loc 1 142 1 is_stmt 1 view .LVU11
	.loc 1 143 2 view .LVU12
	.loc 1 138 68 is_stmt 0 view .LVU13
	mov	r10, r1
	.loc 1 142 6 view .LVU14
	strb	r4, [sp, #15]
	.loc 1 143 2 view .LVU15
	bl	APT_CheckNew3DS
.LVL2:
	.loc 1 144 2 is_stmt 1 view .LVU16
	.loc 1 144 5 is_stmt 0 view .LVU17
	ldrb	r3, [sp, #15]	@ zero_extendqisi2
	cmp	r3, r4
	beq	.L2
	.loc 1 145 3 is_stmt 1 view .LVU18
	.loc 1 145 23 is_stmt 0 view .LVU19
	ldr	lr, .L111
	add	ip, r7, #4
	.loc 1 146 33 view .LVU20
	ldr	r5, [r7]
	.loc 1 145 23 view .LVU21
	ldmia	lr!, {r0, r1, r2, r3}
	stmia	ip!, {r0, r1, r2, r3}
	ldmia	lr!, {r0, r1, r2, r3}
	stmia	ip!, {r0, r1, r2, r3}
	ldmia	lr!, {r0, r1, r2, r3}
	stmia	ip!, {r0, r1, r2, r3}
	ldm	lr, {r0, r1, r2}
	stm	ip, {r0, r1, r2}
	.loc 1 146 3 is_stmt 1 view .LVU22
	.loc 1 146 33 is_stmt 0 view .LVU23
	strb	r4, [r5, #56]
.L3:
	.loc 1 152 2 is_stmt 1 view .LVU24
	.loc 1 152 18 is_stmt 0 view .LVU25
	mov	r4, #0
	.loc 1 156 13 view .LVU26
	ldr	lr, .L111+4
	add	ip, sp, #16
	ldmia	lr!, {r0, r1, r2, r3}
	stmia	ip!, {r0, r1, r2, r3}
	ldmia	lr!, {r0, r1, r2, r3}
	stmia	ip!, {r0, r1, r2, r3}
	ldm	lr, {r0, r1}
	str	r0, [ip], #4
	strb	r1, [ip]
	.loc 1 152 18 view .LVU27
	strb	r4, [r7, #68]
	.loc 1 154 1 is_stmt 1 view .LVU28
.LVL3:
	.loc 1 156 2 view .LVU29
	.loc 1 157 2 view .LVU30
	.loc 1 157 6 is_stmt 0 view .LVU31
	mov	r1, r4
	add	r0, sp, #16
	bl	access
.LVL4:
	.loc 1 157 5 discriminator 1 view .LVU32
	cmn	r0, #1
	beq	.L5
.LBB111:
	.loc 1 158 3 is_stmt 1 view .LVU33
	.loc 1 158 16 is_stmt 0 view .LVU34
	add	r0, sp, #16
	bl	ini_load
.LVL5:
	.loc 1 173 7 view .LVU35
	add	ip, sp, #56
	ldr	r3, .L111+8
	ldr	r2, .L111+12
	ldr	r1, .L111+16
	str	ip, [sp]
	.loc 1 158 16 view .LVU36
	mov	r5, r0
.LVL6:
	.loc 1 160 3 is_stmt 1 view .LVU37
	.loc 1 173 3 view .LVU38
	.loc 1 173 7 is_stmt 0 view .LVU39
	bl	ini_sget
.LVL7:
	.loc 1 173 6 discriminator 1 view .LVU40
	cmp	r0, r4
	.loc 1 173 204 discriminator 2 view .LVU41
	moveq	r6, #1
	.loc 1 173 6 discriminator 1 view .LVU42
	beq	.L6
	ldr	r6, .L111+20
	b	.L9
.LVL8:
.L7:
.LBB112:
	.loc 1 173 86 discriminator 5 view .LVU43
	add	r4, r4, #1
.LVL9:
	.loc 1 173 79 is_stmt 1 discriminator 6 view .LVU44
	cmp	r4, #23
	beq	.L8
.LVL10:
.L9:
	.loc 1 173 92 discriminator 7 view .LVU45
	.loc 1 173 97 is_stmt 0 discriminator 7 view .LVU46
	ldr	r0, [r6, #4]!
	add	r1, sp, #56
	bl	strcmp
.LVL11:
	.loc 1 173 86 is_stmt 1 discriminator 5 view .LVU47
	.loc 1 173 95 is_stmt 0 discriminator 7 view .LVU48
	cmp	r0, #0
	bne	.L7
	.loc 1 173 138 is_stmt 1 discriminator 4 view .LVU49
	.loc 1 173 166 is_stmt 0 discriminator 4 view .LVU50
	str	r4, [r7, #4]
	.loc 1 173 171 is_stmt 1 discriminator 4 view .LVU51
.L8:
	.loc 1 173 171 is_stmt 0 discriminator 4 view .LVU52
.LBE112:
.LBE111:
	.loc 1 154 6 view .LVU53
	mov	r6, #0
.LVL12:
.L6:
.LBB127:
	.loc 1 173 3 is_stmt 1 discriminator 8 view .LVU54
	.loc 1 174 3 view .LVU55
	.loc 1 174 7 is_stmt 0 view .LVU56
	add	r3, sp, #56
	str	r3, [sp]
	mov	r0, r5
	ldr	r3, .L111+8
	ldr	r2, .L111+24
	ldr	r1, .L111+16
	bl	ini_sget
.LVL13:
	.loc 1 174 6 discriminator 1 view .LVU57
	cmp	r0, #0
	.loc 1 174 206 discriminator 2 view .LVU58
	moveq	r6, #1
.LVL14:
	.loc 1 174 6 discriminator 1 view .LVU59
	beq	.L10
.LBB113:
	.loc 1 174 71 discriminator 1 view .LVU60
	mov	r4, #0
	ldr	r8, .L111+20
	b	.L13
.LVL15:
.L11:
	.loc 1 174 87 discriminator 5 view .LVU61
	add	r4, r4, #1
.LVL16:
	.loc 1 174 80 is_stmt 1 discriminator 6 view .LVU62
	cmp	r4, #23
	beq	.L10
.LVL17:
.L13:
	.loc 1 174 93 discriminator 7 view .LVU63
	.loc 1 174 98 is_stmt 0 discriminator 7 view .LVU64
	ldr	r0, [r8, #4]!
	add	r1, sp, #56
	bl	strcmp
.LVL18:
	.loc 1 174 87 is_stmt 1 discriminator 5 view .LVU65
	.loc 1 174 96 is_stmt 0 discriminator 7 view .LVU66
	cmp	r0, #0
	bne	.L11
	.loc 1 174 139 is_stmt 1 discriminator 4 view .LVU67
	.loc 1 174 168 is_stmt 0 discriminator 4 view .LVU68
	str	r4, [r7, #8]
	.loc 1 174 173 is_stmt 1 discriminator 4 view .LVU69
.LVL19:
.L10:
	.loc 1 174 173 is_stmt 0 discriminator 4 view .LVU70
.LBE113:
	.loc 1 174 3 is_stmt 1 discriminator 8 view .LVU71
	.loc 1 175 3 view .LVU72
	.loc 1 175 7 is_stmt 0 view .LVU73
	add	r3, sp, #56
	str	r3, [sp]
	mov	r0, r5
	ldr	r3, .L111+8
	ldr	r2, .L111+28
	ldr	r1, .L111+16
	bl	ini_sget
.LVL20:
	.loc 1 175 6 discriminator 1 view .LVU74
	cmp	r0, #0
	.loc 1 175 210 discriminator 2 view .LVU75
	moveq	r6, #1
.LVL21:
	.loc 1 175 6 discriminator 1 view .LVU76
	beq	.L14
.LBB114:
	.loc 1 175 73 discriminator 1 view .LVU77
	mov	r4, #0
	ldr	r8, .L111+20
	b	.L17
.LVL22:
.L15:
	.loc 1 175 89 discriminator 5 view .LVU78
	add	r4, r4, #1
.LVL23:
	.loc 1 175 82 is_stmt 1 discriminator 6 view .LVU79
	cmp	r4, #23
	beq	.L14
.LVL24:
.L17:
	.loc 1 175 95 discriminator 7 view .LVU80
	.loc 1 175 100 is_stmt 0 discriminator 7 view .LVU81
	ldr	r0, [r8, #4]!
	add	r1, sp, #56
	bl	strcmp
.LVL25:
	.loc 1 175 89 is_stmt 1 discriminator 5 view .LVU82
	.loc 1 175 98 is_stmt 0 discriminator 7 view .LVU83
	cmp	r0, #0
	bne	.L15
	.loc 1 175 141 is_stmt 1 discriminator 4 view .LVU84
	.loc 1 175 172 is_stmt 0 discriminator 4 view .LVU85
	str	r4, [r7, #12]
	.loc 1 175 177 is_stmt 1 discriminator 4 view .LVU86
.LVL26:
.L14:
	.loc 1 175 177 is_stmt 0 discriminator 4 view .LVU87
.LBE114:
	.loc 1 175 3 is_stmt 1 discriminator 8 view .LVU88
	.loc 1 176 3 view .LVU89
	.loc 1 176 7 is_stmt 0 view .LVU90
	add	r3, sp, #56
	str	r3, [sp]
	mov	r0, r5
	ldr	r3, .L111+8
	ldr	r2, .L111+32
	ldr	r1, .L111+16
	bl	ini_sget
.LVL27:
	.loc 1 176 6 discriminator 1 view .LVU91
	cmp	r0, #0
	.loc 1 176 212 discriminator 2 view .LVU92
	moveq	r6, #1
.LVL28:
	.loc 1 176 6 discriminator 1 view .LVU93
	beq	.L18
.LBB115:
	.loc 1 176 74 discriminator 1 view .LVU94
	mov	r4, #0
	ldr	r8, .L111+20
	b	.L21
.LVL29:
.L19:
	.loc 1 176 90 discriminator 5 view .LVU95
	add	r4, r4, #1
.LVL30:
	.loc 1 176 83 is_stmt 1 discriminator 6 view .LVU96
	cmp	r4, #23
	beq	.L18
.LVL31:
.L21:
	.loc 1 176 96 discriminator 7 view .LVU97
	.loc 1 176 101 is_stmt 0 discriminator 7 view .LVU98
	ldr	r0, [r8, #4]!
	add	r1, sp, #56
	bl	strcmp
.LVL32:
	.loc 1 176 90 is_stmt 1 discriminator 5 view .LVU99
	.loc 1 176 99 is_stmt 0 discriminator 7 view .LVU100
	cmp	r0, #0
	bne	.L19
	.loc 1 176 142 is_stmt 1 discriminator 4 view .LVU101
	.loc 1 176 174 is_stmt 0 discriminator 4 view .LVU102
	str	r4, [r7, #16]
	.loc 1 176 179 is_stmt 1 discriminator 4 view .LVU103
.LVL33:
.L18:
	.loc 1 176 179 is_stmt 0 discriminator 4 view .LVU104
.LBE115:
	.loc 1 176 3 is_stmt 1 discriminator 8 view .LVU105
	.loc 1 177 3 view .LVU106
	.loc 1 177 7 is_stmt 0 view .LVU107
	add	r3, sp, #56
	str	r3, [sp]
	mov	r0, r5
	ldr	r3, .L111+8
	ldr	r2, .L111+36
	ldr	r1, .L111+16
	bl	ini_sget
.LVL34:
	.loc 1 177 6 discriminator 1 view .LVU108
	cmp	r0, #0
	.loc 1 177 206 discriminator 2 view .LVU109
	moveq	r6, #1
.LVL35:
	.loc 1 177 6 discriminator 1 view .LVU110
	beq	.L22
.LBB116:
	.loc 1 177 71 discriminator 1 view .LVU111
	mov	r4, #0
	ldr	r8, .L111+20
	b	.L25
.LVL36:
.L23:
	.loc 1 177 87 discriminator 5 view .LVU112
	add	r4, r4, #1
.LVL37:
	.loc 1 177 80 is_stmt 1 discriminator 6 view .LVU113
	cmp	r4, #23
	beq	.L22
.LVL38:
.L25:
	.loc 1 177 93 discriminator 7 view .LVU114
	.loc 1 177 98 is_stmt 0 discriminator 7 view .LVU115
	ldr	r0, [r8, #4]!
	add	r1, sp, #56
	bl	strcmp
.LVL39:
	.loc 1 177 87 is_stmt 1 discriminator 5 view .LVU116
	.loc 1 177 96 is_stmt 0 discriminator 7 view .LVU117
	cmp	r0, #0
	bne	.L23
	.loc 1 177 139 is_stmt 1 discriminator 4 view .LVU118
	.loc 1 177 168 is_stmt 0 discriminator 4 view .LVU119
	str	r4, [r7, #20]
	.loc 1 177 173 is_stmt 1 discriminator 4 view .LVU120
.LVL40:
.L22:
	.loc 1 177 173 is_stmt 0 discriminator 4 view .LVU121
.LBE116:
	.loc 1 177 3 is_stmt 1 discriminator 8 view .LVU122
	.loc 1 178 3 view .LVU123
	.loc 1 178 7 is_stmt 0 view .LVU124
	add	r3, sp, #56
	str	r3, [sp]
	mov	r0, r5
	ldr	r3, .L111+8
	ldr	r2, .L111+40
	ldr	r1, .L111+16
	bl	ini_sget
.LVL41:
	.loc 1 178 6 discriminator 1 view .LVU125
	cmp	r0, #0
	.loc 1 178 208 discriminator 2 view .LVU126
	moveq	r6, #1
.LVL42:
	.loc 1 178 6 discriminator 1 view .LVU127
	beq	.L26
.LBB117:
	.loc 1 178 72 discriminator 1 view .LVU128
	mov	r4, #0
	ldr	r8, .L111+20
	b	.L29
.LVL43:
.L27:
	.loc 1 178 88 discriminator 5 view .LVU129
	add	r4, r4, #1
.LVL44:
	.loc 1 178 81 is_stmt 1 discriminator 6 view .LVU130
	cmp	r4, #23
	beq	.L26
.LVL45:
.L29:
	.loc 1 178 94 discriminator 7 view .LVU131
	.loc 1 178 99 is_stmt 0 discriminator 7 view .LVU132
	ldr	r0, [r8, #4]!
	add	r1, sp, #56
	bl	strcmp
.LVL46:
	.loc 1 178 88 is_stmt 1 discriminator 5 view .LVU133
	.loc 1 178 97 is_stmt 0 discriminator 7 view .LVU134
	cmp	r0, #0
	bne	.L27
	.loc 1 178 140 is_stmt 1 discriminator 4 view .LVU135
	.loc 1 178 170 is_stmt 0 discriminator 4 view .LVU136
	str	r4, [r7, #24]
	.loc 1 178 175 is_stmt 1 discriminator 4 view .LVU137
.LVL47:
.L26:
	.loc 1 178 175 is_stmt 0 discriminator 4 view .LVU138
.LBE117:
	.loc 1 178 3 is_stmt 1 discriminator 8 view .LVU139
	.loc 1 179 3 view .LVU140
	.loc 1 179 7 is_stmt 0 view .LVU141
	add	r3, sp, #56
	str	r3, [sp]
	mov	r0, r5
	ldr	r3, .L111+8
	ldr	r2, .L111+44
	ldr	r1, .L111+16
	bl	ini_sget
.LVL48:
	.loc 1 179 6 discriminator 1 view .LVU142
	cmp	r0, #0
	.loc 1 179 202 discriminator 2 view .LVU143
	moveq	r6, #1
.LVL49:
	.loc 1 179 6 discriminator 1 view .LVU144
	beq	.L30
.LBB118:
	.loc 1 179 69 discriminator 1 view .LVU145
	mov	r4, #0
	ldr	r8, .L111+20
	b	.L33
.LVL50:
.L31:
	.loc 1 179 85 discriminator 5 view .LVU146
	add	r4, r4, #1
.LVL51:
	.loc 1 179 78 is_stmt 1 discriminator 6 view .LVU147
	cmp	r4, #23
	beq	.L30
.LVL52:
.L33:
	.loc 1 179 91 discriminator 7 view .LVU148
	.loc 1 179 96 is_stmt 0 discriminator 7 view .LVU149
	ldr	r0, [r8, #4]!
	add	r1, sp, #56
	bl	strcmp
.LVL53:
	.loc 1 179 85 is_stmt 1 discriminator 5 view .LVU150
	.loc 1 179 94 is_stmt 0 discriminator 7 view .LVU151
	cmp	r0, #0
	bne	.L31
	.loc 1 179 137 is_stmt 1 discriminator 4 view .LVU152
	.loc 1 179 164 is_stmt 0 discriminator 4 view .LVU153
	str	r4, [r7, #28]
	.loc 1 179 169 is_stmt 1 discriminator 4 view .LVU154
.LVL54:
.L30:
	.loc 1 179 169 is_stmt 0 discriminator 4 view .LVU155
.LBE118:
	.loc 1 179 3 is_stmt 1 discriminator 8 view .LVU156
	.loc 1 180 3 view .LVU157
	.loc 1 180 7 is_stmt 0 view .LVU158
	add	r3, sp, #56
	str	r3, [sp]
	mov	r0, r5
	ldr	r3, .L111+8
	ldr	r2, .L111+48
	ldr	r1, .L111+16
	bl	ini_sget
.LVL55:
	.loc 1 180 6 discriminator 1 view .LVU159
	cmp	r0, #0
	.loc 1 180 206 discriminator 2 view .LVU160
	moveq	r6, #1
.LVL56:
	.loc 1 180 6 discriminator 1 view .LVU161
	beq	.L34
.LBB119:
	.loc 1 180 71 discriminator 1 view .LVU162
	mov	r4, #0
	ldr	r8, .L111+20
	b	.L37
.LVL57:
.L35:
	.loc 1 180 87 discriminator 5 view .LVU163
	add	r4, r4, #1
.LVL58:
	.loc 1 180 80 is_stmt 1 discriminator 6 view .LVU164
	cmp	r4, #23
	beq	.L34
.LVL59:
.L37:
	.loc 1 180 93 discriminator 7 view .LVU165
	.loc 1 180 98 is_stmt 0 discriminator 7 view .LVU166
	ldr	r0, [r8, #4]!
	add	r1, sp, #56
	bl	strcmp
.LVL60:
	.loc 1 180 87 is_stmt 1 discriminator 5 view .LVU167
	.loc 1 180 96 is_stmt 0 discriminator 7 view .LVU168
	cmp	r0, #0
	bne	.L35
	.loc 1 180 139 is_stmt 1 discriminator 4 view .LVU169
	.loc 1 180 168 is_stmt 0 discriminator 4 view .LVU170
	str	r4, [r7, #32]
	.loc 1 180 173 is_stmt 1 discriminator 4 view .LVU171
.LVL61:
.L34:
	.loc 1 180 173 is_stmt 0 discriminator 4 view .LVU172
.LBE119:
	.loc 1 180 3 is_stmt 1 discriminator 8 view .LVU173
	.loc 1 181 3 view .LVU174
	.loc 1 181 7 is_stmt 0 view .LVU175
	add	r3, sp, #56
	str	r3, [sp]
	mov	r0, r5
	ldr	r3, .L111+8
	ldr	r2, .L111+52
	ldr	r1, .L111+16
	bl	ini_sget
.LVL62:
	.loc 1 181 6 discriminator 1 view .LVU176
	cmp	r0, #0
	.loc 1 181 210 discriminator 2 view .LVU177
	moveq	r6, #1
.LVL63:
	.loc 1 181 6 discriminator 1 view .LVU178
	beq	.L38
.LBB120:
	.loc 1 181 73 discriminator 1 view .LVU179
	mov	r4, #0
	ldr	r8, .L111+20
	b	.L41
.LVL64:
.L39:
	.loc 1 181 89 discriminator 5 view .LVU180
	add	r4, r4, #1
.LVL65:
	.loc 1 181 82 is_stmt 1 discriminator 6 view .LVU181
	cmp	r4, #23
	beq	.L38
.LVL66:
.L41:
	.loc 1 181 95 discriminator 7 view .LVU182
	.loc 1 181 100 is_stmt 0 discriminator 7 view .LVU183
	ldr	r0, [r8, #4]!
	add	r1, sp, #56
	bl	strcmp
.LVL67:
	.loc 1 181 89 is_stmt 1 discriminator 5 view .LVU184
	.loc 1 181 98 is_stmt 0 discriminator 7 view .LVU185
	cmp	r0, #0
	bne	.L39
	.loc 1 181 141 is_stmt 1 discriminator 4 view .LVU186
	.loc 1 181 172 is_stmt 0 discriminator 4 view .LVU187
	str	r4, [r7, #36]
	.loc 1 181 177 is_stmt 1 discriminator 4 view .LVU188
.LVL68:
.L38:
	.loc 1 181 177 is_stmt 0 discriminator 4 view .LVU189
.LBE120:
	.loc 1 181 3 is_stmt 1 discriminator 8 view .LVU190
	.loc 1 182 3 view .LVU191
	.loc 1 182 7 is_stmt 0 view .LVU192
	add	r3, sp, #56
	str	r3, [sp]
	mov	r0, r5
	ldr	r3, .L111+8
	ldr	r2, .L111+56
	ldr	r1, .L111+16
	bl	ini_sget
.LVL69:
	.loc 1 182 6 discriminator 1 view .LVU193
	cmp	r0, #0
	.loc 1 182 210 discriminator 2 view .LVU194
	moveq	r6, #1
.LVL70:
	.loc 1 182 6 discriminator 1 view .LVU195
	beq	.L42
.LBB121:
	.loc 1 182 73 discriminator 1 view .LVU196
	mov	r4, #0
	ldr	r8, .L111+20
	b	.L45
.LVL71:
.L43:
	.loc 1 182 89 discriminator 5 view .LVU197
	add	r4, r4, #1
.LVL72:
	.loc 1 182 82 is_stmt 1 discriminator 6 view .LVU198
	cmp	r4, #23
	beq	.L42
.LVL73:
.L45:
	.loc 1 182 95 discriminator 7 view .LVU199
	.loc 1 182 100 is_stmt 0 discriminator 7 view .LVU200
	ldr	r0, [r8, #4]!
	add	r1, sp, #56
	bl	strcmp
.LVL74:
	.loc 1 182 89 is_stmt 1 discriminator 5 view .LVU201
	.loc 1 182 98 is_stmt 0 discriminator 7 view .LVU202
	cmp	r0, #0
	bne	.L43
	.loc 1 182 141 is_stmt 1 discriminator 4 view .LVU203
	.loc 1 182 172 is_stmt 0 discriminator 4 view .LVU204
	str	r4, [r7, #40]
	.loc 1 182 177 is_stmt 1 discriminator 4 view .LVU205
.LVL75:
.L42:
	.loc 1 182 177 is_stmt 0 discriminator 4 view .LVU206
.LBE121:
	.loc 1 182 3 is_stmt 1 discriminator 8 view .LVU207
	.loc 1 183 3 view .LVU208
	.loc 1 183 7 is_stmt 0 view .LVU209
	add	r3, sp, #56
	str	r3, [sp]
	mov	r0, r5
	ldr	r3, .L111+8
	ldr	r2, .L111+60
	ldr	r1, .L111+16
	bl	ini_sget
.LVL76:
	.loc 1 183 6 discriminator 1 view .LVU210
	cmp	r0, #0
	.loc 1 183 198 discriminator 2 view .LVU211
	moveq	r6, #1
.LVL77:
	.loc 1 183 6 discriminator 1 view .LVU212
	beq	.L46
.LBB122:
	.loc 1 183 67 discriminator 1 view .LVU213
	mov	r4, #0
	ldr	r8, .L111+20
	b	.L49
.LVL78:
.L47:
	.loc 1 183 83 discriminator 5 view .LVU214
	add	r4, r4, #1
.LVL79:
	.loc 1 183 76 is_stmt 1 discriminator 6 view .LVU215
	cmp	r4, #23
	beq	.L46
.LVL80:
.L49:
	.loc 1 183 89 discriminator 7 view .LVU216
	.loc 1 183 94 is_stmt 0 discriminator 7 view .LVU217
	ldr	r0, [r8, #4]!
	add	r1, sp, #56
	bl	strcmp
.LVL81:
	.loc 1 183 83 is_stmt 1 discriminator 5 view .LVU218
	.loc 1 183 92 is_stmt 0 discriminator 7 view .LVU219
	cmp	r0, #0
	bne	.L47
	.loc 1 183 135 is_stmt 1 discriminator 4 view .LVU220
	.loc 1 183 160 is_stmt 0 discriminator 4 view .LVU221
	str	r4, [r7, #44]
	.loc 1 183 165 is_stmt 1 discriminator 4 view .LVU222
.LVL82:
.L46:
	.loc 1 183 165 is_stmt 0 discriminator 4 view .LVU223
.LBE122:
	.loc 1 183 3 is_stmt 1 discriminator 8 view .LVU224
	.loc 1 184 3 view .LVU225
	.loc 1 184 7 is_stmt 0 view .LVU226
	add	r3, sp, #56
	str	r3, [sp]
	mov	r0, r5
	ldr	r3, .L111+8
	ldr	r2, .L111+64
	ldr	r1, .L111+16
	bl	ini_sget
.LVL83:
	.loc 1 184 6 discriminator 1 view .LVU227
	cmp	r0, #0
	.loc 1 184 220 discriminator 2 view .LVU228
	moveq	r6, #1
.LVL84:
	.loc 1 184 6 discriminator 1 view .LVU229
	beq	.L50
.LBB123:
	.loc 1 184 78 discriminator 1 view .LVU230
	mov	r4, #0
	ldr	r8, .L111+20
	b	.L53
.LVL85:
.L51:
	.loc 1 184 94 discriminator 5 view .LVU231
	add	r4, r4, #1
.LVL86:
	.loc 1 184 87 is_stmt 1 discriminator 6 view .LVU232
	cmp	r4, #23
	beq	.L50
.LVL87:
.L53:
	.loc 1 184 100 discriminator 7 view .LVU233
	.loc 1 184 105 is_stmt 0 discriminator 7 view .LVU234
	ldr	r0, [r8, #4]!
	add	r1, sp, #56
	bl	strcmp
.LVL88:
	.loc 1 184 94 is_stmt 1 discriminator 5 view .LVU235
	.loc 1 184 103 is_stmt 0 discriminator 7 view .LVU236
	cmp	r0, #0
	bne	.L51
	.loc 1 184 146 is_stmt 1 discriminator 4 view .LVU237
	.loc 1 184 182 is_stmt 0 discriminator 4 view .LVU238
	str	r4, [r7, #48]
	.loc 1 184 187 is_stmt 1 discriminator 4 view .LVU239
.LVL89:
.L50:
	.loc 1 184 187 is_stmt 0 discriminator 4 view .LVU240
.LBE123:
	.loc 1 184 3 is_stmt 1 discriminator 8 view .LVU241
	.loc 1 185 3 view .LVU242
	.loc 1 185 7 is_stmt 0 view .LVU243
	add	r3, sp, #56
	str	r3, [sp]
	mov	r0, r5
	ldr	r3, .L111+8
	ldr	r2, .L111+68
	ldr	r1, .L111+16
	bl	ini_sget
.LVL90:
	.loc 1 185 6 discriminator 1 view .LVU244
	cmp	r0, #0
	.loc 1 185 222 discriminator 2 view .LVU245
	moveq	r6, #1
.LVL91:
	.loc 1 185 6 discriminator 1 view .LVU246
	beq	.L54
.LBB124:
	.loc 1 185 79 discriminator 1 view .LVU247
	mov	r4, #0
	ldr	r8, .L111+20
	b	.L57
.LVL92:
.L55:
	.loc 1 185 95 discriminator 5 view .LVU248
	add	r4, r4, #1
.LVL93:
	.loc 1 185 88 is_stmt 1 discriminator 6 view .LVU249
	cmp	r4, #23
	beq	.L54
.LVL94:
.L57:
	.loc 1 185 101 discriminator 7 view .LVU250
	.loc 1 185 106 is_stmt 0 discriminator 7 view .LVU251
	ldr	r0, [r8, #4]!
	add	r1, sp, #56
	bl	strcmp
.LVL95:
	.loc 1 185 95 is_stmt 1 discriminator 5 view .LVU252
	.loc 1 185 104 is_stmt 0 discriminator 7 view .LVU253
	cmp	r0, #0
	bne	.L55
	.loc 1 185 147 is_stmt 1 discriminator 4 view .LVU254
	.loc 1 185 184 is_stmt 0 discriminator 4 view .LVU255
	str	r4, [r7, #52]
	.loc 1 185 189 is_stmt 1 discriminator 4 view .LVU256
.LVL96:
.L54:
	.loc 1 185 189 is_stmt 0 discriminator 4 view .LVU257
.LBE124:
	.loc 1 185 3 is_stmt 1 discriminator 8 view .LVU258
	.loc 1 186 3 view .LVU259
	.loc 1 186 7 is_stmt 0 view .LVU260
	add	r3, sp, #56
	str	r3, [sp]
	mov	r0, r5
	ldr	r3, .L111+8
	ldr	r2, .L111+72
	ldr	r1, .L111+16
	bl	ini_sget
.LVL97:
	.loc 1 186 6 discriminator 1 view .LVU261
	cmp	r0, #0
	.loc 1 186 204 discriminator 2 view .LVU262
	moveq	r6, #1
.LVL98:
	.loc 1 186 6 discriminator 1 view .LVU263
	beq	.L58
.LBB125:
	.loc 1 186 70 discriminator 1 view .LVU264
	mov	r4, #0
	ldr	r8, .L111+20
	b	.L61
.LVL99:
.L59:
	.loc 1 186 86 discriminator 5 view .LVU265
	add	r4, r4, #1
.LVL100:
	.loc 1 186 79 is_stmt 1 discriminator 6 view .LVU266
	cmp	r4, #23
	beq	.L58
.LVL101:
.L61:
	.loc 1 186 92 discriminator 7 view .LVU267
	.loc 1 186 97 is_stmt 0 discriminator 7 view .LVU268
	ldr	r0, [r8, #4]!
	add	r1, sp, #56
	bl	strcmp
.LVL102:
	.loc 1 186 86 is_stmt 1 discriminator 5 view .LVU269
	.loc 1 186 95 is_stmt 0 discriminator 7 view .LVU270
	cmp	r0, #0
	bne	.L59
	.loc 1 186 138 is_stmt 1 discriminator 4 view .LVU271
	.loc 1 186 166 is_stmt 0 discriminator 4 view .LVU272
	str	r4, [r7, #56]
	.loc 1 186 171 is_stmt 1 discriminator 4 view .LVU273
.LVL103:
.L58:
	.loc 1 186 171 is_stmt 0 discriminator 4 view .LVU274
.LBE125:
	.loc 1 186 3 is_stmt 1 discriminator 8 view .LVU275
	.loc 1 187 3 view .LVU276
	.loc 1 187 7 is_stmt 0 view .LVU277
	add	r3, sp, #56
	str	r3, [sp]
	mov	r0, r5
	ldr	r3, .L111+8
	ldr	r2, .L111+76
	ldr	r1, .L111+16
	bl	ini_sget
.LVL104:
	.loc 1 187 6 discriminator 1 view .LVU278
	cmp	r0, #0
	beq	.L62
.LBB126:
	.loc 1 187 69 discriminator 1 view .LVU279
	mov	r4, #0
	ldr	r8, .L111+20
	b	.L65
.LVL105:
.L63:
	.loc 1 187 85 discriminator 5 view .LVU280
	add	r4, r4, #1
.LVL106:
	.loc 1 187 78 is_stmt 1 discriminator 6 view .LVU281
	cmp	r4, #23
	beq	.L64
.LVL107:
.L65:
	.loc 1 187 91 discriminator 7 view .LVU282
	.loc 1 187 96 is_stmt 0 discriminator 7 view .LVU283
	ldr	r0, [r8, #4]!
	add	r1, sp, #56
	bl	strcmp
.LVL108:
	.loc 1 187 85 is_stmt 1 discriminator 5 view .LVU284
	.loc 1 187 94 is_stmt 0 discriminator 7 view .LVU285
	cmp	r0, #0
	bne	.L63
	.loc 1 187 137 is_stmt 1 discriminator 4 view .LVU286
	.loc 1 187 164 is_stmt 0 discriminator 4 view .LVU287
	str	r4, [r7, #60]
	.loc 1 187 169 is_stmt 1 discriminator 4 view .LVU288
.L64:
	.loc 1 187 169 is_stmt 0 discriminator 4 view .LVU289
.LBE126:
	.loc 1 187 3 is_stmt 1 discriminator 8 view .LVU290
	.loc 1 190 3 view .LVU291
	.loc 1 190 56 is_stmt 0 view .LVU292
	ldr	r3, [r7]
	.loc 1 190 8 view .LVU293
	mov	r0, r5
	.loc 1 190 56 view .LVU294
	add	r3, r3, #56
	.loc 1 190 8 view .LVU295
	str	r3, [sp]
	ldr	r2, .L111+80
	ldr	r3, .L111+84
	ldr	r1, .L111+16
	bl	ini_sget
.LVL109:
	.loc 1 190 6 discriminator 1 view .LVU296
	cmp	r0, #0
	beq	.L107
	.loc 1 192 3 is_stmt 1 view .LVU297
	mov	r0, r5
	bl	ini_free
.LVL110:
	.loc 1 192 3 is_stmt 0 view .LVU298
.LBE127:
	.loc 1 197 2 is_stmt 1 view .LVU299
	.loc 1 197 5 is_stmt 0 view .LVU300
	cmp	r6, #0
	beq	.L68
.LVL111:
.L5:
.LBB128:
	.loc 1 198 3 is_stmt 1 view .LVU301
	.loc 1 198 13 is_stmt 0 view .LVU302
	ldr	r1, .L111+88
	add	r0, sp, #16
	bl	fopen
.LVL112:
	mov	r6, r0
	.loc 1 200 3 view .LVU303
	mov	r2, #11
	mov	r1, #1
	mov	r3, r6
	ldr	r0, .L111+92
.LVL113:
	.loc 1 200 3 is_stmt 1 view .LVU304
	ldr	r5, .L111+20
	bl	fwrite
.LVL114:
	.loc 1 201 3 view .LVU305
	mov	r3, r6
	mov	r2, #33
	mov	r1, #1
	ldr	r0, .L111+96
	bl	fwrite
.LVL115:
	.loc 1 202 3 view .LVU306
	.loc 1 203 3 view .LVU307
.LBB129:
	.loc 1 203 8 view .LVU308
	.loc 1 203 21 discriminator 1 view .LVU309
.LBE129:
	.loc 1 202 7 is_stmt 0 view .LVU310
	mov	r4, #0
.LBB130:
	.loc 1 204 4 view .LVU311
	ldr	r8, .L111+100
	.loc 1 207 5 view .LVU312
	ldr	fp, .L111+104
	add	r9, r5, #88
	b	.L70
.LVL116:
.L69:
	.loc 1 203 32 is_stmt 1 discriminator 2 view .LVU313
	.loc 1 203 21 discriminator 1 view .LVU314
	cmp	r5, r9
	beq	.L110
.LVL117:
.L70:
	.loc 1 204 4 view .LVU315
	mov	r1, r8
	mov	r0, r6
	ldr	r2, [r5, #4]!
	.loc 1 205 7 is_stmt 0 view .LVU316
	add	r4, r4, #1
.LVL118:
	.loc 1 204 4 view .LVU317
	bl	fprintf
.LVL119:
	.loc 1 205 4 is_stmt 1 view .LVU318
	.loc 1 205 7 is_stmt 0 view .LVU319
	cmp	r4, #5
	bne	.L69
	.loc 1 206 5 is_stmt 1 view .LVU320
.LVL120:
	.loc 1 207 5 view .LVU321
	mov	r3, r6
	mov	r2, #4
	mov	r1, #1
	mov	r0, fp
	bl	fwrite
.LVL121:
	.loc 1 203 21 is_stmt 0 discriminator 1 view .LVU322
	cmp	r5, r9
	.loc 1 206 7 view .LVU323
	mov	r4, #0
.LVL122:
	.loc 1 203 32 is_stmt 1 discriminator 2 view .LVU324
	.loc 1 203 21 discriminator 1 view .LVU325
	bne	.L70
.L110:
	.loc 1 203 21 is_stmt 0 discriminator 1 view .LVU326
.LBE130:
	.loc 1 210 3 is_stmt 1 view .LVU327
	ldr	r4, .L111+108
.LVL123:
	.loc 1 210 3 is_stmt 0 view .LVU328
	ldr	r1, .L111+112
	ldr	r2, [r4, #88]
	mov	r0, r6
	bl	fprintf
.LVL124:
	.loc 1 214 3 is_stmt 1 view .LVU329
	ldr	r3, [r7, #4]
	ldr	r1, .L111+116
	ldr	r2, [r4, r3, lsl #2]
	mov	r0, r6
	bl	fprintf
.LVL125:
	.loc 1 214 82 discriminator 1 view .LVU330
	.loc 1 215 3 view .LVU331
	ldr	r3, [r7, #8]
	ldr	r1, .L111+120
	ldr	r2, [r4, r3, lsl #2]
	mov	r0, r6
	bl	fprintf
.LVL126:
	.loc 1 215 84 discriminator 1 view .LVU332
	.loc 1 216 3 view .LVU333
	ldr	r3, [r7, #12]
	ldr	r1, .L111+124
	ldr	r2, [r4, r3, lsl #2]
	mov	r0, r6
	bl	fprintf
.LVL127:
	.loc 1 216 88 discriminator 1 view .LVU334
	.loc 1 217 3 view .LVU335
	ldr	r3, [r7, #16]
	ldr	r1, .L111+128
	ldr	r2, [r4, r3, lsl #2]
	mov	r0, r6
	bl	fprintf
.LVL128:
	.loc 1 217 90 discriminator 1 view .LVU336
	.loc 1 218 3 view .LVU337
	ldr	r3, [r7, #20]
	ldr	r1, .L111+132
	ldr	r2, [r4, r3, lsl #2]
	mov	r0, r6
	bl	fprintf
.LVL129:
	.loc 1 218 84 discriminator 1 view .LVU338
	.loc 1 219 3 view .LVU339
	ldr	r3, [r7, #24]
	ldr	r1, .L111+136
	ldr	r2, [r4, r3, lsl #2]
	mov	r0, r6
	bl	fprintf
.LVL130:
	.loc 1 219 86 discriminator 1 view .LVU340
	.loc 1 220 3 view .LVU341
	ldr	r3, [r7, #28]
	ldr	r1, .L111+140
	ldr	r2, [r4, r3, lsl #2]
	mov	r0, r6
	bl	fprintf
.LVL131:
	.loc 1 220 80 discriminator 1 view .LVU342
	.loc 1 221 3 view .LVU343
	ldr	r3, [r7, #32]
	ldr	r1, .L111+144
	ldr	r2, [r4, r3, lsl #2]
	mov	r0, r6
	bl	fprintf
.LVL132:
	.loc 1 221 84 discriminator 1 view .LVU344
	.loc 1 222 3 view .LVU345
	ldr	r3, [r7, #36]
	ldr	r1, .L111+148
	ldr	r2, [r4, r3, lsl #2]
	mov	r0, r6
	bl	fprintf
.LVL133:
	.loc 1 222 88 discriminator 1 view .LVU346
	.loc 1 223 3 view .LVU347
	ldr	r3, [r7, #40]
	ldr	r1, .L111+152
	ldr	r2, [r4, r3, lsl #2]
	mov	r0, r6
	bl	fprintf
.LVL134:
	.loc 1 223 88 discriminator 1 view .LVU348
	.loc 1 224 3 view .LVU349
	ldr	r3, [r7, #44]
	ldr	r1, .L111+156
	ldr	r2, [r4, r3, lsl #2]
	mov	r0, r6
	bl	fprintf
.LVL135:
	.loc 1 224 76 discriminator 1 view .LVU350
	.loc 1 225 3 view .LVU351
	ldr	r3, [r7, #48]
	ldr	r1, .L111+160
	ldr	r2, [r4, r3, lsl #2]
	mov	r0, r6
	bl	fprintf
.LVL136:
	.loc 1 225 98 discriminator 1 view .LVU352
	.loc 1 226 3 view .LVU353
	ldr	r3, [r7, #52]
	ldr	r1, .L111+164
	ldr	r2, [r4, r3, lsl #2]
	mov	r0, r6
	bl	fprintf
.LVL137:
	.loc 1 226 100 discriminator 1 view .LVU354
	.loc 1 227 3 view .LVU355
	ldr	r3, [r7, #56]
	ldr	r1, .L111+168
	ldr	r2, [r4, r3, lsl #2]
	mov	r0, r6
	bl	fprintf
.LVL138:
	.loc 1 227 82 discriminator 1 view .LVU356
	.loc 1 228 3 view .LVU357
	ldr	r3, [r7, #60]
	ldr	r1, .L111+172
	ldr	r2, [r4, r3, lsl #2]
	mov	r0, r6
	bl	fprintf
.LVL139:
	.loc 1 228 80 discriminator 1 view .LVU358
	.loc 1 232 3 view .LVU359
	mov	r0, r6
	ldr	r1, .L111+176
	ldrb	r2, [r10, #56]	@ zero_extendqisi2
	bl	fprintf
.LVL140:
	.loc 1 234 3 view .LVU360
	mov	r0, r6
	bl	fclose
.LVL141:
.L68:
	.loc 1 234 3 is_stmt 0 view .LVU361
.LBE128:
	.loc 1 237 2 is_stmt 1 view .LVU362
	.loc 1 237 17 is_stmt 0 view .LVU363
	ldr	r3, .L111+180
	str	r3, [r7, #72]	@ float
	.loc 1 238 1 view .LVU364
	add	sp, sp, #124
	.cfi_remember_state
	.cfi_def_cfa_offset 36
	@ sp needed
	pop	{r4, r5, r6, r7, r8, r9, r10, fp, pc}
.LVL142:
.L62:
	.cfi_restore_state
.LBB131:
	.loc 1 187 3 is_stmt 1 discriminator 8 view .LVU365
	.loc 1 190 3 view .LVU366
	.loc 1 190 56 is_stmt 0 view .LVU367
	ldr	r3, [r7]
	.loc 1 190 8 view .LVU368
	mov	r0, r5
	.loc 1 190 56 view .LVU369
	add	r3, r3, #56
	.loc 1 190 8 view .LVU370
	str	r3, [sp]
	ldr	r2, .L111+80
	ldr	r3, .L111+84
	ldr	r1, .L111+16
	bl	ini_sget
.LVL143:
.L107:
	.loc 1 192 3 is_stmt 1 view .LVU371
	mov	r0, r5
	bl	ini_free
.LVL144:
	.loc 1 192 3 is_stmt 0 view .LVU372
.LBE131:
	.loc 1 197 2 is_stmt 1 view .LVU373
	b	.L5
.LVL145:
.L2:
	.loc 1 148 3 view .LVU374
	.loc 1 149 33 is_stmt 0 view .LVU375
	mov	r5, #1
	.loc 1 148 23 view .LVU376
	ldr	lr, .L111+184
	add	ip, r7, #4
	.loc 1 149 33 view .LVU377
	ldr	r4, [r7]
	.loc 1 148 23 view .LVU378
	ldmia	lr!, {r0, r1, r2, r3}
	stmia	ip!, {r0, r1, r2, r3}
	ldmia	lr!, {r0, r1, r2, r3}
	stmia	ip!, {r0, r1, r2, r3}
	ldmia	lr!, {r0, r1, r2, r3}
	stmia	ip!, {r0, r1, r2, r3}
	ldm	lr, {r0, r1, r2}
	stm	ip, {r0, r1, r2}
	.loc 1 149 3 is_stmt 1 view .LVU379
	.loc 1 149 33 is_stmt 0 view .LVU380
	strb	r5, [r4, #56]
	b	.L3
.L112:
	.align	2
.L111:
	.word	.LANCHOR0
	.word	.LC0
	.word	.LC1
	.word	.LC2
	.word	.LC3
	.word	.LANCHOR1-4
	.word	.LC4
	.word	.LC5
	.word	.LC6
	.word	.LC7
	.word	.LC8
	.word	.LC9
	.word	.LC10
	.word	.LC11
	.word	.LC12
	.word	.LC13
	.word	.LC14
	.word	.LC15
	.word	.LC16
	.word	.LC17
	.word	.LC19
	.word	.LC18
	.word	.LC20
	.word	.LC21
	.word	.LC22
	.word	.LC23
	.word	.LC24
	.word	.LANCHOR1
	.word	.LC25
	.word	.LC26
	.word	.LC27
	.word	.LC28
	.word	.LC29
	.word	.LC30
	.word	.LC31
	.word	.LC32
	.word	.LC33
	.word	.LC34
	.word	.LC35
	.word	.LC36
	.word	.LC37
	.word	.LC38
	.word	.LC39
	.word	.LC40
	.word	.LC41
	.word	-1082130432
	.word	.LANCHOR0+60
	.cfi_endproc
.LFE152:
	.size	PlayerController_Init, .-PlayerController_Init
	.section	.text.PlayerController_Update,"ax",%progbits
	.align	2
	.global	PlayerController_Update
	.syntax unified
	.arm
	.type	PlayerController_Update, %function
PlayerController_Update:
.LVL146:
.LFB153:
	.loc 1 240 95 is_stmt 1 view -0
	.cfi_startproc
	@ args = 24, pretend = 8, frame = 152
	@ frame_needed = 0, uses_anonymous_args = 0
	.loc 1 240 95 is_stmt 0 view .LVU382
	sub	sp, sp, #8
	.cfi_def_cfa_offset 8
	push	{r4, r5, r6, r7, r8, r9, r10, lr}
	.cfi_def_cfa_offset 40
	.cfi_offset 4, -40
	.cfi_offset 5, -36
	.cfi_offset 6, -32
	.cfi_offset 7, -28
	.cfi_offset 8, -24
	.cfi_offset 9, -20
	.cfi_offset 10, -16
	.cfi_offset 14, -12
	vpush.64	{d8, d9, d10, d11, d12, d13}
	.cfi_def_cfa_offset 88
	.cfi_offset 80, -88
	.cfi_offset 81, -84
	.cfi_offset 82, -80
	.cfi_offset 83, -76
	.cfi_offset 84, -72
	.cfi_offset 85, -68
	.cfi_offset 86, -64
	.cfi_offset 87, -60
	.cfi_offset 88, -56
	.cfi_offset 89, -52
	.cfi_offset 90, -48
	.cfi_offset 91, -44
	sub	sp, sp, #152
	.cfi_def_cfa_offset 240
	.loc 1 240 95 view .LVU383
	add	ip, sp, #228
	stmib	ip, {r2, r3}
	mov	r3, r2
.LVL147:
	.loc 1 241 2 is_stmt 1 view .LVU384
.LBB207:
.LBB208:
	.loc 1 82 34 is_stmt 0 view .LVU385
	ldr	r2, [sp, #236]
.LVL148:
	.loc 1 82 34 view .LVU386
.LBE208:
.LBE207:
	.loc 1 240 95 view .LVU387
	mov	r4, r1
.LBB214:
.LBB209:
	.loc 1 82 56 view .LVU388
	ands	lr, r2, #1
	.loc 1 82 76 discriminator 2 view .LVU389
	andeq	r1, r3, #1
.LVL149:
	.loc 1 82 76 discriminator 2 view .LVU390
	vmoveq	s15, r1	@ int
	vldrne.32	s15, .L176
	.loc 1 82 20 discriminator 6 view .LVU391
	vcvteq.f32.s32	s15, s15
	.loc 1 102 16 view .LVU392
	ldrsh	r1, [sp, #246]
	orr	r3, r3, r2
.LVL150:
	.loc 1 102 16 view .LVU393
	vmov	s11, r1	@ int
	.loc 1 101 16 view .LVU394
	ldrsh	r1, [sp, #244]
	.loc 1 82 18 discriminator 6 view .LVU395
	vstr.32	s15, [sp, #16]
	.loc 1 101 16 view .LVU396
	vmov	s12, r1	@ int
	.loc 1 83 56 discriminator 2 view .LVU397
	lsr	r1, r3, #1
	and	r1, r1, #1
	.loc 1 83 20 discriminator 6 view .LVU398
	vmov	s15, r1	@ int
	.loc 1 84 56 discriminator 2 view .LVU399
	lsr	r1, r3, #10
	and	r1, r1, #1
	.loc 1 83 20 discriminator 6 view .LVU400
	vcvt.f32.s32	s13, s15
	.loc 1 84 20 discriminator 6 view .LVU401
	vmov	s15, r1	@ int
	.loc 1 85 56 discriminator 2 view .LVU402
	lsr	r1, r3, #11
	and	r1, r1, #1
	.loc 1 84 20 discriminator 6 view .LVU403
	vcvt.f32.s32	s14, s15
	.loc 1 85 20 discriminator 6 view .LVU404
	vmov	s15, r1	@ int
	vcvt.f32.s32	s15, s15
	.loc 1 87 56 discriminator 2 view .LVU405
	lsr	r1, r3, #9
	and	r1, r1, #1
	.loc 1 101 8 view .LVU406
	vldr.32	s8, .L176+4
	.loc 1 101 16 view .LVU407
	vcvt.f32.s32	s12, s12
	.loc 1 85 20 discriminator 6 view .LVU408
	vstr.32	s15, [sp, #28]
	.loc 1 87 20 discriminator 6 view .LVU409
	vmov	s15, r1	@ int
	.loc 1 88 56 discriminator 2 view .LVU410
	lsr	r1, r3, #8
	and	r1, r1, #1
	.loc 1 101 8 view .LVU411
	vdiv.f32	s10, s12, s8
	.loc 1 87 20 discriminator 6 view .LVU412
	vcvt.f32.s32	s12, s15
	.loc 1 88 20 discriminator 6 view .LVU413
	vmov	s15, r1	@ int
	.loc 1 90 64 discriminator 2 view .LVU414
	lsr	r1, r3, #3
	and	r1, r1, #1
	.loc 1 83 20 discriminator 6 view .LVU415
	vstr.32	s13, [sp, #20]
	.loc 1 88 20 discriminator 6 view .LVU416
	vcvt.f32.s32	s13, s15
	.loc 1 90 24 discriminator 6 view .LVU417
	vmov	s15, r1	@ int
	.loc 1 91 66 discriminator 2 view .LVU418
	lsr	r1, r3, #2
	and	r1, r1, #1
	.loc 1 84 20 discriminator 6 view .LVU419
	vstr.32	s14, [sp, #24]
	.loc 1 90 24 discriminator 6 view .LVU420
	vcvt.f32.s32	s14, s15
	.loc 1 91 25 discriminator 6 view .LVU421
	vmov	s15, r1	@ int
	vcvt.f32.s32	s15, s15
	.loc 1 93 60 discriminator 2 view .LVU422
	lsr	r1, r3, #6
	and	r1, r1, #1
	.loc 1 102 16 view .LVU423
	vcvt.f32.s32	s11, s11
	.loc 1 91 25 discriminator 6 view .LVU424
	vstr.32	s15, [sp, #44]
	.loc 1 93 22 discriminator 6 view .LVU425
	vmov	s15, r1	@ int
	.loc 1 94 64 discriminator 2 view .LVU426
	lsr	r1, r3, #7
	and	r1, r1, #1
	.loc 1 102 8 view .LVU427
	vdiv.f32	s9, s11, s8
	.loc 1 93 22 discriminator 6 view .LVU428
	vcvt.f32.s32	s11, s15
	.loc 1 94 24 discriminator 6 view .LVU429
	vmov	s15, r1	@ int
	.loc 1 95 64 discriminator 2 view .LVU430
	lsr	r1, r3, #5
	and	r1, r1, #1
	.loc 1 87 20 discriminator 6 view .LVU431
	vstr.32	s12, [sp, #32]
	.loc 1 94 24 discriminator 6 view .LVU432
	vcvt.f32.s32	s12, s15
	.loc 1 95 24 discriminator 6 view .LVU433
	vmov	s15, r1	@ int
	.loc 1 96 66 discriminator 2 view .LVU434
	lsr	r1, r3, #4
	and	r1, r1, #1
	.loc 1 88 20 discriminator 6 view .LVU435
	vstr.32	s13, [sp, #36]
	.loc 1 95 24 discriminator 6 view .LVU436
	vcvt.f32.s32	s13, s15
	.loc 1 96 25 discriminator 6 view .LVU437
	vmov	s15, r1	@ int
	.loc 1 98 58 discriminator 2 view .LVU438
	lsr	r1, r3, #14
	and	r1, r1, #1
	.loc 1 90 24 discriminator 6 view .LVU439
	vstr.32	s14, [sp, #40]
	.loc 1 96 25 discriminator 6 view .LVU440
	vcvt.f32.s32	s14, s15
	.loc 1 98 21 discriminator 6 view .LVU441
	vmov	s15, r1	@ int
	vcvt.f32.s32	s15, s15
	.loc 1 99 58 discriminator 2 view .LVU442
	lsr	r1, r3, #15
	and	r1, r1, #1
	.loc 1 98 21 discriminator 6 view .LVU443
	vstr.32	s15, [sp, #96]
	.loc 1 99 21 discriminator 6 view .LVU444
	vmov	s15, r1	@ int
	.loc 1 79 14 view .LVU445
	mov	ip, #0
	.loc 1 78 11 view .LVU446
	mov	r5, #0
	.loc 1 82 108 discriminator 6 view .LVU447
	lsl	r1, r2, #7
	lsl	r9, r2, #6
	and	r1, r1, #256
	orr	r1, r1, lr
	and	r9, r9, #65536
	orr	r9, r9, r1
	lsl	r8, r2, #22
	and	r1, r2, #256
	orr	r1, r1, r8, lsr #31
	.loc 1 99 21 discriminator 6 view .LVU448
	vcvt.f32.s32	s15, s15
	.loc 1 82 108 discriminator 6 view .LVU449
	lsl	r8, r2, #13
	.loc 1 79 14 view .LVU450
	strb	ip, [sp, #127]
	.loc 1 80 12 view .LVU451
	strb	ip, [sp, #104]
	.loc 1 82 108 discriminator 6 view .LVU452
	lsl	r7, r2, #1
	.loc 1 82 161 discriminator 6 view .LVU453
	ldr	ip, [sp, #240]
	.loc 1 82 108 discriminator 6 view .LVU454
	and	r8, r8, #65536
	orr	r8, r8, r1
	and	r7, r7, #256
	lsl	r1, r2, #25
	lsl	r10, r2, #11
	orr	r1, r7, r1, lsr #31
	.loc 1 82 154 discriminator 6 view .LVU455
	lsl	lr, ip, #7
	.loc 1 82 108 discriminator 6 view .LVU456
	and	r10, r10, #65536
	orr	r10, r1, r10
	.loc 1 82 154 discriminator 6 view .LVU457
	lsl	r7, ip, #6
	and	r1, ip, #1
	and	lr, lr, #256
	orr	lr, lr, r1
	and	r7, r7, #65536
	orr	r7, r7, lr
	and	r1, ip, #256
	lsl	lr, ip, #22
	orr	r1, r1, lr, lsr #31
	lsl	lr, ip, #13
.LBE209:
.LBE214:
	.loc 1 240 95 view .LVU458
	mov	r6, r0
.LBB215:
.LBB210:
	.loc 1 78 11 view .LVU459
	str	r5, [sp, #12]	@ float
	.loc 1 82 154 discriminator 6 view .LVU460
	and	lr, lr, #65536
.LBE210:
.LBE215:
	.loc 1 241 10 view .LVU461
	ldr	r5, [r0]
.LVL151:
	.loc 1 242 2 is_stmt 1 view .LVU462
	.loc 1 243 2 view .LVU463
	.loc 1 244 2 view .LVU464
.LBB216:
.LBI207:
	.loc 1 72 13 view .LVU465
.LBB211:
	.loc 1 78 2 view .LVU466
	.loc 1 79 2 view .LVU467
	.loc 1 80 2 view .LVU468
	.loc 1 82 2 view .LVU469
	.loc 1 82 89 discriminator 6 view .LVU470
	.loc 1 82 137 discriminator 6 view .LVU471
	.loc 1 83 2 view .LVU472
	.loc 1 83 89 discriminator 6 view .LVU473
	.loc 1 83 137 discriminator 6 view .LVU474
	.loc 1 84 2 view .LVU475
	.loc 1 84 89 discriminator 6 view .LVU476
	.loc 1 84 137 discriminator 6 view .LVU477
	.loc 1 85 2 view .LVU478
	.loc 1 85 89 discriminator 6 view .LVU479
	.loc 1 85 137 discriminator 6 view .LVU480
	.loc 1 87 2 view .LVU481
	.loc 1 87 89 discriminator 6 view .LVU482
	.loc 1 87 137 discriminator 6 view .LVU483
	.loc 1 88 2 view .LVU484
	.loc 1 88 89 discriminator 6 view .LVU485
	.loc 1 88 137 discriminator 6 view .LVU486
	.loc 1 90 2 view .LVU487
	.loc 1 90 101 discriminator 6 view .LVU488
	.loc 1 90 157 discriminator 6 view .LVU489
	.loc 1 91 2 view .LVU490
	.loc 1 91 104 discriminator 6 view .LVU491
	.loc 1 91 162 discriminator 6 view .LVU492
	.loc 1 93 2 view .LVU493
	.loc 1 93 95 discriminator 6 view .LVU494
	.loc 1 93 147 discriminator 6 view .LVU495
	.loc 1 94 2 view .LVU496
	.loc 1 94 101 discriminator 6 view .LVU497
	.loc 1 94 157 discriminator 6 view .LVU498
	.loc 1 95 2 view .LVU499
	.loc 1 95 101 discriminator 6 view .LVU500
	.loc 1 95 157 discriminator 6 view .LVU501
	.loc 1 96 2 view .LVU502
	.loc 1 96 104 discriminator 6 view .LVU503
	.loc 1 82 154 is_stmt 0 discriminator 6 view .LVU504
	lsl	r0, ip, #1
.LVL152:
	.loc 1 109 50 view .LVU505
	vcmpe.f32	s9, #0
	.loc 1 82 154 discriminator 6 view .LVU506
	orr	lr, lr, r1
	and	r0, r0, #256
	lsl	r1, ip, #25
	orr	r1, r0, r1, lsr #31
	lsl	r0, ip, #11
	and	r0, r0, #65536
	orr	r0, r1, r0
	.loc 1 82 108 discriminator 6 view .LVU507
	lsl	r1, r2, #13
	and	r1, r1, #16777216
	orr	r1, r1, r9
	str	r1, [sp, #128]
	lsl	r1, r2, #22
	and	r1, r1, #16777216
	orr	r1, r1, r8
	str	r1, [sp, #132]
	lsl	r1, r2, #20
	and	r1, r1, #16777216
	orr	r1, r1, r10
	str	r1, [sp, #136]
	.loc 1 96 162 is_stmt 1 discriminator 6 view .LVU508
	.loc 1 82 154 is_stmt 0 discriminator 6 view .LVU509
	lsl	r1, ip, #13
	and	r1, r1, #16777216
	orr	r1, r1, r7
	str	r1, [sp, #105]	@ unaligned
	lsl	r1, ip, #22
	and	r1, r1, #16777216
	orr	r1, r1, lr
	str	r1, [sp, #109]	@ unaligned
	lsl	r1, ip, #20
	and	r1, r1, #16777216
	orr	r1, r1, r0
	str	r1, [sp, #113]	@ unaligned
	.loc 1 98 2 is_stmt 1 view .LVU510
	.loc 1 98 92 discriminator 6 view .LVU511
	.loc 1 98 130 is_stmt 0 discriminator 6 view .LVU512
	lsr	r1, r2, #14
	and	r1, r1, #1
	.loc 1 93 22 discriminator 6 view .LVU513
	vstr.32	s11, [sp, #48]
	.loc 1 94 24 discriminator 6 view .LVU514
	vstr.32	s12, [sp, #52]
	.loc 1 95 24 discriminator 6 view .LVU515
	vstr.32	s13, [sp, #56]
	.loc 1 96 25 discriminator 6 view .LVU516
	vstr.32	s14, [sp, #60]
	.loc 1 99 21 discriminator 6 view .LVU517
	vstr.32	s15, [sp, #100]
	.loc 1 98 112 discriminator 6 view .LVU518
	strb	r1, [sp, #148]
	.loc 1 98 142 is_stmt 1 discriminator 6 view .LVU519
	.loc 1 98 176 is_stmt 0 discriminator 6 view .LVU520
	lsr	r1, ip, #14
	and	r1, r1, #1
	.loc 1 98 160 discriminator 6 view .LVU521
	strb	r1, [sp, #125]
	.loc 1 99 2 is_stmt 1 view .LVU522
	.loc 1 99 92 discriminator 6 view .LVU523
	.loc 1 99 130 is_stmt 0 discriminator 6 view .LVU524
	lsr	r1, r2, #15
	and	r1, r1, #1
	.loc 1 99 112 discriminator 6 view .LVU525
	strb	r1, [sp, #149]
	.loc 1 99 142 is_stmt 1 discriminator 6 view .LVU526
	.loc 1 99 176 is_stmt 0 discriminator 6 view .LVU527
	lsr	r1, ip, #15
	and	r1, r1, #1
	.loc 1 99 160 discriminator 6 view .LVU528
	strb	r1, [sp, #126]
	.loc 1 101 2 is_stmt 1 view .LVU529
.LVL153:
	.loc 1 102 2 view .LVU530
	.loc 1 109 2 view .LVU531
	.loc 1 109 103 is_stmt 0 discriminator 6 view .LVU532
	lsr	r1, r3, #30
	and	r1, r1, #1
	vmov	s15, r1	@ int
	.loc 1 110 107 discriminator 4 view .LVU533
	lsr	r1, r3, #31
	.loc 1 109 50 view .LVU534
	vmrs	APSR_nzcv, FPSCR
	.loc 1 110 107 discriminator 4 view .LVU535
	vmov	s14, r1	@ int
	.loc 1 109 50 discriminator 1 view .LVU536
	vnegmi.f32	s9, s9
.LVL154:
	.loc 1 110 65 discriminator 10 view .LVU537
	vcvt.f32.s32	s14, s14
	.loc 1 109 63 discriminator 10 view .LVU538
	vcvt.f32.s32	s15, s15
	.loc 1 109 183 discriminator 10 view .LVU539
	lsr	r1, r2, #30
	and	r1, r1, #1
	.loc 1 109 165 discriminator 10 view .LVU540
	strb	r1, [sp, #140]
	.loc 1 109 239 discriminator 10 view .LVU541
	lsr	r1, ip, #30
	and	r1, r1, #1
	.loc 1 109 223 discriminator 10 view .LVU542
	strb	r1, [sp, #117]
	.loc 1 110 191 discriminator 10 view .LVU543
	lsr	r1, r2, #31
	.loc 1 110 173 discriminator 10 view .LVU544
	strb	r1, [sp, #141]
	.loc 1 110 251 discriminator 10 view .LVU545
	lsr	r1, ip, #31
	.loc 1 111 52 view .LVU546
	vcmpe.f32	s10, #0
	.loc 1 110 63 discriminator 10 view .LVU547
	vmul.f32	s14, s14, s9
	.loc 1 110 235 discriminator 10 view .LVU548
	strb	r1, [sp, #118]
	.loc 1 115 18 view .LVU549
	ldrsh	r1, [sp, #254]
	.loc 1 109 61 discriminator 10 view .LVU550
	vmul.f32	s15, s15, s9
	.loc 1 115 18 view .LVU551
	vmov	s13, r1	@ int
	.loc 1 111 107 discriminator 6 view .LVU552
	lsr	r1, r3, #29
	and	r1, r1, #1
	.loc 1 111 52 view .LVU553
	vmrs	APSR_nzcv, FPSCR
	.loc 1 110 26 discriminator 10 view .LVU554
	vstr.32	s14, [sp, #68]
	.loc 1 111 107 discriminator 6 view .LVU555
	vmov	s14, r1	@ int
	.loc 1 112 109 discriminator 6 view .LVU556
	lsr	r1, r3, #28
	and	r1, r1, #1
	.loc 1 114 8 view .LVU557
	vldr.32	s9, .L176+4
	.loc 1 109 24 discriminator 10 view .LVU558
	vstr.32	s15, [sp, #64]
	.loc 1 109 140 is_stmt 1 discriminator 10 view .LVU559
	.loc 1 109 200 discriminator 10 view .LVU560
	.loc 1 110 2 view .LVU561
	.loc 1 110 146 discriminator 10 view .LVU562
	.loc 1 110 210 discriminator 10 view .LVU563
	.loc 1 111 2 view .LVU564
	.loc 1 115 18 is_stmt 0 view .LVU565
	vcvt.f32.s32	s13, s13
	.loc 1 112 109 discriminator 6 view .LVU566
	vmov	s15, r1	@ int
	.loc 1 111 52 discriminator 1 view .LVU567
	vnegmi.f32	s10, s10
.LVL155:
	.loc 1 111 65 discriminator 10 view .LVU568
	vcvt.f32.s32	s14, s14
	.loc 1 115 8 view .LVU569
	vdiv.f32	s12, s13, s9
	.loc 1 112 66 discriminator 10 view .LVU570
	vcvt.f32.s32	s15, s15
	.loc 1 111 63 discriminator 10 view .LVU571
	vmul.f32	s14, s14, s10
	.loc 1 114 18 view .LVU572
	ldrsh	r1, [sp, #252]
	.loc 1 117 56 view .LVU573
	vcmpe.f32	s12, #0
	.loc 1 112 64 discriminator 10 view .LVU574
	vmul.f32	s15, s15, s10
	.loc 1 114 18 view .LVU575
	vmov	s11, r1	@ int
	.loc 1 111 191 discriminator 10 view .LVU576
	lsr	r1, r2, #29
	and	r1, r1, #1
	.loc 1 111 173 discriminator 10 view .LVU577
	strb	r1, [sp, #142]
	.loc 1 111 251 discriminator 10 view .LVU578
	lsr	r1, ip, #29
	and	r1, r1, #1
	.loc 1 111 235 discriminator 10 view .LVU579
	strb	r1, [sp, #119]
	.loc 1 112 195 discriminator 10 view .LVU580
	lsr	r1, r2, #28
	and	r1, r1, #1
	.loc 1 112 177 discriminator 10 view .LVU581
	strb	r1, [sp, #143]
	.loc 1 112 257 discriminator 10 view .LVU582
	lsr	r1, ip, #28
	and	r1, r1, #1
	.loc 1 112 241 discriminator 10 view .LVU583
	strb	r1, [sp, #120]
	.loc 1 117 113 discriminator 6 view .LVU584
	lsr	r1, r3, #26
	and	r1, r1, #1
	.loc 1 111 26 discriminator 10 view .LVU585
	vstr.32	s14, [sp, #72]
	.loc 1 111 146 is_stmt 1 discriminator 10 view .LVU586
	.loc 1 111 210 discriminator 10 view .LVU587
	.loc 1 112 2 view .LVU588
	.loc 1 117 113 is_stmt 0 discriminator 6 view .LVU589
	vmov	s14, r1	@ int
	.loc 1 118 117 discriminator 6 view .LVU590
	lsr	r1, r3, #27
	and	r1, r1, #1
	.loc 1 114 18 view .LVU591
	vcvt.f32.s32	s11, s11
	.loc 1 117 56 view .LVU592
	vmrs	APSR_nzcv, FPSCR
	.loc 1 112 27 discriminator 10 view .LVU593
	vstr.32	s15, [sp, #76]
	.loc 1 112 149 is_stmt 1 discriminator 10 view .LVU594
	.loc 1 112 215 discriminator 10 view .LVU595
	.loc 1 114 2 view .LVU596
	.loc 1 118 117 is_stmt 0 discriminator 6 view .LVU597
	vmov	s15, r1	@ int
	.loc 1 114 8 view .LVU598
	vdiv.f32	s13, s11, s9
.LVL156:
	.loc 1 115 2 is_stmt 1 view .LVU599
	.loc 1 117 2 view .LVU600
	.loc 1 117 56 is_stmt 0 discriminator 1 view .LVU601
	vnegmi.f32	s12, s12
.LVL157:
	.loc 1 117 71 discriminator 10 view .LVU602
	vcvt.f32.s32	s14, s14
	.loc 1 118 73 discriminator 10 view .LVU603
	vcvt.f32.s32	s15, s15
	.loc 1 119 58 view .LVU604
	vcmpe.f32	s13, #0
	.loc 1 117 69 discriminator 10 view .LVU605
	vmul.f32	s14, s14, s12
	.loc 1 118 71 discriminator 10 view .LVU606
	vmul.f32	s15, s15, s12
	.loc 1 117 197 discriminator 10 view .LVU607
	lsr	r1, r2, #26
	and	r1, r1, #1
	.loc 1 117 179 discriminator 10 view .LVU608
	strb	r1, [sp, #144]
	.loc 1 117 257 discriminator 10 view .LVU609
	lsr	r1, ip, #26
	and	r1, r1, #1
	.loc 1 117 241 discriminator 10 view .LVU610
	strb	r1, [sp, #121]
	.loc 1 118 205 discriminator 10 view .LVU611
	lsr	r1, r2, #27
	and	r1, r1, #1
	.loc 1 118 187 discriminator 10 view .LVU612
	strb	r1, [sp, #145]
	.loc 1 118 269 discriminator 10 view .LVU613
	lsr	r1, ip, #27
	and	r1, r1, #1
	.loc 1 118 253 discriminator 10 view .LVU614
	strb	r1, [sp, #122]
	.loc 1 119 117 discriminator 6 view .LVU615
	lsr	r1, r3, #25
	.loc 1 120 119 discriminator 6 view .LVU616
	lsr	r3, r3, #24
	.loc 1 119 117 discriminator 6 view .LVU617
	and	r1, r1, #1
	.loc 1 120 119 discriminator 6 view .LVU618
	and	r3, r3, #1
	.loc 1 119 58 view .LVU619
	vmrs	APSR_nzcv, FPSCR
	.loc 1 117 26 discriminator 10 view .LVU620
	vstr.32	s14, [sp, #80]
	b	.L177
.L178:
	.align	2
.L176:
	.word	1065353216
	.word	1125908480
	.word	0
	.word	1082759578
	.word	1069547520
	.word	1126170624
.L177:
	.loc 1 117 152 is_stmt 1 discriminator 10 view .LVU621
	.loc 1 117 216 discriminator 10 view .LVU622
	.loc 1 118 2 view .LVU623
	.loc 1 118 28 is_stmt 0 discriminator 10 view .LVU624
	vstr.32	s15, [sp, #84]
	.loc 1 118 158 is_stmt 1 discriminator 10 view .LVU625
	.loc 1 118 226 discriminator 10 view .LVU626
	.loc 1 119 2 view .LVU627
	.loc 1 119 117 is_stmt 0 discriminator 6 view .LVU628
	vmov	s14, r1	@ int
	.loc 1 120 74 discriminator 10 view .LVU629
	vmov	s15, r3	@ int
	.loc 1 119 58 discriminator 1 view .LVU630
	vnegmi.f32	s13, s13
.LVL158:
	.loc 1 119 73 discriminator 10 view .LVU631
	vcvt.f32.s32	s14, s14
	.loc 1 120 74 discriminator 10 view .LVU632
	vcvt.f32.s32	s15, s15
	.loc 1 119 71 discriminator 10 view .LVU633
	vmul.f32	s14, s14, s13
	.loc 1 120 72 discriminator 10 view .LVU634
	vmul.f32	s15, s15, s13
	.loc 1 119 28 discriminator 10 view .LVU635
	vstr.32	s14, [sp, #88]
	.loc 1 119 158 is_stmt 1 discriminator 10 view .LVU636
	.loc 1 120 29 is_stmt 0 discriminator 10 view .LVU637
	vstr.32	s15, [sp, #92]
.LBE211:
.LBE216:
	.loc 1 254 30 view .LVU638
	vldr.32	s21, [r5, #16]
.LBB217:
.LBB218:
	.loc 1 134 97 view .LVU639
	ldr	r8, [r6, #44]
.LBE218:
.LBE217:
.LBB223:
.LBB224:
	ldr	r7, [r6, #60]
.LBE224:
.LBE223:
.LBB228:
.LBB229:
	ldr	lr, [r6, #4]
.LBE229:
.LBE228:
.LBB233:
.LBB234:
	ldr	r0, [r6, #8]
.LBE234:
.LBE233:
.LBB238:
.LBB239:
	ldr	r1, [r6, #12]
.LBE239:
.LBE238:
.LBB243:
.LBB219:
	add	r3, sp, #152
.LBE219:
.LBE243:
.LBB244:
.LBB230:
	add	lr, r3, lr, lsl #2
.LBE230:
.LBE244:
.LBB245:
.LBB235:
	add	r0, r3, r0, lsl #2
.LBE235:
.LBE245:
.LBB246:
.LBB240:
	add	r1, r3, r1, lsl #2
.LBE240:
.LBE246:
.LBB247:
.LBB220:
	add	r8, r3, r8, lsl #2
.LBE220:
.LBE247:
.LBB248:
.LBB225:
	add	r7, r3, r7, lsl #2
.LBE225:
.LBE248:
.LBB249:
.LBB250:
	ldr	r3, [r6, #16]
	add	r9, sp, #152
	add	r3, r9, r3, lsl #2
.LBE250:
.LBE249:
.LBB253:
.LBB221:
	vldr.32	s20, [r8, #-140]
.LBE221:
.LBE253:
.LBB254:
.LBB251:
	vldr.32	s25, [r3, #-140]
.LBE251:
.LBE254:
.LBB255:
.LBB212:
	.loc 1 119 205 discriminator 10 view .LVU640
	lsr	r3, r2, #25
	and	r3, r3, #1
	.loc 1 119 187 discriminator 10 view .LVU641
	strb	r3, [sp, #146]
	.loc 1 119 226 is_stmt 1 discriminator 10 view .LVU642
	.loc 1 120 209 is_stmt 0 discriminator 10 view .LVU643
	lsr	r2, r2, #24
	.loc 1 120 275 discriminator 10 view .LVU644
	lsr	r3, ip, #24
	.loc 1 119 269 discriminator 10 view .LVU645
	lsr	ip, ip, #25
	.loc 1 120 275 discriminator 10 view .LVU646
	and	r3, r3, #1
	.loc 1 120 209 discriminator 10 view .LVU647
	and	r2, r2, #1
	.loc 1 119 269 discriminator 10 view .LVU648
	and	ip, ip, #1
.LBE212:
.LBE255:
	.loc 1 240 95 view .LVU649
	vmov.f32	s19, s0
	.loc 1 254 30 view .LVU650
	vmov.f32	s0, s21
.LVL159:
.LBB256:
.LBB231:
	.loc 1 134 97 view .LVU651
	vldr.32	s26, [lr, #-140]
.LBE231:
.LBE256:
.LBB257:
.LBB236:
	vldr.32	s24, [r0, #-140]
.LBE236:
.LBE257:
.LBB258:
.LBB241:
	vldr.32	s27, [r1, #-140]
.LBE241:
.LBE258:
.LBB259:
.LBB213:
	.loc 1 120 259 discriminator 10 view .LVU652
	strb	r3, [sp, #124]
	.loc 1 120 191 discriminator 10 view .LVU653
	strb	r2, [sp, #147]
	.loc 1 119 253 discriminator 10 view .LVU654
	strb	ip, [sp, #123]
	.loc 1 120 2 is_stmt 1 view .LVU655
	.loc 1 120 161 discriminator 10 view .LVU656
	.loc 1 120 231 discriminator 10 view .LVU657
.LVL160:
	.loc 1 120 231 is_stmt 0 discriminator 10 view .LVU658
.LBE213:
.LBE259:
	.loc 1 246 2 is_stmt 1 view .LVU659
.LBB260:
.LBI217:
	.loc 1 134 21 view .LVU660
.LBB222:
	.loc 1 134 79 view .LVU661
	.loc 1 134 79 is_stmt 0 view .LVU662
.LBE222:
.LBE260:
	.loc 1 247 2 is_stmt 1 view .LVU663
.LBB261:
.LBI223:
	.loc 1 134 21 view .LVU664
.LBB226:
	.loc 1 134 79 view .LVU665
	.loc 1 134 79 is_stmt 0 view .LVU666
.LBE226:
.LBE261:
	.loc 1 254 30 view .LVU667
	bl	sinf
.LVL161:
	vmov.f32	s22, s0
	.loc 1 254 55 discriminator 1 view .LVU668
	vmov.f32	s0, s21
	bl	cosf
.LVL162:
.LBB262:
.LBB263:
	.file 2 "C:/Users/Elias/CLionProjects/3DSCraft/include/misc/VecMath.h"
	.loc 2 21 51 view .LVU669
	vldr.32	s15, .L176+8
.LBE263:
.LBE262:
	.loc 1 254 22 discriminator 1 view .LVU670
	vneg.f32	s22, s22
.LBB268:
.LBB269:
	.loc 2 16 51 view .LVU671
	vmov.f32	s17, s15
.LBE269:
.LBE268:
.LBB274:
.LBB264:
	.loc 2 21 97 view .LVU672
	vmul.f32	s14, s22, s15
.LBE264:
.LBE274:
.LBB275:
.LBB270:
	.loc 2 16 51 view .LVU673
	vmla.f32	s17, s26, s15
.LBE270:
.LBE275:
.LBB276:
.LBB265:
	.loc 2 21 51 view .LVU674
	vnmla.f32	s14, s0, s15
.LBE265:
.LBE276:
.LBB277:
.LBB271:
	.loc 2 16 51 view .LVU675
	vmov.f32	s18, s15
	vmov.f32	s16, s15
.LBE271:
.LBE277:
.LBB278:
.LBB279:
	.loc 2 17 51 view .LVU676
	vmls.f32	s17, s24, s15
.LBE279:
.LBE278:
.LBB282:
.LBB272:
	.loc 2 16 51 view .LVU677
	vmla.f32	s18, s22, s26
	vmls.f32	s16, s0, s26
.LBE272:
.LBE282:
.LBB283:
.LBB284:
	vmla.f32	s17, s14, s25
.LBE284:
.LBE283:
.LBB287:
.LBB266:
	.loc 2 21 51 view .LVU678
	vadd.f32	s13, s0, s15
.LBE266:
.LBE287:
.LBB288:
.LBB289:
	.loc 2 17 51 view .LVU679
	vmls.f32	s17, s14, s27
.LBE289:
.LBE288:
.LBB292:
.LBB280:
	vmls.f32	s18, s22, s24
	vmla.f32	s16, s0, s24
.LBE280:
.LBE292:
	.loc 1 262 5 view .LVU680
	ldrb	r3, [r5, #35]	@ zero_extendqisi2
.LBB293:
.LBB227:
	.loc 1 134 97 view .LVU681
	vldr.32	s23, [r7, #-140]
.LVL163:
	.loc 1 134 97 view .LVU682
.LBE227:
.LBE293:
	.loc 1 249 2 is_stmt 1 view .LVU683
.LBB294:
.LBI228:
	.loc 1 134 21 view .LVU684
.LBB232:
	.loc 1 134 79 view .LVU685
	.loc 1 134 79 is_stmt 0 view .LVU686
.LBE232:
.LBE294:
	.loc 1 250 2 is_stmt 1 view .LVU687
.LBB295:
.LBI233:
	.loc 1 134 21 view .LVU688
.LBB237:
	.loc 1 134 79 view .LVU689
	.loc 1 134 79 is_stmt 0 view .LVU690
.LBE237:
.LBE295:
	.loc 1 251 2 is_stmt 1 view .LVU691
.LBB296:
.LBI238:
	.loc 1 134 21 view .LVU692
.LBB242:
	.loc 1 134 79 view .LVU693
	.loc 1 134 79 is_stmt 0 view .LVU694
.LBE242:
.LBE296:
	.loc 1 252 2 is_stmt 1 view .LVU695
.LBB297:
.LBI249:
	.loc 1 134 21 view .LVU696
.LBB252:
	.loc 1 134 79 view .LVU697
	.loc 1 134 79 is_stmt 0 view .LVU698
.LBE252:
.LBE297:
	.loc 1 254 2 is_stmt 1 view .LVU699
	.loc 1 255 2 view .LVU700
.LBB298:
.LBI262:
	.loc 2 21 15 view .LVU701
.LBB267:
	.loc 2 21 44 view .LVU702
	.loc 2 21 44 is_stmt 0 view .LVU703
.LBE267:
.LBE298:
	.loc 1 257 2 is_stmt 1 view .LVU704
	.loc 1 258 2 view .LVU705
.LBB299:
.LBI299:
	.loc 2 18 15 view .LVU706
.LBB300:
	.loc 2 18 43 view .LVU707
	.loc 2 18 43 is_stmt 0 view .LVU708
.LBE300:
.LBE299:
.LBB301:
.LBI268:
	.loc 2 16 15 is_stmt 1 view .LVU709
.LBB273:
	.loc 2 16 44 view .LVU710
	.loc 2 16 44 is_stmt 0 view .LVU711
.LBE273:
.LBE301:
	.loc 1 259 2 is_stmt 1 view .LVU712
.LBB302:
.LBI302:
	.loc 2 18 15 view .LVU713
.LBB303:
	.loc 2 18 43 view .LVU714
	.loc 2 18 43 is_stmt 0 view .LVU715
.LBE303:
.LBE302:
.LBB304:
.LBI278:
	.loc 2 17 15 is_stmt 1 view .LVU716
.LBB281:
	.loc 2 17 44 view .LVU717
	.loc 2 17 44 is_stmt 0 view .LVU718
.LBE281:
.LBE304:
	.loc 1 260 2 is_stmt 1 view .LVU719
.LBB305:
.LBI305:
	.loc 2 18 15 view .LVU720
.LBB306:
	.loc 2 18 43 view .LVU721
	.loc 2 18 43 is_stmt 0 view .LVU722
.LBE306:
.LBE305:
.LBB307:
.LBI283:
	.loc 2 16 15 is_stmt 1 view .LVU723
.LBB285:
	.loc 2 16 44 view .LVU724
	.loc 2 16 44 is_stmt 0 view .LVU725
.LBE285:
.LBE307:
	.loc 1 261 2 is_stmt 1 view .LVU726
.LBB308:
.LBI308:
	.loc 2 18 15 view .LVU727
.LBB309:
	.loc 2 18 43 view .LVU728
	.loc 2 18 43 is_stmt 0 view .LVU729
.LBE309:
.LBE308:
.LBB310:
.LBI288:
	.loc 2 17 15 is_stmt 1 view .LVU730
.LBB290:
	.loc 2 17 44 view .LVU731
.LBE290:
.LBE310:
	.loc 1 262 5 is_stmt 0 view .LVU732
	cmp	r3, #0
.LBB311:
.LBB312:
	.loc 2 16 51 view .LVU733
	vaddne.f32	s17, s17, s20
.LBE312:
.LBE311:
.LBB315:
.LBB286:
	vmla.f32	s18, s13, s25
.LVL164:
	.loc 2 16 51 view .LVU734
	vmla.f32	s16, s22, s25
.LVL165:
	.loc 2 16 51 view .LVU735
.LBE286:
.LBE315:
.LBB316:
.LBB291:
	.loc 2 17 51 view .LVU736
	vmls.f32	s18, s13, s27
.LVL166:
	.loc 2 17 51 view .LVU737
	vmls.f32	s16, s22, s27
.LVL167:
	.loc 2 17 51 view .LVU738
.LBE291:
.LBE316:
	.loc 1 262 2 is_stmt 1 view .LVU739
	.loc 1 263 3 view .LVU740
.LBB317:
.LBI311:
	.loc 2 16 15 view .LVU741
.LBB313:
	.loc 2 16 44 view .LVU742
.LBE313:
.LBE317:
.LBB318:
.LBB319:
	.loc 2 17 51 is_stmt 0 view .LVU743
	vsubne.f32	s17, s17, s23
.LBE319:
.LBE318:
.LBB321:
.LBB314:
	.loc 2 16 51 view .LVU744
	vaddne.f32	s18, s18, s15
.LVL168:
	.loc 2 16 51 view .LVU745
	vaddne.f32	s16, s16, s15
.LVL169:
	.loc 2 16 51 view .LVU746
.LBE314:
.LBE321:
	.loc 1 264 3 is_stmt 1 view .LVU747
.LBB322:
.LBI318:
	.loc 2 17 15 view .LVU748
.LBB320:
	.loc 2 17 44 view .LVU749
	.loc 2 17 44 is_stmt 0 view .LVU750
.LBE320:
.LBE322:
	.loc 1 266 2 is_stmt 1 view .LVU751
.LBB323:
.LBI323:
	.loc 2 24 14 view .LVU752
	.loc 2 24 38 view .LVU753
.LBB324:
.LBI324:
	.loc 2 20 14 view .LVU754
.LBB325:
	.loc 2 20 43 view .LVU755
	.loc 2 20 66 is_stmt 0 view .LVU756
	vmul.f32	s15, s17, s17
	.loc 2 20 60 view .LVU757
	vmla.f32	s15, s18, s18
	.loc 2 20 72 view .LVU758
	vmla.f32	s15, s16, s16
.LVL170:
	.loc 2 20 72 view .LVU759
.LBE325:
.LBE324:
.LBE323:
	.loc 1 266 5 discriminator 1 view .LVU760
	vcmpe.f32	s15, #0
	vmrs	APSR_nzcv, FPSCR
	ble	.L124
.LBB326:
	.loc 1 267 3 is_stmt 1 view .LVU761
	.loc 1 267 24 is_stmt 0 view .LVU762
	vsub.f32	s23, s20, s23
.LVL171:
	.loc 1 267 24 view .LVU763
	vsub.f32	s25, s25, s27
.LVL172:
.LBB327:
.LBB328:
.LBB329:
.LBB330:
	.loc 2 20 66 view .LVU764
	vmul.f32	s23, s23, s23
.LBE330:
.LBE329:
.LBE328:
.LBE327:
	.loc 1 267 24 view .LVU765
	vsub.f32	s24, s24, s26
.LVL173:
.LBB338:
.LBI327:
	.loc 2 23 14 is_stmt 1 view .LVU766
.LBB335:
	.loc 2 23 35 view .LVU767
.LBB333:
.LBI329:
	.loc 2 20 14 view .LVU768
.LBB331:
	.loc 2 20 43 view .LVU769
	.loc 2 20 60 is_stmt 0 view .LVU770
	vmla.f32	s23, s25, s25
.LBE331:
.LBE333:
.LBE335:
.LBE338:
.LBB339:
.LBB340:
.LBB341:
.LBB342:
	.loc 2 23 42 discriminator 1 view .LVU771
	vsqrt.f32	s13, s15
.LVL174:
	.loc 2 23 42 discriminator 1 view .LVU772
.LBE342:
.LBE341:
.LBE340:
.LBE339:
.LBB348:
.LBB336:
.LBB334:
.LBB332:
	.loc 2 20 72 view .LVU773
	vmla.f32	s23, s24, s24
.LBE332:
.LBE334:
.LBE336:
.LBE348:
.LBB349:
.LBB345:
	.loc 2 27 9 view .LVU774
	vdiv.f32	s12, s16, s13
.LBE345:
.LBE349:
	.loc 1 267 9 discriminator 2 view .LVU775
	vldr.32	s9, .L176+12
	.loc 1 269 14 view .LVU776
	vstr.32	s16, [sp, #8]
.LBB350:
.LBB337:
	.loc 2 23 42 discriminator 1 view .LVU777
	vsqrt.f32	s16, s23
.LVL175:
	.loc 2 23 42 discriminator 1 view .LVU778
.LBE337:
.LBE350:
	.loc 1 268 28 view .LVU779
	vldr.32	s14, .L176+16
.LVL176:
	.loc 1 267 9 discriminator 2 view .LVU780
	vmul.f32	s16, s16, s9
.LVL177:
	.loc 1 268 3 is_stmt 1 view .LVU781
	.loc 1 268 19 is_stmt 0 view .LVU782
	vldr.32	s15, [r5, #20]
	.loc 1 268 28 view .LVU783
	vmul.f32	s14, s16, s14
.LBB351:
.LBB346:
	.loc 2 27 9 view .LVU784
	vdiv.f32	s10, s18, s13
	vdiv.f32	s11, s17, s13
.LBE346:
.LBE351:
	.loc 1 268 19 view .LVU785
	vmla.f32	s15, s14, s19
	.loc 1 269 14 view .LVU786
	vstr.32	s18, [sp]
	vstr.32	s17, [sp, #4]
.LBB352:
.LBB353:
	.loc 2 18 50 view .LVU787
	vmul.f32	s18, s10, s16
.LVL178:
	.loc 2 18 50 view .LVU788
	vmul.f32	s17, s11, s16
.LVL179:
	.loc 2 18 50 view .LVU789
.LBE353:
.LBE352:
	.loc 1 268 19 view .LVU790
	vstr.32	s15, [r5, #20]
	.loc 1 269 3 is_stmt 1 view .LVU791
.LBB355:
.LBI339:
	.loc 2 25 15 view .LVU792
.LBB347:
	.loc 2 26 2 view .LVU793
.LBB344:
.LBI341:
	.loc 2 23 14 view .LVU794
.LBB343:
	.loc 2 23 35 view .LVU795
	.loc 2 23 35 is_stmt 0 view .LVU796
.LBE343:
.LBE344:
	.loc 2 27 2 is_stmt 1 view .LVU797
.LVL180:
	.loc 2 27 2 is_stmt 0 view .LVU798
.LBE347:
.LBE355:
.LBB356:
.LBI352:
	.loc 2 18 15 is_stmt 1 view .LVU799
.LBB354:
	.loc 2 18 43 view .LVU800
	.loc 2 18 50 is_stmt 0 view .LVU801
	vmul.f32	s16, s12, s16
.LVL181:
.L124:
	.loc 2 18 50 view .LVU802
.LBE354:
.LBE356:
.LBE326:
	.loc 1 272 2 is_stmt 1 view .LVU803
.LBB357:
.LBI357:
	.loc 1 134 21 view .LVU804
.LBB358:
	.loc 1 134 79 view .LVU805
	.loc 1 134 79 is_stmt 0 view .LVU806
.LBE358:
.LBE357:
	.loc 1 273 2 is_stmt 1 view .LVU807
.LBB360:
.LBI360:
	.loc 1 134 21 view .LVU808
.LBB361:
	.loc 1 134 79 view .LVU809
	.loc 1 134 79 is_stmt 0 view .LVU810
.LBE361:
.LBE360:
	.loc 1 274 2 is_stmt 1 view .LVU811
.LBB364:
.LBI364:
	.loc 1 134 21 view .LVU812
.LBB365:
	.loc 1 134 79 view .LVU813
.LBE365:
.LBE364:
.LBB368:
.LBB369:
	.loc 1 134 97 is_stmt 0 view .LVU814
	ldrd	r2, [r6, #28]
.LBE369:
.LBE368:
.LBB372:
.LBB366:
	add	r1, sp, #152
	add	r2, r1, r2, lsl #2
.LBE366:
.LBE372:
.LBB373:
.LBB370:
	add	r3, r1, r3, lsl #2
	vldr.32	s7, [r3, #-140]
.LBE370:
.LBE373:
.LBB374:
.LBB367:
	vldr.32	s14, [r2, #-140]
.LVL182:
	.loc 1 134 97 view .LVU815
.LBE367:
.LBE374:
	.loc 1 275 2 is_stmt 1 view .LVU816
.LBB375:
.LBI368:
	.loc 1 134 21 view .LVU817
.LBB371:
	.loc 1 134 79 view .LVU818
	.loc 1 134 79 is_stmt 0 view .LVU819
.LBE371:
.LBE375:
	.loc 1 277 2 is_stmt 1 view .LVU820
.LBB376:
.LBB362:
	.loc 1 134 97 is_stmt 0 view .LVU821
	ldrd	r2, [r6, #20]
.LBE362:
.LBE376:
.LBB377:
.LBB359:
	add	r2, r1, r2, lsl #2
.LBE359:
.LBE377:
.LBB378:
.LBB363:
	add	r3, r1, r3, lsl #2
.LBE363:
.LBE378:
	.loc 1 277 41 view .LVU822
	vldr.32	s15, .L176+20
	.loc 1 277 27 view .LVU823
	vldr.32	s13, [r3, #-140]
	.loc 1 278 30 view .LVU824
	vsub.f32	s14, s14, s7
.LVL183:
	.loc 1 277 27 view .LVU825
	vldr.32	s6, [r2, #-140]
	.loc 1 278 40 view .LVU826
	vmul.f32	s14, s14, s15
	.loc 1 277 27 view .LVU827
	vsub.f32	s6, s6, s13
	.loc 1 277 49 view .LVU828
	vldr.64	d4, .L179
	.loc 1 277 41 view .LVU829
	vmul.f32	s6, s6, s15
	.loc 1 278 8 view .LVU830
	vldr.32	s12, [r5, #12]
	.loc 1 278 40 view .LVU831
	vcvt.f64.f32	d7, s14
	.loc 1 277 65 view .LVU832
	vcvt.f64.f32	d5, s19
	.loc 1 278 48 view .LVU833
	vmul.f64	d7, d7, d4
	.loc 1 278 8 view .LVU834
	vcvt.f64.f32	d6, s12
	.loc 1 277 41 view .LVU835
	vcvt.f64.f32	d3, s6
	.loc 1 278 16 view .LVU836
	vmla.f64	d6, d7, d5
	.loc 1 277 8 view .LVU837
	vcvt.f64.f32	d0, s21
.LVL184:
	.loc 1 277 49 view .LVU838
	vmul.f64	d3, d3, d4
	.loc 1 278 16 view .LVU839
	vcvt.f32.f64	s12, d6
	.loc 1 277 14 view .LVU840
	vmla.f64	d0, d3, d5
	.loc 1 279 28 view .LVU841
	vcvt.f64.f32	d7, s12
	.loc 1 279 43 view .LVU842
	vldr.64	d5, .L179+8
	vcmpe.f64	d7, d5
	.loc 1 277 14 view .LVU843
	vcvt.f32.f64	s0, d0
	.loc 1 279 43 view .LVU844
	vmrs	APSR_nzcv, FPSCR
	.loc 1 277 14 view .LVU845
	vstr.32	s0, [r5, #16]
	.loc 1 278 2 is_stmt 1 view .LVU846
	.loc 1 279 2 view .LVU847
	.loc 1 279 43 is_stmt 0 view .LVU848
	ble	.L171
	.loc 1 279 43 discriminator 4 view .LVU849
	vldr.64	d5, .L179+16
	.loc 1 279 43 discriminator 6 view .LVU850
	vcmpe.f64	d7, d5
	vldr.32	s13, .L179+24
	vmrs	APSR_nzcv, FPSCR
	vmovpl.f32	s12, s13
.L126:
.LBB379:
.LBB380:
	.loc 1 134 97 view .LVU851
	ldrd	r2, [r6, #36]
.LBE380:
.LBE379:
.LBB383:
.LBB384:
	add	r1, sp, #152
	.loc 1 134 97 view .LVU852
	add	r2, r1, r2, lsl #2
.LBE384:
.LBE383:
	.loc 1 283 5 view .LVU853
	vldr.32	s15, [r2, #-140]
	vcmpe.f32	s15, #0
	vmrs	APSR_nzcv, FPSCR
.LBB386:
.LBB381:
	.loc 1 134 97 view .LVU854
	add	r3, r1, r3, lsl #2
	mov	r2, r1
.LBE381:
.LBE386:
	.loc 1 279 16 discriminator 12 view .LVU855
	vstr.32	s12, [r5, #12]
	.loc 1 281 2 is_stmt 1 view .LVU856
.LVL185:
.LBB387:
.LBI383:
	.loc 1 134 21 view .LVU857
.LBB385:
	.loc 1 134 79 view .LVU858
	.loc 1 134 79 is_stmt 0 view .LVU859
.LBE385:
.LBE387:
	.loc 1 282 2 is_stmt 1 view .LVU860
.LBB388:
.LBI379:
	.loc 1 134 21 view .LVU861
.LBB382:
	.loc 1 134 79 view .LVU862
	.loc 1 134 97 is_stmt 0 view .LVU863
	vldr.32	s21, [r3, #-140]
.LVL186:
	.loc 1 134 97 view .LVU864
.LBE382:
.LBE388:
	.loc 1 283 2 is_stmt 1 view .LVU865
	.loc 1 283 5 is_stmt 0 view .LVU866
	ble	.L128
	.loc 1 283 24 is_stmt 1 discriminator 1 view .LVU867
	mov	r1, r4
.LVL187:
	.loc 1 283 24 is_stmt 0 discriminator 1 view .LVU868
	mov	r0, r5
	bl	Player_PlaceBlock
.LVL188:
.L128:
	.loc 1 284 2 is_stmt 1 view .LVU869
	.loc 1 284 5 is_stmt 0 view .LVU870
	vcmpe.f32	s21, #0
	vmrs	APSR_nzcv, FPSCR
	ble	.L130
	.loc 1 284 24 is_stmt 1 discriminator 1 view .LVU871
	mov	r0, r5
	bl	Player_BreakBlock
.LVL189:
.L130:
	.loc 1 286 2 view .LVU872
	.loc 1 286 5 is_stmt 0 view .LVU873
	vcmpe.f32	s20, #0
	vmrs	APSR_nzcv, FPSCR
	bgt	.L174
	.loc 1 288 1 is_stmt 1 view .LVU874
.LVL190:
.LBB389:
.LBI389:
	.loc 1 135 19 view .LVU875
.LBB390:
	.loc 1 135 82 view .LVU876
.LBE390:
.LBE389:
	.loc 1 289 10 is_stmt 0 view .LVU877
	vldr.32	s15, [r6, #72]
	.loc 1 289 5 view .LVU878
	vcmpe.f32	s15, #0
	vmrs	APSR_nzcv, FPSCR
.LBB394:
.LBB391:
	.loc 1 135 102 view .LVU879
	ldr	r3, [r6, #44]
	add	r3, r3, #152
	add	r3, sp, r3
	ldrb	r3, [r3, #-48]	@ zero_extendqisi2
.LVL191:
	.loc 1 135 102 view .LVU880
.LBE391:
.LBE394:
	.loc 1 289 2 is_stmt 1 view .LVU881
	.loc 1 289 5 is_stmt 0 view .LVU882
	blt	.L135
	.loc 1 298 39 view .LVU883
	ldrb	r3, [r5, #35]	@ zero_extendqisi2
.LVL192:
	.loc 1 298 39 view .LVU884
	eor	r3, r3, #1
.LVL193:
.L137:
	.loc 1 291 3 is_stmt 1 view .LVU885
	.loc 1 291 18 is_stmt 0 view .LVU886
	vadd.f32	s15, s19, s15
	.loc 1 292 3 is_stmt 1 view .LVU887
	.loc 1 292 6 is_stmt 0 view .LVU888
	vldr.32	s14, .L179+28
	vcmpe.f32	s15, s14
	vmrs	APSR_nzcv, FPSCR
	.loc 1 291 18 view .LVU889
	vstrle.32	s15, [r6, #72]
	.loc 1 292 31 is_stmt 1 discriminator 1 view .LVU890
	.loc 1 292 46 is_stmt 0 discriminator 1 view .LVU891
	ldrgt	r2, .L179+40
	strgt	r2, [r6, #72]	@ float
.L140:
	.loc 1 297 1 is_stmt 1 view .LVU892
.LVL194:
.LBB395:
.LBI395:
	.loc 1 135 19 view .LVU893
.LBB396:
	.loc 1 135 82 view .LVU894
	.loc 1 135 82 is_stmt 0 view .LVU895
.LBE396:
.LBE395:
	.loc 1 298 2 is_stmt 1 view .LVU896
.LBB399:
.LBB397:
	.loc 1 135 102 is_stmt 0 view .LVU897
	ldr	r2, [r6, #60]
.LBE397:
.LBE399:
.LBB400:
.LBB401:
	.loc 1 136 103 view .LVU898
	ldr	r1, [r6, #48]
.LBE401:
.LBE400:
.LBB405:
.LBB398:
	.loc 1 135 102 view .LVU899
	add	r2, r2, #152
	add	r2, sp, r2
.LBE398:
.LBE405:
	.loc 1 298 39 discriminator 1 view .LVU900
	ldrb	r2, [r2, #-48]	@ zero_extendqisi2
.LBB406:
.LBB402:
	.loc 1 136 103 view .LVU901
	add	r1, r1, #152
.LBE402:
.LBE406:
	.loc 1 298 39 discriminator 1 view .LVU902
	and	r3, r3, r2
	.loc 1 298 20 discriminator 6 view .LVU903
	ldrb	r2, [r5, #36]	@ zero_extendqisi2
.LBB407:
.LBB403:
	.loc 1 136 103 view .LVU904
	add	r1, sp, r1
.LBE403:
.LBE407:
	.loc 1 298 20 discriminator 6 view .LVU905
	eor	r3, r3, r2
.LBB408:
.LBB409:
	.loc 1 136 103 view .LVU906
	ldr	r2, [r6, #52]
.LBE409:
.LBE408:
	.loc 1 302 5 view .LVU907
	ldrb	r1, [r1, #-25]	@ zero_extendqisi2
.LBB413:
.LBB410:
	.loc 1 136 103 view .LVU908
	add	r2, r2, #152
	add	r2, sp, r2
.LBE410:
.LBE413:
	.loc 1 302 5 view .LVU909
	cmp	r1, #0
.LBB414:
.LBB411:
	.loc 1 136 103 view .LVU910
	ldrb	r2, [r2, #-25]	@ zero_extendqisi2
.LBE411:
.LBE414:
	.loc 1 298 20 discriminator 6 view .LVU911
	strb	r3, [r5, #36]
	.loc 1 300 1 is_stmt 1 view .LVU912
.LVL195:
.LBB415:
.LBI400:
	.loc 1 136 19 view .LVU913
.LBB404:
	.loc 1 136 81 view .LVU914
	.loc 1 136 81 is_stmt 0 view .LVU915
.LBE404:
.LBE415:
	.loc 1 301 1 is_stmt 1 view .LVU916
.LBB416:
.LBI408:
	.loc 1 136 19 view .LVU917
.LBB412:
	.loc 1 136 81 view .LVU918
	.loc 1 136 81 is_stmt 0 view .LVU919
.LBE412:
.LBE416:
	.loc 1 302 2 is_stmt 1 view .LVU920
	.loc 1 302 5 is_stmt 0 view .LVU921
	beq	.L143
	.loc 1 302 25 discriminator 1 view .LVU922
	ldr	r3, [r5, #136]
	sub	r3, r3, #1
	.loc 1 302 22 discriminator 1 view .LVU923
	cmn	r3, #1
	str	r3, [r5, #136]
	.loc 1 302 61 is_stmt 1 discriminator 2 view .LVU924
	.loc 1 302 118 is_stmt 0 discriminator 2 view .LVU925
	ldreq	r3, [r5, #132]
	subeq	r3, r3, #1
	.loc 1 302 88 discriminator 2 view .LVU926
	streq	r3, [r5, #136]
.L143:
	.loc 1 303 2 is_stmt 1 view .LVU927
	.loc 1 303 5 is_stmt 0 view .LVU928
	cmp	r2, #0
	beq	.L146
	.loc 1 303 23 discriminator 1 view .LVU929
	ldrd	r2, [r5, #132]
.LVL196:
	.loc 1 303 26 discriminator 1 view .LVU930
	add	r3, r3, #1
	.loc 1 303 23 discriminator 1 view .LVU931
	cmp	r3, r2
	str	r3, [r5, #136]
	.loc 1 303 87 is_stmt 1 discriminator 2 view .LVU932
	.loc 1 303 114 is_stmt 0 discriminator 2 view .LVU933
	moveq	r3, #0
	streq	r3, [r5, #136]
.L146:
	.loc 1 305 2 is_stmt 1 view .LVU934
	.loc 1 305 5 is_stmt 0 view .LVU935
	ldrb	r3, [r6, #68]	@ zero_extendqisi2
	cmp	r3, #0
	.loc 1 306 3 is_stmt 1 view .LVU936
.LVL197:
	.loc 1 307 3 view .LVU937
	.loc 1 307 19 is_stmt 0 view .LVU938
	movne	r3, #0
	strbne	r3, [r6, #68]
.LBB417:
.LBB418:
	.loc 1 136 103 view .LVU939
	ldr	r3, [r6, #56]
.LBE418:
.LBE417:
	.loc 1 306 6 view .LVU940
	vldrne.32	s19, .L179+32
.LVL198:
	.loc 1 310 2 is_stmt 1 view .LVU941
.LBB421:
.LBI417:
	.loc 1 136 19 view .LVU942
.LBB419:
	.loc 1 136 81 view .LVU943
	.loc 1 136 81 is_stmt 0 view .LVU944
.LBE419:
.LBE421:
	.loc 1 311 2 is_stmt 1 view .LVU945
.LBB422:
.LBB420:
	.loc 1 136 103 is_stmt 0 view .LVU946
	add	r3, r3, #152
.LVL199:
	.loc 1 136 103 view .LVU947
	add	r3, sp, r3
.LBE420:
.LBE422:
	.loc 1 311 5 view .LVU948
	ldrb	r3, [r3, #-25]	@ zero_extendqisi2
	cmp	r3, #0
	bne	.L175
.LVL200:
.L149:
	.loc 1 316 2 is_stmt 1 view .LVU949
	mov	r0, r5
	vmov.f32	s1, s18
	vmov.f32	s2, s17
	vmov.f32	s3, s16
	vmov.f32	s0, s19
	bl	Player_Move
.LVL201:
	.loc 1 317 2 view .LVU950
	mov	r2, #0
	mov	r1, r4
	mov	r0, r5
	.loc 1 318 1 is_stmt 0 view .LVU951
	add	sp, sp, #152
	.cfi_remember_state
	.cfi_def_cfa_offset 88
	@ sp needed
	vldm	sp!, {d8-d13}
	.cfi_restore 90
	.cfi_restore 91
	.cfi_restore 88
	.cfi_restore 89
	.cfi_restore 86
	.cfi_restore 87
	.cfi_restore 84
	.cfi_restore 85
	.cfi_restore 82
	.cfi_restore 83
	.cfi_restore 80
	.cfi_restore 81
	.cfi_def_cfa_offset 40
.LVL202:
	.loc 1 318 1 view .LVU952
	pop	{r4, r5, r6, r7, r8, r9, r10, lr}
	.cfi_restore 14
	.cfi_restore 10
	.cfi_restore 9
	.cfi_restore 8
	.cfi_restore 7
	.cfi_restore 6
	.cfi_restore 5
	.cfi_restore 4
	.cfi_def_cfa_offset 8
.LVL203:
	.loc 1 318 1 view .LVU953
	add	sp, sp, #8
	.cfi_def_cfa_offset 0
	.loc 1 317 2 view .LVU954
	b	Player_Update
.LVL204:
.L171:
	.cfi_restore_state
	.loc 1 279 43 discriminator 8 view .LVU955
	vldr.32	s12, .L179+36
	b	.L126
.LVL205:
.L135:
	.loc 1 293 9 is_stmt 1 view .LVU956
	.loc 1 294 3 view .LVU957
	.loc 1 293 12 is_stmt 0 view .LVU958
	cmp	r3, #0
	.loc 1 294 18 view .LVU959
	movne	r2, #0
	.loc 1 298 39 view .LVU960
	ldrbne	r3, [r5, #35]	@ zero_extendqisi2
.LVL206:
	.loc 1 298 39 view .LVU961
	ldrbeq	r3, [r5, #35]	@ zero_extendqisi2
	eorne	r3, r3, #1
	eoreq	r3, r3, #1
	.loc 1 294 18 view .LVU962
	strne	r2, [r6, #72]	@ float
	b	.L140
.LVL207:
.L174:
	.loc 1 286 18 is_stmt 1 discriminator 1 view .LVU963
	vmov.f32	s0, s18
	vmov.f32	s1, s17
	vmov.f32	s2, s16
	mov	r0, r5
	vstr.32	s18, [sp]
	vstr.32	s17, [sp, #4]
	vstr.32	s16, [sp, #8]
	bl	Player_Jump
.LVL208:
	.loc 1 288 1 view .LVU964
.LBB423:
	.loc 1 135 19 view .LVU965
.LBB392:
	.loc 1 135 82 view .LVU966
.LBE392:
.LBE423:
	.loc 1 289 10 is_stmt 0 view .LVU967
	vldr.32	s15, [r6, #72]
	.loc 1 289 5 view .LVU968
	vcmpe.f32	s15, #0
	vmrs	APSR_nzcv, FPSCR
.LBB424:
.LBB393:
	.loc 1 135 102 view .LVU969
	ldr	r3, [r6, #44]
	add	r3, r3, #152
	add	r3, sp, r3
	ldrb	r3, [r3, #-48]	@ zero_extendqisi2
.LVL209:
	.loc 1 135 102 view .LVU970
.LBE393:
.LBE424:
	.loc 1 289 2 is_stmt 1 view .LVU971
	.loc 1 289 5 is_stmt 0 view .LVU972
	blt	.L135
	.loc 1 290 3 is_stmt 1 view .LVU973
	.loc 1 290 19 discriminator 1 view .LVU974
	.loc 1 290 25 is_stmt 0 discriminator 1 view .LVU975
	ldrb	r3, [r5, #35]	@ zero_extendqisi2
.LVL210:
	.loc 1 290 34 discriminator 1 view .LVU976
	eor	r2, r3, #1
	strb	r2, [r5, #35]
	b	.L137
.LVL211:
.L175:
	.loc 1 312 3 is_stmt 1 view .LVU977
	mov	r1, r5
	ldr	r0, [r5, #40]
	bl	CommandLine_Activate
.LVL212:
	.loc 1 313 3 view .LVU978
	.loc 1 313 19 is_stmt 0 view .LVU979
	mov	r3, #1
	strb	r3, [r6, #68]
	b	.L149
.L180:
	.align	3
.L179:
	.word	-1571644103
	.word	1066524486
	.word	1059675009
	.word	-1074193707
	.word	1059675009
	.word	1073289941
	.word	1070126762
	.word	1048576000
	.word	0
	.word	-1077356886
	.word	-1082130432
	.cfi_endproc
.LFE153:
	.size	PlayerController_Update, .-PlayerController_Update
	.global	n3ds_default_scheme
	.global	platform_default_scheme
	.global	platform_key_names
	.section	.rodata.str1.4
	.align	2
.LC42:
	.ascii	"Not Set\000"
	.align	2
.LC43:
	.ascii	"A\000"
	.align	2
.LC44:
	.ascii	"B\000"
	.align	2
.LC45:
	.ascii	"X\000"
	.align	2
.LC46:
	.ascii	"Y\000"
	.align	2
.LC47:
	.ascii	"L\000"
	.align	2
.LC48:
	.ascii	"R\000"
	.align	2
.LC49:
	.ascii	"Start\000"
	.align	2
.LC50:
	.ascii	"Select\000"
	.align	2
.LC51:
	.ascii	"DUp\000"
	.align	2
.LC52:
	.ascii	"DDown\000"
	.align	2
.LC53:
	.ascii	"DLeft\000"
	.align	2
.LC54:
	.ascii	"DRight\000"
	.align	2
.LC55:
	.ascii	"CircUp\000"
	.align	2
.LC56:
	.ascii	"CircDown\000"
	.align	2
.LC57:
	.ascii	"CircLeft\000"
	.align	2
.LC58:
	.ascii	"CircRight\000"
	.align	2
.LC59:
	.ascii	"CStickUp\000"
	.align	2
.LC60:
	.ascii	"CStickDown\000"
	.align	2
.LC61:
	.ascii	"CStickLeft\000"
	.align	2
.LC62:
	.ascii	"CStickRight\000"
	.align	2
.LC63:
	.ascii	"ZL\000"
	.align	2
.LC64:
	.ascii	"ZR\000"
	.section	.rodata
	.align	2
	.set	.LANCHOR0,. + 0
	.type	n3ds_default_scheme, %object
	.size	n3ds_default_scheme, 60
n3ds_default_scheme:
	.word	13
	.word	14
	.word	15
	.word	16
	.word	19
	.word	20
	.word	17
	.word	18
	.word	21
	.word	22
	.word	1
	.word	1
	.word	1
	.word	8
	.word	1
	.type	platform_default_scheme, %object
	.size	platform_default_scheme, 60
platform_default_scheme:
	.word	13
	.word	14
	.word	15
	.word	16
	.word	4
	.word	1
	.word	3
	.word	2
	.word	5
	.word	6
	.word	9
	.word	11
	.word	12
	.word	8
	.word	10
	.data
	.align	2
	.set	.LANCHOR1,. + 0
	.type	platform_key_names, %object
	.size	platform_key_names, 92
platform_key_names:
	.word	.LC42
	.word	.LC43
	.word	.LC44
	.word	.LC45
	.word	.LC46
	.word	.LC47
	.word	.LC48
	.word	.LC49
	.word	.LC50
	.word	.LC51
	.word	.LC52
	.word	.LC53
	.word	.LC54
	.word	.LC55
	.word	.LC56
	.word	.LC57
	.word	.LC58
	.word	.LC59
	.word	.LC60
	.word	.LC61
	.word	.LC62
	.word	.LC63
	.word	.LC64
	.text
.Letext0:
	.file 3 "C:/devkitPro/devkitARM/arm-none-eabi/include/machine/_default_types.h"
	.file 4 "C:/devkitPro/devkitARM/arm-none-eabi/include/sys/_stdint.h"
	.file 5 "C:/Users/Elias/CLionProjects/3DSCraft/include/world/Direction.h"
	.file 6 "C:/Users/Elias/CLionProjects/3DSCraft/include/blocks/Block.h"
	.file 7 "C:/Users/Elias/CLionProjects/3DSCraft/include/misc/Xorshift.h"
	.file 8 "C:/devkitPro/devkitARM/lib/gcc/arm-none-eabi/13.2.0/include/stddef.h"
	.file 9 "C:/devkitPro/devkitARM/arm-none-eabi/include/machine/_types.h"
	.file 10 "C:/devkitPro/devkitARM/arm-none-eabi/include/sys/_types.h"
	.file 11 "C:/devkitPro/devkitARM/arm-none-eabi/include/sys/reent.h"
	.file 12 "C:/devkitPro/devkitARM/arm-none-eabi/include/sys/lock.h"
	.file 13 "C:/devkitPro/devkitARM/arm-none-eabi/include/stdio.h"
	.file 14 "C:/Users/Elias/CLionProjects/3DSCraft/include/rendering/VBOCache.h"
	.file 15 "C:/Users/Elias/CLionProjects/3DSCraft/include/world/Chunk.h"
	.file 16 "C:/devkitPro/libctru/include/3ds/types.h"
	.file 17 "C:/devkitPro/libctru/include/3ds/synchronization.h"
	.file 18 "C:/devkitPro/libctru/include/3ds/thread.h"
	.file 19 "C:/devkitPro/libctru/include/3ds/services/csnd.h"
	.file 20 "C:/devkitPro/libctru/include/3ds/services/hid.h"
	.file 21 "C:/devkitPro/libctru/include/3ds/services/ndm.h"
	.file 22 "C:/devkitPro/libctru/include/3ds/gpu/enums.h"
	.file 23 "C:/devkitPro/libctru/include/3ds/ndsp/channel.h"
	.file 24 "C:/devkitPro/libctru/include/3ds/applets/error.h"
	.file 25 "C:/Users/Elias/CLionProjects/3DSCraft/include/world/WorkQueue.h"
	.file 26 "C:/Users/Elias/CLionProjects/3DSCraft/include/world/World.h"
	.file 27 "C:/Users/Elias/CLionProjects/3DSCraft/include/blocks/Item.h"
	.file 28 "C:/Users/Elias/CLionProjects/3DSCraft/include/inventory/ItemStack.h"
	.file 29 "C:/Users/Elias/CLionProjects/3DSCraft/include/entity/Damage.h"
	.file 30 "C:/Users/Elias/CLionProjects/3DSCraft/include/misc/Raycast.h"
	.file 31 "C:/devkitPro/portlibs/3ds/include/opus/opusfile.h"
	.file 32 "C:/Users/Elias/CLionProjects/3DSCraft/include/misc/Sound.h"
	.file 33 "C:/Users/Elias/CLionProjects/3DSCraft/include/entity/Player.h"
	.file 34 "C:/Users/Elias/CLionProjects/3DSCraft/include/misc/InputData.h"
	.file 35 "C:/Users/Elias/CLionProjects/3DSCraft/include/entity/PlayerController.h"
	.file 36 "C:/Users/Elias/CLionProjects/3DSCraft/dependencies/ini/ini.h"
	.file 37 "C:/Users/Elias/CLionProjects/3DSCraft/include/misc/CommandLine.h"
	.file 38 "C:/devkitPro/devkitARM/arm-none-eabi/include/math.h"
	.file 39 "C:/devkitPro/devkitARM/arm-none-eabi/include/string.h"
	.file 40 "C:/devkitPro/devkitARM/arm-none-eabi/include/sys/unistd.h"
	.file 41 "C:/devkitPro/libctru/include/3ds/services/apt.h"
	.file 42 "<built-in>"