	.arch armv6k
	.fpu vfp
	.eabi_attribute 28, 1
	.eabi_attribute 20, 1
	.eabi_attribute 21, 1
	.eabi_attribute 23, 3
	.eabi_attribute 24, 1
	.eabi_attribute 25, 1
	.eabi_attribute 26, 1
	.eabi_attribute 30, 2
	.eabi_attribute 34, 1
	.eabi_attribute 18, 4
	.file	"Player.c"
	.text
.Ltext0:
	.cfi_sections	.debug_frame
	.file 1 "C:/Users/Elias/CLionProjects/3DSCraft/source/entity/Player.c"
	.section	.text.Player_Init,"ax",%progbits
	.align	2
	.global	Player_Init
	.syntax unified
	.arm
	.type	Player_Init, %function
Player_Init:
.LVL0:
.LFB150:
	.loc 1 7 48 view -0
	.cfi_startproc
	@ args = 0, pretend = 0, frame = 0
	@ frame_needed = 0, uses_anonymous_args = 0
	.loc 1 8 2 view .LVU1
	.loc 1 8 21 is_stmt 0 view .LVU2
	mov	r3, #0
	.loc 1 7 48 view .LVU3
	push	{r4, r5, r6, r7, r8, r9, lr}
	.cfi_def_cfa_offset 28
	.cfi_offset 4, -28
	.cfi_offset 5, -24
	.cfi_offset 6, -20
	.cfi_offset 7, -16
	.cfi_offset 8, -12
	.cfi_offset 9, -8
	.cfi_offset 14, -4
	.loc 1 14 19 view .LVU4
	mov	r2, #0
	.loc 1 18 20 view .LVU5
	mov	ip, #1
	.loc 1 24 17 view .LVU6
	vldr.32	s15, .L8
	.loc 1 37 30 view .LVU7
	mov	r9, #9
	.loc 1 8 21 view .LVU8
	str	r3, [r0]	@ float
	str	r3, [r0, #4]	@ float
	str	r3, [r0, #8]	@ float
	.loc 1 10 2 is_stmt 1 view .LVU9
	.loc 1 10 18 is_stmt 0 view .LVU10
	str	r3, [r0, #20]	@ float
	.loc 1 11 2 is_stmt 1 view .LVU11
	.loc 1 11 16 is_stmt 0 view .LVU12
	str	r3, [r0, #12]	@ float
	.loc 1 12 2 is_stmt 1 view .LVU13
	.loc 1 12 14 is_stmt 0 view .LVU14
	str	r3, [r0, #16]	@ float
	.loc 1 14 2 is_stmt 1 view .LVU15
	.loc 1 20 17 is_stmt 0 view .LVU16
	str	r3, [r0, #24]	@ float
	.loc 1 21 20 view .LVU17
	str	r3, [r0, #28]	@ float
	.loc 1 24 17 view .LVU18
	str	r3, [r0, #44]	@ float
	str	r3, [r0, #48]	@ float
	.loc 1 32 21 view .LVU19
	str	r3, [r0, #60]	@ float
	str	r3, [r0, #64]	@ float
	str	r3, [r0, #68]	@ float
	.loc 1 33 23 view .LVU20
	str	r3, [r0, #72]	@ float
	.loc 1 35 28 view .LVU21
	str	r3, [r0, #76]	@ float
.LBB113:
.LBB114:
.LBB115:
	.loc 1 53 55 discriminator 3 view .LVU22
	mov	lr, #13
.LBE115:
.LBE114:
	.loc 1 52 26 view .LVU23
	mov	r3, r0
.LBE113:
	.loc 1 16 16 view .LVU24
	str	r1, [r0, #40]
.LBB124:
	.loc 1 42 26 view .LVU25
	ldr	r8, .L8+4
	ldr	r1, .L8+8
.LVL1:
	.loc 1 42 26 view .LVU26
	ldr	r7, .L8+12
	ldr	r6, .L8+16
	ldr	r5, .L8+20
	ldr	r4, .L8+24
.LBE124:
	.loc 1 24 17 view .LVU27
	vstr.32	s15, [r0, #52]
	.loc 1 37 30 view .LVU28
	str	r9, [r0, #132]
.LBB125:
	.loc 1 42 26 view .LVU29
	str	r8, [r0, #194]	@ unaligned
	str	r7, [r0, #198]	@ unaligned
	str	r6, [r0, #202]	@ unaligned
	str	r5, [r0, #206]	@ unaligned
	str	r4, [r0, #210]	@ unaligned
.LBE125:
	.loc 1 14 19 view .LVU30
	strb	r2, [r0, #32]
	.loc 1 15 2 is_stmt 1 view .LVU31
	.loc 1 16 2 view .LVU32
	.loc 1 17 2 view .LVU33
	.loc 1 17 18 is_stmt 0 view .LVU34
	str	r2, [r0, #124]
	.loc 1 18 2 is_stmt 1 view .LVU35
	.loc 1 18 20 is_stmt 0 view .LVU36
	str	ip, [r0, #100]
	.loc 1 20 2 is_stmt 1 view .LVU37
	.loc 1 21 2 view .LVU38
	.loc 1 22 2 view .LVU39
	.loc 1 22 21 is_stmt 0 view .LVU40
	str	r2, [r0, #80]
	.loc 1 24 2 is_stmt 1 view .LVU41
	.loc 1 26 2 view .LVU42
	.loc 1 26 20 is_stmt 0 view .LVU43
	strb	r2, [r0, #36]
	.loc 1 27 2 is_stmt 1 view .LVU44
	.loc 1 15 20 is_stmt 0 view .LVU45
	strh	r2, [r0, #34]	@ movhi
	.loc 1 29 2 is_stmt 1 view .LVU46
	.loc 1 30 2 view .LVU47
	.loc 1 29 23 is_stmt 0 view .LVU48
	strh	r2, [r0, #192]	@ movhi
	.loc 1 32 2 is_stmt 1 view .LVU49
	.loc 1 33 2 view .LVU50
	.loc 1 35 2 view .LVU51
	.loc 1 37 2 view .LVU52
	.loc 1 38 2 view .LVU53
	.loc 1 38 29 is_stmt 0 view .LVU54
	str	r2, [r0, #136]
	.loc 1 39 2 is_stmt 1 view .LVU55
	.loc 1 39 24 is_stmt 0 view .LVU56
	str	ip, [r0, #140]
.LBB126:
	.loc 1 41 3 is_stmt 1 view .LVU57
.LVL2:
	.loc 1 42 3 view .LVU58
	.loc 1 43 3 view .LVU59
	.loc 1 44 3 view .LVU60
	.loc 1 45 3 view .LVU61
	.loc 1 46 3 view .LVU62
	.loc 1 47 3 view .LVU63
	.loc 1 48 3 view .LVU64
	.loc 1 49 3 view .LVU65
	.loc 1 50 3 view .LVU66
	.loc 1 51 3 view .LVU67
	.loc 1 52 3 view .LVU68
	.loc 1 42 26 is_stmt 0 view .LVU69
	str	r1, [r0, #214]	@ unaligned
	ldr	r1, .L8+28
	.loc 1 52 26 view .LVU70
	strb	ip, [r0, #226]
	.loc 1 53 3 is_stmt 1 view .LVU71
.LBB118:
	.loc 1 53 8 view .LVU72
.LVL3:
	.loc 1 53 21 discriminator 1 view .LVU73
.LBE118:
	.loc 1 42 26 is_stmt 0 view .LVU74
	str	r1, [r0, #218]	@ unaligned
	ldr	r1, .L8+32
	str	r1, [r0, #222]	@ unaligned
.LVL4:
.L2:
.LBB119:
.LBB116:
	.loc 1 53 32 is_stmt 1 discriminator 3 view .LVU75
	.loc 1 53 55 is_stmt 0 discriminator 3 view .LVU76
	strb	r2, [r3, #228]
.LBE116:
	.loc 1 53 28 discriminator 3 view .LVU77
	add	r2, r2, #1
.LVL5:
	.loc 1 53 21 discriminator 1 view .LVU78
	cmp	r2, #16
.LBB117:
	.loc 1 53 55 discriminator 3 view .LVU79
	strb	lr, [r3, #227]
	strb	ip, [r3, #229]
.LBE117:
	.loc 1 53 28 is_stmt 1 discriminator 3 view .LVU80
.LVL6:
	.loc 1 53 21 discriminator 1 view .LVU81
	add	r3, r3, #3
	bne	.L2
.LBE119:
	.loc 1 54 3 view .LVU82
.LVL7:
	.loc 1 55 3 view .LVU83
	.loc 1 56 3 view .LVU84
	.loc 1 57 3 view .LVU85
	.loc 1 58 3 view .LVU86
	.loc 1 59 3 view .LVU87
	.loc 1 60 3 view .LVU88
	.loc 1 61 3 view .LVU89
	.loc 1 62 3 view .LVU90
	.loc 1 63 3 view .LVU91
	.loc 1 64 3 view .LVU92
	.loc 1 65 3 view .LVU93
	.loc 1 66 3 view .LVU94
	.loc 1 67 3 view .LVU95
	.loc 1 68 3 view .LVU96
	.loc 1 69 3 view .LVU97
	.loc 1 70 3 view .LVU98
	.loc 1 71 3 view .LVU99
	.loc 1 72 3 view .LVU100
	.loc 1 73 3 view .LVU101
	.loc 1 74 3 view .LVU102
	.loc 1 75 3 view .LVU103
	.loc 1 76 3 view .LVU104
	.loc 1 77 3 view .LVU105
	.loc 1 78 3 view .LVU106
	.loc 1 79 3 view .LVU107
	.loc 1 79 26 is_stmt 0 view .LVU108
	mov	r1, #256
.LBB120:
.LBB121:
	.loc 1 82 57 discriminator 3 view .LVU109
	mov	r2, #0
.LVL8:
	.loc 1 82 57 discriminator 3 view .LVU110
.LBE121:
.LBE120:
	.loc 1 54 26 view .LVU111
	ldr	ip, .L8+36
	ldr	r3, .L8+40
	str	ip, [r0, #275]	@ unaligned
	ldr	ip, .L8+44
	str	r3, [r0, #279]	@ unaligned
	ldr	r3, .L8+48
	str	ip, [r0, #283]	@ unaligned
	ldr	ip, .L8+52
	str	r3, [r0, #287]	@ unaligned
	ldr	r3, .L8+56
	str	ip, [r0, #291]	@ unaligned
	ldr	ip, .L8+60
	str	r3, [r0, #295]	@ unaligned
	ldr	r3, .L8+64
	str	ip, [r0, #299]	@ unaligned
	ldr	ip, .L8+68
	str	r3, [r0, #303]	@ unaligned
	ldr	r3, .L8+72
	str	ip, [r0, #307]	@ unaligned
	ldr	ip, .L8+76
	str	r3, [r0, #311]	@ unaligned
	ldr	r3, .L8+80
	str	ip, [r0, #315]	@ unaligned
	ldr	ip, .L8+84
	str	r3, [r0, #319]	@ unaligned
	ldr	r3, .L8+88
	str	ip, [r0, #323]	@ unaligned
	ldr	ip, .L8+92
	str	r3, [r0, #327]	@ unaligned
	ldr	r3, .L8+96
	str	ip, [r0, #331]	@ unaligned
	ldr	ip, .L8+100
	str	r3, [r0, #335]	@ unaligned
	ldr	r3, .L8+104
	str	ip, [r0, #339]	@ unaligned
	ldr	ip, .L8+108
	str	r3, [r0, #343]	@ unaligned
	.loc 1 79 26 view .LVU112
	add	r3, r0, #348
	.loc 1 54 26 view .LVU113
	str	ip, [r0, #347]	@ unaligned
	.loc 1 79 26 view .LVU114
	strh	r1, [r3, #3]	@ unaligned
	.loc 1 82 3 is_stmt 1 view .LVU115
.LBB123:
	.loc 1 82 8 view .LVU116
.LVL9:
	.loc 1 82 21 discriminator 1 view .LVU117
	add	r3, r0, #144
	add	r1, r0, #171
.LVL10:
.L3:
.LBB122:
	.loc 1 82 31 discriminator 3 view .LVU118
	.loc 1 82 57 is_stmt 0 discriminator 3 view .LVU119
	strh	r2, [r3]	@ unaligned
	strb	r2, [r3, #2]
.LBE122:
	.loc 1 82 27 is_stmt 1 discriminator 3 view .LVU120
	.loc 1 82 21 discriminator 1 view .LVU121
	add	r3, r3, #3
	cmp	r3, r1
	bne	.L3
.LBE123:
.LBE126:
	.loc 1 84 2 view .LVU122
	.loc 1 86 2 view .LVU123
	.loc 1 86 26 is_stmt 0 view .LVU124
	mov	r3, #1
	strb	r3, [r0, #56]
	.loc 1 87 1 view .LVU125
	pop	{r4, r5, r6, r7, r8, r9, pc}
.L9:
	.align	2
.L8:
	.word	-1082130432
	.word	33619969
	.word	16779521
	.word	196864
	.word	16778241
	.word	100728837
	.word	524544
	.word	184614922
	.word	786688
	.word	117506062
	.word	983296
	.word	16781313
	.word	302055441
	.word	1245440
	.word	16782337
	.word	369164309
	.word	1507584
	.word	16783361
	.word	453050393
	.word	1704192
	.word	16786433
	.word	587268124
	.word	1900800
	.word	16785665
	.word	570490911
	.word	1966336
	.word	16786689
	.word	637599776
	.cfi_endproc
.LFE150:
	.size	Player_Init, .-Player_Init
	.section	.rodata.str1.4,"aMS",%progbits,1
	.align	2
.LC38:
	.ascii	"ur burning lol\000"
	.align	2
.LC39:
	.ascii	"Fire\000"
	.align	2
.LC40:
	.ascii	"Player died\000"
	.align	2
.LC41:
	.ascii	"Died by %s\000"
	.align	2
.LC42:
	.ascii	"lol ur world is gone\000"
	.section	.text.Player_Update,"ax",%progbits
	.align	2
	.global	Player_Update
	.syntax unified
	.arm
	.type	Player_Update, %function
Player_Update:
.LVL11:
.LFB151:
	.loc 1 89 63 is_stmt 1 view -0
	.cfi_startproc
	@ args = 0, pretend = 0, frame = 16
	@ frame_needed = 0, uses_anonymous_args = 0
	.loc 1 90 2 view .LVU127
	.loc 1 89 63 is_stmt 0 view .LVU128
	push	{r4, r5, r6, r7, lr}
	.cfi_def_cfa_offset 20
	.cfi_offset 4, -20
	.cfi_offset 5, -16
	.cfi_offset 6, -12
	.cfi_offset 7, -8
	.cfi_offset 14, -4
	vpush.64	{d8, d9}
	.cfi_def_cfa_offset 36
	.cfi_offset 80, -36
	.cfi_offset 81, -32
	.cfi_offset 82, -28
	.cfi_offset 83, -24
	.loc 1 90 25 view .LVU129
	vldr.32	s19, [r0, #16]
	.loc 1 89 63 view .LVU130
	mov	r4, r0
	sub	sp, sp, #20
	.cfi_def_cfa_offset 56
	.loc 1 90 25 view .LVU131
	vmov.f32	s0, s19
	.loc 1 89 63 view .LVU132
	mov	r6, r2
	.loc 1 90 25 view .LVU133
	bl	sinf
.LVL12:
	.loc 1 90 45 discriminator 1 view .LVU134
	vldr.32	s17, [r4, #12]
	.loc 1 90 25 view .LVU135
	vmov.f32	s16, s0
	.loc 1 90 45 discriminator 1 view .LVU136
	vmov.f32	s0, s17
	bl	cosf
.LVL13:
	vmov.f32	s18, s0
	.loc 1 90 17 discriminator 2 view .LVU137
	vmov.f32	s0, s17
	bl	sinf
.LVL14:
	vmov.f32	s17, s0
	.loc 1 90 88 discriminator 3 view .LVU138
	vmov.f32	s0, s19
	bl	cosf
.LVL15:
	.loc 1 91 24 view .LVU139
	vldr.32	s15, .L48+8
	vldr.32	s1, [r4, #4]
	.loc 1 90 17 discriminator 5 view .LVU140
	vnmul.f32	s5, s0, s18
	.loc 1 90 17 discriminator 2 view .LVU141
	vnmul.f32	s3, s16, s18
	.loc 1 91 24 view .LVU142
	vldr.32	s2, [r4, #8]
	vadd.f32	s1, s1, s15
	vldr.32	s0, [r4]
	.loc 1 90 17 discriminator 5 view .LVU143
	vstr.32	s17, [r4, #48]
	.loc 1 91 24 discriminator 1 view .LVU144
	vmov.f32	s4, s17
	.loc 1 90 17 discriminator 5 view .LVU145
	vstr.32	s3, [r4, #44]
	vstr.32	s5, [r4, #52]
	.loc 1 91 2 is_stmt 1 view .LVU146
.LVL16:
.LBB127:
.LBI127:
	.file 2 "C:/Users/Elias/CLionProjects/3DSCraft/include/misc/VecMath.h"
	.loc 2 14 15 view .LVU147
	.loc 2 14 51 view .LVU148
.LBE127:
	.loc 1 91 24 is_stmt 0 discriminator 1 view .LVU149
	ldr	r0, [r4, #40]
	add	r1, r4, #172
	vstr.32	s2, [sp, #12]
.LVL17:
	.loc 1 91 24 discriminator 1 view .LVU150
	vstr.32	s0, [sp, #4]
	vstr.32	s1, [sp, #8]
	bl	Raycast_Cast
.LVL18:
	.loc 1 92 52 view .LVU151
	subs	r3, r0, #0
	.loc 1 91 23 discriminator 2 view .LVU152
	strb	r0, [r4, #192]
	.loc 1 92 2 is_stmt 1 view .LVU153
	.loc 1 92 52 is_stmt 0 view .LVU154
	beq	.L11
	.loc 1 92 52 discriminator 1 view .LVU155
	vldr.32	s14, [r4, #184]
	vldr.32	s15, .L48+12
	vcmpe.f32	s14, s15
	vmrs	APSR_nzcv, FPSCR
	movmi	r3, #1
	movpl	r3, #0
.L11:
	.loc 1 95 23 view .LVU156
	vldr.32	s0, [r4, #64]
	.loc 1 95 6 view .LVU157
	vldr.32	s15, .L48+16
	vcmpe.f32	s0, s15
	vmrs	APSR_nzcv, FPSCR
	.loc 1 98 52 view .LVU158
	vldr.32	s17, [r4]
	.loc 1 98 71 view .LVU159
	vldr.32	s16, [r4, #4]
	.loc 1 98 92 view .LVU160
	vldr.32	s18, [r4, #8]
	.loc 1 98 7 view .LVU161
	ldr	r5, [r4, #40]
	.loc 1 92 29 discriminator 6 view .LVU162
	strb	r3, [r4, #193]
	.loc 1 95 3 is_stmt 1 view .LVU163
	.loc 1 95 6 is_stmt 0 view .LVU164
	bls	.L43
.L13:
	.loc 1 104 3 is_stmt 1 view .LVU165
	.loc 1 104 7 is_stmt 0 view .LVU166
	vcvt.s32.f32	s15, s18
	vmov	r3, s15	@ int
	vcvt.s32.f32	s15, s16
	vmov	r2, s15	@ int
	vcvt.s32.f32	s15, s17
	mov	r0, r5
	vmov	r1, s15	@ int
	bl	World_GetBlock
.LVL19:
	.loc 1 104 6 discriminator 1 view .LVU167
	cmp	r0, #27
	beq	.L44
.L15:
	.loc 1 111 4 is_stmt 1 view .LVU168
	adr	r1, .L48
	ldrd	r0, [r1]
	bl	svcSleepThread
.LVL20:
	.loc 1 112 4 view .LVU169
	.loc 1 112 43 is_stmt 0 view .LVU170
	ldr	r3, [r4, #80]
	add	r3, r3, #1
	.loc 1 113 6 view .LVU171
	cmp	r3, #400
	.loc 1 112 23 view .LVU172
	str	r3, [r4, #80]
	.loc 1 113 4 is_stmt 1 view .LVU173
	.loc 1 113 39 is_stmt 0 discriminator 1 view .LVU174
	ldr	r3, [r4, #96]
	.loc 1 113 6 view .LVU175
	beq	.L16
	.loc 1 117 4 is_stmt 1 view .LVU176
	.loc 1 117 7 is_stmt 0 view .LVU177
	cmp	r3, #0
	beq	.L18
.L42:
	.loc 1 120 23 view .LVU178
	ldr	r3, [r4, #84]
.L19:
	.loc 1 126 3 is_stmt 1 view .LVU179
	.loc 1 126 6 is_stmt 0 view .LVU180
	cmp	r3, #0
	ble	.L45
	.loc 1 172 1 view .LVU181
	add	sp, sp, #20
	.cfi_remember_state
	.cfi_def_cfa_offset 36
	@ sp needed
	vldm	sp!, {d8-d9}
	.cfi_restore 82
	.cfi_restore 83
	.cfi_restore 80
	.cfi_restore 81
	.cfi_def_cfa_offset 20
	pop	{r4, r5, r6, r7, pc}
.LVL21:
.L45:
	.cfi_restore_state
	.loc 1 127 4 is_stmt 1 view .LVU182
	.loc 1 127 7 is_stmt 0 view .LVU183
	ldr	r3, [r4, #100]
	cmp	r3, #4
	beq	.L22
	.loc 1 128 5 is_stmt 1 view .LVU184
	.loc 1 145 5 view .LVU185
	.loc 1 145 25 is_stmt 0 view .LVU186
	mov	r3, #1
	str	r3, [r4, #120]
.LBB128:
	.loc 1 146 6 is_stmt 1 view .LVU187
	.loc 1 146 13 is_stmt 0 view .LVU188
	ldrb	r1, [r6]	@ zero_extendqisi2
	.loc 1 146 9 view .LVU189
	cmp	r1, #0
	beq	.L46
.LBB129:
	.loc 1 149 7 is_stmt 1 view .LVU190
	ldr	r0, .L48+24
	bl	DebugUI_Log
.LVL22:
.L24:
.LBE129:
	.loc 1 151 6 view .LVU191
	.loc 1 151 31 is_stmt 0 view .LVU192
	vldr.32	s15, [r4, #108]
	.loc 1 153 10 view .LVU193
	mov	r5, #1
	.loc 1 151 24 view .LVU194
	vstr.32	s15, [r4]
	.loc 1 152 6 is_stmt 1 view .LVU195
	.loc 1 152 13 is_stmt 0 view .LVU196
	ldr	r7, [r4, #40]
.LVL23:
	.loc 1 153 6 is_stmt 1 view .LVU197
	.loc 1 154 6 view .LVU198
	.loc 1 154 12 is_stmt 0 view .LVU199
	b	.L25
.LVL24:
.L26:
	.loc 1 154 41 view .LVU200
	vldr.32	s15, [r4, #108]
	.loc 1 155 13 view .LVU201
	add	r5, r5, #1
.LVL25:
.L25:
	.loc 1 154 75 is_stmt 1 view .LVU202
	.loc 1 154 13 is_stmt 0 view .LVU203
	vldr.32	s14, [r4, #116]
	vcvt.s32.f32	s15, s15
	vmov	r1, s15	@ int
	vcvt.s32.f32	s15, s14
	mov	r2, r5
	mov	r0, r7
	vmov	r3, s15	@ int
	bl	World_GetBlock
.LVL26:
	.loc 1 155 7 is_stmt 1 view .LVU204
	.loc 1 154 75 is_stmt 0 discriminator 1 view .LVU205
	cmp	r0, #0
	bne	.L26
	.loc 1 157 5 is_stmt 1 view .LVU206
.LVL27:
	.loc 1 158 6 view .LVU207
	.loc 1 158 24 is_stmt 0 view .LVU208
	ldrb	r3, [r7, #24]	@ zero_extendqisi2
.LBE128:
	.loc 1 163 15 view .LVU209
	mov	r2, #0
.LBB131:
	.loc 1 158 24 view .LVU210
	cmp	r3, #1
	.loc 1 158 47 discriminator 1 view .LVU211
	addne	r5, r5, #1
.LVL28:
	.loc 1 158 24 discriminator 2 view .LVU212
	vmov	s15, r5	@ int
.LBE131:
	.loc 1 161 15 view .LVU213
	mov	r3, #20
.LBB132:
	.loc 1 158 24 discriminator 2 view .LVU214
	vcvt.f32.s32	s15, s15
	.loc 1 159 24 view .LVU215
	ldr	r1, [r4, #116]	@ float
	.loc 1 158 24 discriminator 4 view .LVU216
	vstr.32	s15, [r4, #4]
.LVL29:
	.loc 1 159 6 is_stmt 1 view .LVU217
	.loc 1 159 24 is_stmt 0 view .LVU218
	str	r1, [r4, #8]	@ float
.LBE132:
	.loc 1 161 5 is_stmt 1 view .LVU219
	.loc 1 161 15 is_stmt 0 view .LVU220
	str	r3, [r4, #84]
	.loc 1 162 5 is_stmt 1 view .LVU221
	.loc 1 162 19 is_stmt 0 view .LVU222
	str	r3, [r4, #96]
	.loc 1 163 5 is_stmt 1 view .LVU223
	.loc 1 163 15 is_stmt 0 view .LVU224
	strb	r2, [r6]
	.loc 1 172 1 view .LVU225
	add	sp, sp, #20
	.cfi_remember_state
	.cfi_def_cfa_offset 36
	@ sp needed
	vldm	sp!, {d8-d9}
	.cfi_restore 82
	.cfi_restore 83
	.cfi_restore 80
	.cfi_restore 81
	.cfi_def_cfa_offset 20
	pop	{r4, r5, r6, r7, pc}
.LVL30:
.L16:
	.cfi_restore_state
	.loc 1 113 31 discriminator 1 view .LVU226
	cmp	r3, #0
	beq	.L18
	.loc 1 114 5 is_stmt 1 view .LVU227
	.loc 1 115 24 is_stmt 0 view .LVU228
	mov	r2, #0
	.loc 1 114 34 view .LVU229
	sub	r3, r3, #1
	.loc 1 117 7 view .LVU230
	cmp	r3, #0
	.loc 1 114 19 view .LVU231
	str	r3, [r4, #96]
	.loc 1 115 5 is_stmt 1 view .LVU232
	.loc 1 115 24 is_stmt 0 view .LVU233
	str	r2, [r4, #80]
	.loc 1 117 4 is_stmt 1 view .LVU234
	.loc 1 117 7 is_stmt 0 view .LVU235
	bne	.L42
.L18:
	.loc 1 118 5 is_stmt 1 view .LVU236
	adr	r1, .L48
	ldrd	r0, [r1]
	bl	svcSleepThread
.LVL31:
	.loc 1 119 5 view .LVU237
	.loc 1 119 7 is_stmt 0 view .LVU238
	ldr	r3, [r4, #80]
	cmp	r3, #400
	bne	.L42
	.loc 1 120 6 is_stmt 1 view .LVU239
	.loc 1 121 25 is_stmt 0 view .LVU240
	mov	r2, #0
	.loc 1 120 27 view .LVU241
	ldr	r3, [r4, #84]
	sub	r3, r3, #1
	.loc 1 121 25 view .LVU242
	strd	r2, [r4, #80]
	b	.L19
.L43:
	.loc 1 96 4 is_stmt 1 view .LVU243
	.loc 1 97 4 view .LVU244
	.loc 1 97 17 is_stmt 0 view .LVU245
	vcvt.f64.f32	d0, s0
	bl	round
.LVL32:
	.loc 1 98 73 view .LVU246
	vldr.32	s15, .L48+20
	vsub.f32	s16, s16, s15
	.loc 1 98 7 view .LVU247
	vcvt.s32.f32	s15, s17
	vcvt.s32.f32	s14, s18
	.loc 1 97 17 discriminator 1 view .LVU248
	vcvt.f32.f64	s0, d0
	.loc 1 98 7 view .LVU249
	vmov	r1, s15	@ int
	vcvt.s32.f32	s15, s16
	vmov	r3, s14	@ int
	mov	r0, r5
	.loc 1 97 17 discriminator 1 view .LVU250
	vstr.32	s0, [r4, #104]
	.loc 1 98 4 is_stmt 1 view .LVU251
	.loc 1 98 7 is_stmt 0 view .LVU252
	vmov	r2, s15	@ int
	bl	World_GetBlock
.LVL33:
	.loc 1 98 6 discriminator 1 view .LVU253
	cmp	r0, #0
	beq	.L47
	.loc 1 99 5 is_stmt 1 view .LVU254
	.loc 1 99 26 is_stmt 0 view .LVU255
	vldr.32	s15, [r4, #84]	@ int
	vldr.32	s14, [r4, #104]
	vcvt.f32.s32	s15, s15
	vadd.f32	s15, s15, s14
	.loc 1 100 17 view .LVU256
	mov	r3, #0
	.loc 1 99 15 view .LVU257
	vcvt.s32.f32	s15, s15
	vldr.32	s16, [r4, #4]
	vldr.32	s18, [r4, #8]
	vldr.32	s17, [r4]
	vstr.32	s15, [r4, #84]	@ int
	.loc 1 100 5 is_stmt 1 view .LVU258
	ldr	r5, [r4, #40]
	.loc 1 100 17 is_stmt 0 view .LVU259
	str	r3, [r4, #104]	@ float
	b	.L13
.L44:
.LBB133:
	.loc 1 105 4 is_stmt 1 view .LVU260
	ldr	r0, .L48+28
	bl	DebugUI_Log
.LVL34:
	.loc 1 106 4 view .LVU261
	mov	r1, #10
	ldr	r0, .L48+32
	bl	OvertimeDamage
.LVL35:
	b	.L15
.L47:
	.loc 1 106 4 is_stmt 0 view .LVU262
	vldr.32	s16, [r4, #4]
	vldr.32	s18, [r4, #8]
	vldr.32	s17, [r4]
	ldr	r5, [r4, #40]
	b	.L13
.L46:
	.loc 1 106 4 view .LVU263
.LBE133:
.LBB134:
.LBB130:
	.loc 1 147 7 is_stmt 1 view .LVU264
	ldr	r0, .L48+36
	bl	DebugUI_Log
.LVL36:
.LBE130:
	b	.L24
.L22:
	.loc 1 147 7 is_stmt 0 view .LVU265
.LBE134:
.LBB135:
	.loc 1 165 5 is_stmt 1 view .LVU266
	ldr	r0, .L48+40
.LBE135:
	.loc 1 172 1 is_stmt 0 view .LVU267
	add	sp, sp, #20
	.cfi_def_cfa_offset 36
	@ sp needed
	vldm	sp!, {d8-d9}
	.cfi_restore 82
	.cfi_restore 83
	.cfi_restore 80
	.cfi_restore 81
	.cfi_def_cfa_offset 20
	pop	{r4, r5, r6, r7, lr}
	.cfi_restore 14
	.cfi_restore 7
	.cfi_restore 6
	.cfi_restore 5
	.cfi_restore 4
	.cfi_def_cfa_offset 0
.LVL37:
.LBB136:
	.loc 1 165 5 view .LVU268
	b	DebugUI_Log
.LVL38:
.L49:
	.align	3
.L48:
	.word	10000000
	.word	0
	.word	1070805811
	.word	1110147072
	.word	-1052770304
	.word	1065353216
	.word	.LC41
	.word	.LC38
	.word	.LC39
	.word	.LC40
	.word	.LC42
.LBE136:
	.cfi_endproc
.LFE151:
	.size	Player_Update, .-Player_Update
	.section	.text.Player_CanMove,"ax",%progbits
	.align	2
	.global	Player_CanMove
	.syntax unified
	.arm
	.type	Player_CanMove, %function
Player_CanMove:
.LVL39:
.LFB152:
	.loc 1 174 48 is_stmt 1 view -0
	.cfi_startproc
	@ args = 0, pretend = 0, frame = 16
	@ frame_needed = 0, uses_anonymous_args = 0
.LBB137:
.LBB138:
.LBB139:
.LBB140:
.LBB141:
.LBB142:
	.file 3 "C:/Users/Elias/CLionProjects/3DSCraft/include/misc/NumberUtils.h"
	.loc 3 25 47 is_stmt 0 view .LVU270
	vcvt.s32.f32	s13, s0
	.loc 3 25 58 view .LVU271
	vcvt.f32.s32	s10, s13
.LBE142:
.LBE141:
.LBB148:
.LBB149:
	.loc 3 25 47 view .LVU272
	vcvt.s32.f32	s14, s2
.LBE149:
.LBE148:
.LBB156:
.LBB143:
	.loc 3 25 58 view .LVU273
	vcmpe.f32	s10, s0
.LBE143:
.LBE156:
.LBB157:
.LBB158:
	.loc 3 25 47 view .LVU274
	vcvt.s32.f32	s15, s1
.LBE158:
.LBE157:
.LBB165:
.LBB150:
	.loc 3 25 58 view .LVU275
	vcvt.f32.s32	s11, s14
.LBE150:
.LBE165:
.LBB166:
.LBB144:
	vmrs	APSR_nzcv, FPSCR
.LBE144:
.LBE166:
.LBB167:
.LBB159:
	vcvt.f32.s32	s12, s15
.LBE159:
.LBE167:
.LBB168:
.LBB151:
	vcmpe.f32	s2, s11
.LBE151:
.LBE168:
.LBE140:
.LBE139:
.LBE138:
.LBE137:
	.loc 1 174 48 view .LVU276
	push	{r4, r5, r6, r7, r8, r9, r10, fp, lr}
	.cfi_def_cfa_offset 36
	.cfi_offset 4, -36
	.cfi_offset 5, -32
	.cfi_offset 6, -28
	.cfi_offset 7, -24
	.cfi_offset 8, -20
	.cfi_offset 9, -16
	.cfi_offset 10, -12
	.cfi_offset 11, -8
	.cfi_offset 14, -4
.LBB206:
.LBB201:
.LBB195:
.LBB189:
.LBB169:
.LBB145:
	.loc 3 25 58 view .LVU277
	movgt	r3, #1
	movle	r3, #0
	.loc 3 25 56 view .LVU278
	vmov	r2, s13	@ int
.LBE145:
.LBE169:
.LBE189:
.LBE195:
.LBE201:
.LBE206:
	.loc 1 174 48 view .LVU279
	vpush.64	{d8, d9, d10}
	.cfi_def_cfa_offset 60
	.cfi_offset 80, -60
	.cfi_offset 81, -56
	.cfi_offset 82, -52
	.cfi_offset 83, -48
	.cfi_offset 84, -44
	.cfi_offset 85, -40
.LBB207:
.LBB202:
.LBB196:
.LBB190:
.LBB170:
.LBB152:
	.loc 3 25 58 view .LVU280
	vmrs	APSR_nzcv, FPSCR
.LBE152:
.LBE170:
.LBB171:
.LBB160:
	vcmpe.f32	s1, s12
.LBE160:
.LBE171:
.LBB172:
.LBB146:
	.loc 3 25 56 view .LVU281
	sub	r8, r2, r3
	add	r2, r8, #2
.LBE146:
.LBE172:
.LBE190:
.LBE196:
.LBE202:
.LBE207:
	.loc 1 174 48 view .LVU282
	sub	sp, sp, #20
	.cfi_def_cfa_offset 80
.LBB208:
.LBB203:
.LBB197:
.LBB191:
.LBB173:
.LBB153:
	.loc 3 25 58 view .LVU283
	movmi	r3, #1
	movpl	r3, #0
	str	r2, [sp]
.LBE153:
.LBE173:
.LBB174:
.LBB161:
	vmrs	APSR_nzcv, FPSCR
.LBE161:
.LBE174:
.LBB175:
.LBB154:
	.loc 3 25 56 view .LVU284
	vmov	r2, s14	@ int
	sub	r7, r2, r3
.LBE154:
.LBE175:
.LBB176:
.LBB162:
	.loc 3 25 58 view .LVU285
	movmi	r3, #1
	movpl	r3, #0
	.loc 3 25 56 view .LVU286
	vmov	r2, s15	@ int
.LBE162:
.LBE176:
	.loc 1 183 10 view .LVU287
	vldr.32	s20, .L80
.LBB177:
.LBB178:
	.loc 3 33 19 view .LVU288
	vldr.32	s19, .L80+4
	.loc 3 33 30 discriminator 1 view .LVU289
	vldr.32	s21, .L80+8
.LBE178:
.LBE177:
.LBE191:
.LBE197:
.LBE203:
.LBE208:
	.loc 1 174 48 view .LVU290
	vmov.f32	s16, s0
.LVL40:
	.loc 1 174 48 view .LVU291
	vmov.f32	s18, s2
	vmov.f32	s17, s1
.LVL41:
	.loc 1 175 2 is_stmt 1 view .LVU292
.LBB209:
	.loc 1 175 7 view .LVU293
	.loc 1 175 21 discriminator 1 view .LVU294
.LBE209:
	.loc 1 174 48 is_stmt 0 view .LVU295
	mov	r6, r0
	sub	fp, r8, #1
.LBB210:
.LBB204:
.LBB198:
.LBB192:
.LBB182:
.LBB163:
	.loc 3 25 56 view .LVU296
	sub	r8, r2, r3
	sub	r9, r7, #1
	add	r10, r8, #3
	add	r7, r7, #2
.LVL42:
.L51:
	.loc 3 25 56 view .LVU297
.LBE163:
.LBE182:
.LBE192:
.LBE198:
	.loc 1 176 21 is_stmt 1 discriminator 1 view .LVU298
	mov	r5, r8
.LVL43:
.L63:
.LBB199:
	.loc 1 177 23 discriminator 1 view .LVU299
	mov	r4, r9
.LVL44:
.L53:
.LBB193:
	.loc 1 178 5 view .LVU300
.LBB183:
.LBI141:
	.loc 3 25 19 view .LVU301
.LBB147:
	.loc 3 25 40 view .LVU302
	.loc 3 25 40 is_stmt 0 view .LVU303
.LBE147:
.LBE183:
	.loc 1 179 5 is_stmt 1 view .LVU304
.LBB184:
.LBI157:
	.loc 3 25 19 view .LVU305
.LBB164:
	.loc 3 25 40 view .LVU306
	.loc 3 25 40 is_stmt 0 view .LVU307
.LBE164:
.LBE184:
	.loc 1 180 5 is_stmt 1 view .LVU308
.LBB185:
.LBI148:
	.loc 3 25 19 view .LVU309
.LBB155:
	.loc 3 25 40 view .LVU310
	.loc 3 25 40 is_stmt 0 view .LVU311
.LBE155:
.LBE185:
	.loc 1 181 5 is_stmt 1 view .LVU312
	.loc 1 181 9 is_stmt 0 view .LVU313
	mov	r3, r4
	mov	r2, r5
	mov	r1, fp
	ldr	r0, [r6, #40]
	bl	World_GetBlock
.LVL45:
	.loc 1 181 8 discriminator 1 view .LVU314
	cmp	r0, #0
	bne	.L52
.L55:
.LBE193:
	.loc 1 177 29 is_stmt 1 discriminator 2 view .LVU315
	.loc 1 177 23 discriminator 1 view .LVU316
	add	r4, r4, #1
.LVL46:
	.loc 1 177 23 is_stmt 0 discriminator 1 view .LVU317
	cmp	r4, r7
	bne	.L53
.LBE199:
	.loc 1 176 27 is_stmt 1 discriminator 2 view .LVU318
.LVL47:
	.loc 1 176 21 discriminator 1 view .LVU319
	add	r5, r5, #1
	cmp	r5, r10
	bne	.L63
.LBE204:
	.loc 1 175 27 discriminator 2 view .LVU320
	.loc 1 175 21 discriminator 1 view .LVU321
	ldr	r3, [sp]
	add	fp, fp, #1
	.loc 1 175 21 is_stmt 0 discriminator 1 view .LVU322
	cmp	fp, r3
	bne	.L51
.LBE210:
	.loc 1 192 8 view .LVU323
	mov	r0, #1
.LVL48:
.L61:
	.loc 1 193 1 view .LVU324
	add	sp, sp, #20
	.cfi_remember_state
	.cfi_def_cfa_offset 60
	@ sp needed
	vldm	sp!, {d8-d10}
	.cfi_restore 84
	.cfi_restore 85
	.cfi_restore 82
	.cfi_restore 83
	.cfi_restore 80
	.cfi_restore 81
	.cfi_def_cfa_offset 36
.LVL49:
	.loc 1 193 1 view .LVU325
	pop	{r4, r5, r6, r7, r8, r9, r10, fp, pc}
.LVL50:
.L52:
	.cfi_restore_state
.LBB211:
.LBB205:
.LBB200:
.LBB194:
	.loc 1 181 65 discriminator 1 view .LVU326
	mov	r3, r4
	mov	r2, r5
	mov	r1, fp
	ldr	r0, [r6, #40]
	bl	World_GetBlock
.LVL51:
	.loc 1 181 63 discriminator 1 view .LVU327
	cmp	r0, #27
	beq	.L55
	.loc 1 182 7 view .LVU328
	mov	r3, r4
	mov	r2, r5
	mov	r1, fp
	ldr	r0, [r6, #40]
	bl	World_GetBlock
.LVL52:
	.loc 1 182 5 discriminator 1 view .LVU329
	cmp	r0, #26
	beq	.L55
	.loc 1 183 6 is_stmt 1 view .LVU330
	.loc 1 183 10 is_stmt 0 view .LVU331
	vmov	s15, fp	@ int
	vcvt.f32.s32	s14, s15
	vsub.f32	s15, s16, s20
.LVL53:
.LBB186:
.LBI177:
	.loc 3 32 19 is_stmt 1 view .LVU332
.LBB179:
	.loc 3 33 2 view .LVU333
	.loc 3 33 19 is_stmt 0 view .LVU334
	vadd.f32	s13, s14, s19
	.loc 3 33 78 view .LVU335
	vcmpe.f32	s15, s13
	vmrs	APSR_nzcv, FPSCR
	bhi	.L55
	.loc 3 33 30 discriminator 1 view .LVU336
	vadd.f32	s15, s15, s21
.LVL54:
	.loc 3 33 24 discriminator 1 view .LVU337
	vcmpe.f32	s14, s15
	vmrs	APSR_nzcv, FPSCR
	bhi	.L55
.LBE179:
.LBE186:
	.loc 1 183 10 view .LVU338
	vmov	s15, r5	@ int
	vcvt.f32.s32	s15, s15
.LBB187:
.LBB180:
	.loc 3 33 55 discriminator 3 view .LVU339
	vadd.f32	s14, s15, s19
.LVL55:
	.loc 3 33 42 discriminator 3 view .LVU340
	vcmpe.f32	s14, s17
	vmrs	APSR_nzcv, FPSCR
	blt	.L55
	.loc 3 33 66 discriminator 5 view .LVU341
	vldr.32	s14, .L80+12
	vadd.f32	s14, s17, s14
	.loc 3 33 60 discriminator 5 view .LVU342
	vcmpe.f32	s15, s14
	vmrs	APSR_nzcv, FPSCR
	bhi	.L55
.LBE180:
.LBE187:
	.loc 1 183 10 view .LVU343
	vmov	s15, r4	@ int
	vcvt.f32.s32	s14, s15
.LVL56:
	.loc 1 183 10 view .LVU344
	vsub.f32	s15, s18, s20
.LBB188:
.LBB181:
	.loc 3 33 91 discriminator 7 view .LVU345
	vadd.f32	s13, s14, s19
	.loc 3 33 78 discriminator 7 view .LVU346
	vcmpe.f32	s15, s13
	vmrs	APSR_nzcv, FPSCR
	bhi	.L55
	.loc 3 33 102 discriminator 9 view .LVU347
	vadd.f32	s15, s15, s21
	.loc 3 33 96 discriminator 9 view .LVU348
	vcmpe.f32	s14, s15
	vmrs	APSR_nzcv, FPSCR
	bhi	.L55
.LBE181:
.LBE188:
	.loc 1 186 13 view .LVU349
	mov	r0, #0
	b	.L61
.L81:
	.align	2
.L80:
	.word	1051092582
	.word	1065353216
	.word	1059481190
	.word	1072064102
.LBE194:
.LBE200:
.LBE205:
.LBE211:
	.cfi_endproc
.LFE152:
	.size	Player_CanMove, .-Player_CanMove
	.section	.text.Player_Jump,"ax",%progbits
	.align	2
	.global	Player_Jump
	.syntax unified
	.arm
	.type	Player_Jump, %function
Player_Jump:
.LVL57:
.LFB153:
	.loc 1 195 47 is_stmt 1 view -0
	.cfi_startproc
	@ args = 0, pretend = 0, frame = 16
	@ frame_needed = 0, uses_anonymous_args = 0
	@ link register save eliminated.
	.loc 1 196 2 view .LVU351
	.loc 1 196 5 is_stmt 0 view .LVU352
	ldrb	r3, [r0, #32]	@ zero_extendqisi2
	.loc 1 195 47 view .LVU353
	sub	sp, sp, #16
	.cfi_def_cfa_offset 16
	.loc 1 196 5 view .LVU354
	cmp	r3, #0
	beq	.L82
	.loc 1 196 23 discriminator 1 view .LVU355
	ldrb	r3, [r0, #35]	@ zero_extendqisi2
	cmp	r3, #0
	bne	.L82
	.loc 1 197 3 is_stmt 1 view .LVU356
	.loc 1 197 31 is_stmt 0 view .LVU357
	vldr.32	s15, .L88
	vmul.f32	s0, s0, s15
	.loc 1 198 31 view .LVU358
	vmul.f32	s2, s2, s15
	.loc 1 200 18 view .LVU359
	mov	r2, #1
	.loc 1 197 22 view .LVU360
	vstr.32	s0, [r0, #60]
	.loc 1 198 3 is_stmt 1 view .LVU361
	.loc 1 198 22 is_stmt 0 view .LVU362
	vstr.32	s2, [r0, #68]
	.loc 1 199 3 is_stmt 1 view .LVU363
	.loc 1 200 3 view .LVU364
	.loc 1 201 3 view .LVU365
	.loc 1 199 22 is_stmt 0 view .LVU366
	ldr	r1, .L88+4
	.loc 1 201 21 view .LVU367
	strb	r3, [r0, #36]
	.loc 1 199 22 view .LVU368
	str	r1, [r0, #64]	@ float
	.loc 1 200 18 view .LVU369
	strb	r2, [r0, #33]
.L82:
	.loc 1 203 1 view .LVU370
	add	sp, sp, #16
	.cfi_def_cfa_offset 0
	@ sp needed
	bx	lr
.L89:
	.align	2
.L88:
	.word	1066192077
	.word	1087792742
	.cfi_endproc
.LFE153:
	.size	Player_Jump, .-Player_Jump
	.section	.text.Player_Move,"ax",%progbits
	.align	2
	.global	Player_Move
	.syntax unified
	.arm
	.type	Player_Move, %function
Player_Move:
.LVL58:
.LFB154:
	.loc 1 208 57 is_stmt 1 view -0
	.cfi_startproc
	@ args = 0, pretend = 0, frame = 168
	@ frame_needed = 0, uses_anonymous_args = 0
	.loc 1 210 23 is_stmt 0 view .LVU372
	vldr.32	s15, [r0, #72]
	.loc 1 208 57 view .LVU373
	push	{r4, r5, r6, r7, r8, r9, r10, fp, lr}
	.cfi_def_cfa_offset 36
	.cfi_offset 4, -36
	.cfi_offset 5, -32
	.cfi_offset 6, -28
	.cfi_offset 7, -24
	.cfi_offset 8, -20
	.cfi_offset 9, -16
	.cfi_offset 10, -12
	.cfi_offset 11, -8
	.cfi_offset 14, -4
	.loc 1 210 23 view .LVU374
	vadd.f32	s15, s0, s15
	.loc 1 208 57 view .LVU375
	vpush.64	{d8, d9, d10, d11, d12, d13, d14, d15}
	.cfi_def_cfa_offset 100
	.cfi_offset 80, -100
	.cfi_offset 81, -96
	.cfi_offset 82, -92
	.cfi_offset 83, -88
	.cfi_offset 84, -84
	.cfi_offset 85, -80
	.cfi_offset 86, -76
	.cfi_offset 87, -72
	.cfi_offset 88, -68
	.cfi_offset 89, -64
	.cfi_offset 90, -60
	.cfi_offset 91, -56
	.cfi_offset 92, -52
	.cfi_offset 93, -48
	.cfi_offset 94, -44
	.cfi_offset 95, -40
	.loc 1 212 30 view .LVU376
	vldr.32	s20, .L180
.LVL59:
	.loc 1 209 2 is_stmt 1 view .LVU377
	.loc 1 209 28 is_stmt 0 view .LVU378
	vldr.32	s13, [r0, #76]
	.loc 1 212 30 view .LVU379
	vcmpe.f32	s15, s20
	.loc 1 209 28 view .LVU380
	vsub.f32	s14, s13, s0
	.loc 1 212 30 view .LVU381
	vmrs	APSR_nzcv, FPSCR
	.loc 1 208 57 view .LVU382
	sub	sp, sp, #220
	.cfi_def_cfa_offset 320
	.loc 1 208 57 view .LVU383
	vstr.32	s1, [sp, #84]
	vstr.32	s2, [sp, #88]
	vstr.32	s3, [sp, #92]
	.loc 1 209 28 view .LVU384
	vstr.32	s14, [r0, #76]
	.loc 1 210 2 is_stmt 1 view .LVU385
	.loc 1 210 23 is_stmt 0 view .LVU386
	vstr.32	s15, [r0, #72]
	.loc 1 211 2 is_stmt 1 view .LVU387
.LVL60:
	.loc 1 212 2 view .LVU388
	.loc 1 212 30 view .LVU389
	blt	.L90
	vmov.f32	s23, s1
	vmov.f32	s22, s2
	vmov.f32	s24, s3
.LBB260:
	.loc 1 213 19 is_stmt 0 view .LVU390
	vldr.32	s15, [r0, #64]
	.loc 1 213 22 view .LVU391
	vldr.32	s25, .L180+4
	.loc 1 214 6 view .LVU392
	vldr.32	s21, .L180+8
	.loc 1 216 42 discriminator 1 view .LVU393
	vldr.32	s16, .L180+72
	mov	r8, r0
.LVL61:
.L129:
	.loc 1 213 3 is_stmt 1 view .LVU394
	.loc 1 213 22 is_stmt 0 view .LVU395
	vsub.f32	s15, s15, s25
	.loc 1 214 3 is_stmt 1 view .LVU396
	.loc 1 214 64 is_stmt 0 discriminator 1 view .LVU397
	vcmp.f32	s15, s21
	vmrs	APSR_nzcv, FPSCR
	vmovmi.f32	s15, s21
	.loc 1 216 6 view .LVU398
	ldrb	r3, [r8, #35]	@ zero_extendqisi2
	vstr.32	s15, [r8, #64]
	.loc 1 216 3 is_stmt 1 view .LVU399
	.loc 1 216 6 is_stmt 0 view .LVU400
	cmp	r3, #0
	.loc 1 219 14 view .LVU401
	ldrb	r4, [r8, #32]	@ zero_extendqisi2
	.loc 1 216 6 view .LVU402
	bne	.L94
	.loc 1 218 3 is_stmt 1 view .LVU403
.LVL62:
	.loc 1 219 3 view .LVU404
	.loc 1 219 6 is_stmt 0 view .LVU405
	cmp	r4, #0
.LBB261:
.LBB262:
	.loc 2 18 50 view .LVU406
	vmul.f32	s15, s15, s20
.LBE262:
.LBE261:
	.loc 1 219 6 view .LVU407
	bne	.L95
	.loc 1 220 4 is_stmt 1 view .LVU408
	.loc 1 220 7 is_stmt 0 view .LVU409
	vldr.32	s14, .L180+12
	vldr.32	s13, .L180+16
	.loc 1 220 14 view .LVU410
	ldrb	r3, [r8, #33]	@ zero_extendqisi2
	.loc 1 220 7 view .LVU411
	cmp	r3, #0
	vmovne.f32	s14, s13
.L97:
.LVL63:
	.loc 1 228 3 is_stmt 1 view .LVU412
.LBB265:
.LBI261:
	.loc 2 18 15 view .LVU413
.LBB263:
	.loc 2 18 43 view .LVU414
	.loc 2 18 43 is_stmt 0 view .LVU415
.LBE263:
.LBE265:
.LBB266:
.LBI266:
	.loc 2 18 15 is_stmt 1 view .LVU416
.LBB267:
	.loc 2 18 43 view .LVU417
	.loc 2 18 43 is_stmt 0 view .LVU418
.LBE267:
.LBE266:
.LBB269:
.LBI269:
	.loc 2 16 15 is_stmt 1 view .LVU419
.LBB270:
	.loc 2 16 44 view .LVU420
	.loc 2 16 44 is_stmt 0 view .LVU421
.LBE270:
.LBE269:
.LBB273:
.LBI273:
	.loc 2 16 15 is_stmt 1 view .LVU422
.LBB274:
	.loc 2 16 44 view .LVU423
.LBE274:
.LBE273:
	.loc 1 229 10 is_stmt 0 view .LVU424
	ldm	r8, {r0, r1, r2}
.LBB278:
.LBB268:
	.loc 2 18 50 view .LVU425
	vmul.f32	s29, s23, s14
	vmul.f32	s28, s24, s14
.LBE268:
.LBE278:
.LBB279:
.LBB264:
	vldr.32	s10, [r8, #60]
	vldr.32	s11, [r8, #68]
.LBE264:
.LBE279:
.LBB280:
.LBB271:
	.loc 2 16 51 view .LVU426
	vmla.f32	s15, s22, s14
.LVL64:
	.loc 2 16 51 view .LVU427
.LBE271:
.LBE280:
.LBB281:
.LBB276:
	vldr.32	s13, [r8]
	vldr.32	s12, [r8, #4]
	vldr.32	s14, [r8, #8]
.LVL65:
	.loc 2 16 51 view .LVU428
.LBE276:
.LBE281:
.LBB282:
.LBB272:
	vmla.f32	s29, s10, s20
	vmla.f32	s28, s11, s20
.LBE272:
.LBE282:
.LBB283:
.LBB277:
	vadd.f32	s26, s15, s12
	vadd.f32	s29, s29, s13
	vadd.f32	s28, s28, s14
.LVL66:
.LBB275:
.LBI275:
	.loc 2 14 15 is_stmt 1 view .LVU429
	.loc 2 14 51 view .LVU430
	.loc 2 14 51 is_stmt 0 view .LVU431
.LBE275:
.LBE277:
.LBE283:
	.loc 1 233 22 view .LVU432
	mov	r3, #0
	add	ip, sp, #132
.LBB284:
.LBB285:
	.loc 1 241 11 view .LVU433
	vldr.32	s19, .L180+20
.LBB286:
.LBB287:
	.file 4 "C:/Users/Elias/CLionProjects/3DSCraft/include/misc/Collision.h"
	.loc 4 9 109 discriminator 1 view .LVU434
	vldr.32	s18, .L180+24
.LBE287:
.LBE286:
.LBB291:
.LBB292:
.LBB293:
.LBB294:
.LBB295:
.LBB296:
.LBB297:
	vldr.32	s17, .L180+28
	vstr.32	s26, [sp, #112]
	vstr.32	s29, [sp, #108]
	vstr.32	s28, [sp, #116]
.LVL67:
	.loc 4 9 109 discriminator 1 view .LVU435
.LBE297:
.LBE296:
.LBE295:
.LBE294:
.LBE293:
.LBE292:
.LBE291:
.LBE285:
.LBE284:
	.loc 1 229 3 is_stmt 1 view .LVU436
	.loc 1 231 4 view .LVU437
	.loc 1 233 5 view .LVU438
	.loc 1 234 5 view .LVU439
.LBB399:
	.loc 1 234 10 view .LVU440
	.loc 1 234 23 discriminator 1 view .LVU441
	mov	r5, ip
	mov	r9, r8
.LBE399:
	.loc 1 229 10 is_stmt 0 view .LVU442
	add	lr, sp, #120
	stm	lr, {r0, r1, r2}
	.loc 1 233 22 view .LVU443
	strb	r3, [r8, #32]
	str	r3, [sp, #76]
	str	r4, [sp, #80]
.LVL68:
.L113:
.LBB400:
.LBB396:
	.loc 1 235 7 is_stmt 1 view .LVU444
	.loc 1 235 22 is_stmt 0 view .LVU445
	ldr	r3, .L180+48
	.loc 1 236 11 view .LVU446
	mov	fp, #0
	.loc 1 235 22 view .LVU447
	ldm	r3, {r0, r1, r2}
	add	r3, sp, #132
	stm	r3, {r0, r1, r2}
	.loc 1 237 14 view .LVU448
	add	r3, sp, #120
	ldm	r3, {r0, r1, r2}
	.loc 1 235 11 view .LVU449
	ldr	r4, [r5], #4
.LVL69:
	.loc 1 236 6 is_stmt 1 view .LVU450
	.loc 1 237 7 view .LVU451
	.loc 1 239 7 view .LVU452
	.loc 1 237 14 is_stmt 0 view .LVU453
	add	r3, sp, #144
	stm	r3, {r0, r1, r2}
	.loc 1 239 31 view .LVU454
	add	r3, sp, #216
	add	r2, r3, r4, lsl #2
	vldr.32	s27, [r2, #-108]
	.loc 1 239 21 view .LVU455
	vstr.32	s27, [r2, #-72]
	.loc 1 240 7 is_stmt 1 view .LVU456
	.loc 1 241 30 is_stmt 0 view .LVU457
	vldr.32	s13, [sp, #144]
.LBB384:
.LBB375:
.LBB365:
.LBB354:
.LBB306:
.LBB307:
	.loc 3 25 47 view .LVU458
	vcvt.s32.f32	s9, s13
.LBE307:
.LBE306:
.LBE354:
.LBE365:
.LBE375:
.LBE384:
	.loc 1 241 70 view .LVU459
	vldr.32	s14, [sp, #152]
.LBB385:
.LBB376:
.LBB366:
.LBB355:
.LBB315:
.LBB308:
	.loc 3 25 58 view .LVU460
	vcvt.f32.s32	s2, s9
.LBE308:
.LBE315:
.LBE355:
.LBE366:
.LBE376:
.LBE385:
	.loc 1 241 11 view .LVU461
	vldr.32	s15, [sp, #148]
.LBB386:
.LBB377:
.LBB367:
.LBB356:
.LBB316:
.LBB317:
	.loc 3 25 47 view .LVU462
	vcvt.s32.f32	s10, s14
.LBE317:
.LBE316:
.LBB325:
.LBB309:
	.loc 3 25 58 view .LVU463
	vcmpe.f32	s13, s2
.LBE309:
.LBE325:
.LBB326:
.LBB327:
	.loc 3 25 47 view .LVU464
	vcvt.s32.f32	s11, s15
.LBE327:
.LBE326:
.LBB334:
.LBB318:
	.loc 3 25 58 view .LVU465
	vcvt.f32.s32	s5, s10
.LBE318:
.LBE334:
.LBB335:
.LBB310:
	vmrs	APSR_nzcv, FPSCR
.LBE310:
.LBE335:
.LBB336:
.LBB328:
	vcvt.f32.s32	s6, s11
.LBE328:
.LBE336:
.LBB337:
.LBB319:
	vcmpe.f32	s14, s5
.LBE319:
.LBE337:
.LBE356:
.LBE367:
.LBE377:
.LBE386:
	.loc 1 239 31 view .LVU466
	lsl	r3, r4, #2
.LBB387:
.LBB378:
.LBB368:
.LBB357:
.LBB338:
.LBB311:
	.loc 3 25 58 view .LVU467
	movmi	r2, #1
	movpl	r2, fp
.LBE311:
.LBE338:
.LBE357:
.LBE368:
.LBE378:
.LBE387:
	.loc 1 239 31 view .LVU468
	str	r3, [sp, #72]
.LBB388:
.LBB379:
.LBB369:
.LBB358:
.LBB339:
.LBB312:
	.loc 3 25 56 view .LVU469
	vmov	r3, s9	@ int
.LBE312:
.LBE339:
.LBB340:
.LBB320:
	.loc 3 25 58 view .LVU470
	vmrs	APSR_nzcv, FPSCR
.LBE320:
.LBE340:
.LBB341:
.LBB329:
	vcmpe.f32	s15, s6
.LBE329:
.LBE341:
.LBE358:
.LBE369:
.LBE379:
.LBE388:
	.loc 1 241 11 view .LVU471
	vsub.f32	s7, s13, s19
	vsub.f32	s8, s14, s19
.LVL70:
.LBB389:
.LBI286:
	.loc 4 9 12 is_stmt 1 view .LVU472
.LBB288:
	.loc 4 9 79 view .LVU473
	.loc 4 9 109 is_stmt 0 discriminator 1 view .LVU474
	vldr.32	s12, .L180+32
.LBE288:
.LBE389:
.LBB390:
.LBB380:
.LBB370:
.LBB359:
.LBB342:
.LBB313:
	.loc 3 25 56 view .LVU475
	sub	r2, r3, r2
	add	r3, r2, #2
.LBE313:
.LBE342:
.LBB343:
.LBB321:
	.loc 3 25 58 view .LVU476
	movmi	r1, #1
	movpl	r1, fp
	str	r3, [sp, #56]
.LBE321:
.LBE343:
.LBB344:
.LBB330:
	vmrs	APSR_nzcv, FPSCR
.LBE330:
.LBE344:
.LBB345:
.LBB322:
	.loc 3 25 56 view .LVU477
	vmov	r3, s10	@ int
.LBE322:
.LBE345:
.LBE359:
.LBE370:
.LBE380:
.LBE390:
.LBB391:
.LBB289:
	.loc 4 9 109 discriminator 1 view .LVU478
	vadd.f32	s12, s15, s12
	vadd.f32	s3, s7, s18
	vadd.f32	s4, s8, s18
	sub	r8, r2, #1
.LBE289:
.LBE391:
.LBB392:
.LBB381:
.LBB371:
.LBB360:
.LBB346:
.LBB323:
	.loc 3 25 56 view .LVU479
	sub	r6, r3, r1
.LBE323:
.LBE346:
.LBB347:
.LBB331:
	.loc 3 25 58 view .LVU480
	movmi	r2, #1
	.loc 3 25 56 view .LVU481
	vmov	r3, s11	@ int
	.loc 3 25 58 view .LVU482
	movpl	r2, fp
.LBE331:
.LBE347:
.LBE360:
.LBE371:
.LBE381:
.LBE392:
.LBB393:
.LBB290:
	.loc 4 9 86 discriminator 2 view .LVU483
	vstr.32	s15, [sp, #172]
	vstr.32	s7, [sp, #168]
	vstr.32	s8, [sp, #176]
	vstr.32	s12, [sp, #184]
	vstr.32	s3, [sp, #180]
	vstr.32	s4, [sp, #188]
.LVL71:
	.loc 4 9 86 discriminator 2 view .LVU484
.LBE290:
.LBE393:
	.loc 1 244 7 is_stmt 1 view .LVU485
.LBB394:
	.loc 1 244 12 view .LVU486
	.loc 1 244 26 discriminator 1 view .LVU487
	mov	r7, r8
.LBB382:
.LBB372:
.LBB361:
.LBB348:
.LBB332:
	.loc 3 25 56 is_stmt 0 view .LVU488
	sub	r2, r3, r2
	strd	r4, [sp, #64]
	add	r3, r2, #3
	sub	r10, r6, #1
	str	r3, [sp, #52]
	add	r6, r6, #2
	str	r2, [sp, #60]
.LVL72:
.L98:
	.loc 3 25 56 view .LVU489
.LBE332:
.LBE348:
.LBE361:
.LBE372:
	.loc 1 245 27 is_stmt 1 discriminator 1 view .LVU490
.LBB373:
.LBB362:
.LBB349:
	.loc 1 255 19 is_stmt 0 view .LVU491
	mov	r5, #0
	ldr	r8, [sp, #60]
.LVL73:
.L103:
	.loc 1 255 19 view .LVU492
.LBE349:
.LBE362:
	.loc 1 246 30 is_stmt 1 discriminator 1 view .LVU493
	mov	r4, r10
.LVL74:
.L100:
.LBB363:
	.loc 1 247 13 view .LVU494
.LBB350:
.LBI306:
	.loc 3 25 19 view .LVU495
.LBB314:
	.loc 3 25 40 view .LVU496
	.loc 3 25 40 is_stmt 0 view .LVU497
.LBE314:
.LBE350:
	.loc 1 248 13 is_stmt 1 view .LVU498
.LBB351:
.LBI326:
	.loc 3 25 19 view .LVU499
.LBB333:
	.loc 3 25 40 view .LVU500
	.loc 3 25 40 is_stmt 0 view .LVU501
.LBE333:
.LBE351:
	.loc 1 249 13 is_stmt 1 view .LVU502
.LBB352:
.LBI316:
	.loc 3 25 19 view .LVU503
.LBB324:
	.loc 3 25 40 view .LVU504
	.loc 3 25 40 is_stmt 0 view .LVU505
.LBE324:
.LBE352:
	.loc 1 250 13 is_stmt 1 view .LVU506
	.loc 1 250 17 is_stmt 0 view .LVU507
	mov	r3, r4
	mov	r2, r8
	mov	r1, r7
	ldr	r0, [r9, #40]
	bl	World_GetBlock
.LVL75:
	.loc 1 250 16 discriminator 1 view .LVU508
	cmp	r0, #0
	bne	.L175
.L99:
	.loc 1 250 16 discriminator 1 view .LVU509
.LBE363:
	.loc 1 246 36 is_stmt 1 discriminator 2 view .LVU510
.LVL76:
	.loc 1 246 30 discriminator 1 view .LVU511
	add	r4, r4, #1
.LVL77:
	.loc 1 246 30 is_stmt 0 discriminator 1 view .LVU512
	cmp	r6, r4
	bne	.L100
	.loc 1 246 30 discriminator 1 view .LVU513
.LBE373:
	.loc 1 245 33 is_stmt 1 discriminator 2 view .LVU514
.LVL78:
	.loc 1 245 27 discriminator 1 view .LVU515
	ldr	r3, [sp, #52]
	add	r8, r8, #1
	cmp	r3, r8
	bne	.L103
.LBE382:
	.loc 1 244 32 discriminator 2 view .LVU516
	.loc 1 244 26 discriminator 1 view .LVU517
	ldr	r3, [sp, #56]
	add	r7, r7, #1
	.loc 1 244 26 is_stmt 0 discriminator 1 view .LVU518
	cmp	r3, r7
	bne	.L98
.LBE394:
	.loc 1 263 10 view .LVU519
	ldrd	r4, [sp, #64]
.LVL79:
	.loc 1 263 7 is_stmt 1 view .LVU520
	.loc 1 263 10 is_stmt 0 view .LVU521
	cmp	fp, #0
	bne	.L104
	.loc 1 264 9 is_stmt 1 view .LVU522
	.loc 1 264 23 is_stmt 0 view .LVU523
	ldr	r3, [sp, #72]
	add	r3, r3, #216
	add	r2, sp, r3
	vstr.32	s27, [r2, #-96]
.L110:
.LBE396:
	.loc 1 234 29 is_stmt 1 discriminator 2 view .LVU524
	.loc 1 234 23 discriminator 1 view .LVU525
	add	r3, sp, #144
	.loc 1 234 23 is_stmt 0 discriminator 1 view .LVU526
	cmp	r3, r5
	bne	.L113
.LBE400:
	.loc 1 282 8 view .LVU527
	ldrb	r3, [r9, #32]	@ zero_extendqisi2
	.loc 1 282 8 view .LVU528
	mov	r8, r9
	.loc 1 280 5 is_stmt 1 view .LVU529
	.loc 1 282 8 is_stmt 0 view .LVU530
	cmp	r3, #0
	vldr.32	s30, [r9]
	vldr.32	s15, [r9, #4]
	vldr.32	s27, [r9, #8]
	vldr.32	s18, [sp, #120]
.LVL80:
	.loc 1 282 8 view .LVU531
	vldr.32	s19, [sp, #124]
.LVL81:
	.loc 1 282 8 view .LVU532
	vldr.32	s17, [sp, #128]
.LVL82:
.LBB401:
.LBI401:
	.loc 2 17 15 is_stmt 1 view .LVU533
.LBB402:
	.loc 2 17 44 view .LVU534
	.loc 2 17 44 is_stmt 0 view .LVU535
.LBE402:
.LBE401:
	.loc 1 282 5 is_stmt 1 view .LVU536
	.loc 1 282 8 is_stmt 0 view .LVU537
	ldr	r2, [sp, #76]
	ldr	r4, [sp, #80]
	beq	.L114
.LVL83:
	.loc 1 282 26 discriminator 1 view .LVU538
	ldrb	r3, [r9, #35]	@ zero_extendqisi2
	cmp	r3, #0
	.loc 1 282 45 is_stmt 1 discriminator 2 view .LVU539
	.loc 1 282 60 is_stmt 0 discriminator 2 view .LVU540
	movne	r3, #0
	strbne	r3, [r9, #35]
.L114:
	.loc 1 284 5 is_stmt 1 view .LVU541
	.loc 1 284 8 is_stmt 0 view .LVU542
	cmp	r2, #0
	beq	.L115
	.loc 1 284 23 discriminator 1 view .LVU543
	ldrb	r3, [r8, #56]	@ zero_extendqisi2
	cmp	r3, #0
	bne	.L176
.LVL84:
.L115:
	.loc 1 293 5 is_stmt 1 view .LVU544
	.loc 1 293 8 is_stmt 0 view .LVU545
	ldrb	r3, [r8, #36]	@ zero_extendqisi2
	.loc 1 293 36 discriminator 1 view .LVU546
	vldr.32	s14, [r8, #28]
	.loc 1 293 8 view .LVU547
	cmp	r3, #0
	beq	.L116
	.loc 1 293 27 discriminator 1 view .LVU548
	vldr.32	s15, .L180+36
	vcmpe.f32	s14, s15
	vmrs	APSR_nzcv, FPSCR
	.loc 1 293 57 is_stmt 1 discriminator 2 view .LVU549
	.loc 1 293 75 is_stmt 0 discriminator 2 view .LVU550
	vldrgt.32	s15, .L180+60
	vsubgt.f32	s14, s14, s15
	vstrgt.32	s14, [r8, #28]
	.loc 1 294 5 is_stmt 1 view .LVU551
.L117:
	.loc 1 296 5 view .LVU552
	.loc 1 296 27 is_stmt 0 discriminator 1 view .LVU553
	ldrb	r3, [r8, #32]	@ zero_extendqisi2
	eor	r3, r3, #1
	.loc 1 296 48 discriminator 2 view .LVU554
	tst	r4, r3
	bne	.L121
.LVL85:
.L122:
	.loc 1 304 24 view .LVU555
	vldr.32	s15, [r8, #64]
.LVL86:
.L120:
	.loc 1 303 5 is_stmt 1 view .LVU556
	.loc 1 304 24 is_stmt 0 view .LVU557
	vldr.32	s13, [r8, #60]
	vldr.32	s12, .L180+40
	vmul.f32	s13, s13, s12
	vldr.32	s14, [r8, #68]
	.loc 1 305 83 view .LVU558
	vcmpe.f32	s13, #0
	.loc 1 304 24 view .LVU559
	vmul.f32	s14, s14, s12
	.loc 1 305 83 view .LVU560
	vmrs	APSR_nzcv, FPSCR
	.loc 1 303 22 view .LVU561
	add	r3, sp, #120
	ldm	r3, {r0, r1, r2}
	.loc 1 304 24 view .LVU562
	vstr.32	s15, [r8, #64]
	vstr.32	s13, [r8, #60]
	vstr.32	s14, [r8, #68]
	.loc 1 303 22 view .LVU563
	stm	r8, {r0, r1, r2}
	.loc 1 304 5 is_stmt 1 view .LVU564
	.loc 1 305 5 view .LVU565
	.loc 1 305 83 is_stmt 0 view .LVU566
	bmi	.L177
	.loc 1 305 83 discriminator 2 view .LVU567
	vldr.32	s12, .L180+44
	vcmpe.f32	s13, s12
	vmrs	APSR_nzcv, FPSCR
	movmi	r3, #1
	movpl	r3, #0
.L125:
	.loc 1 306 83 view .LVU568
	vcmpe.f32	s14, #0
	.loc 1 305 8 discriminator 4 view .LVU569
	cmp	r3, #0
	.loc 1 305 110 discriminator 5 view .LVU570
	vstrne.32	s16, [r8, #60]
	.loc 1 306 5 is_stmt 1 view .LVU571
	.loc 1 306 83 is_stmt 0 view .LVU572
	vmrs	APSR_nzcv, FPSCR
	bmi	.L178
	.loc 1 306 83 discriminator 2 view .LVU573
	vldr.32	s13, .L180+44
	vcmpe.f32	s14, s13
	vmrs	APSR_nzcv, FPSCR
	movmi	r3, #1
	movpl	r3, #0
.L128:
	.loc 1 308 26 view .LVU574
	vldr.32	s14, [r8, #72]
	vsub.f32	s14, s14, s20
.LBE260:
	.loc 1 212 30 view .LVU575
	vcmpe.f32	s14, s20
.LBB469:
	.loc 1 306 8 discriminator 4 view .LVU576
	cmp	r3, #0
	.loc 1 306 110 discriminator 5 view .LVU577
	vstrne.32	s16, [r8, #68]
	.loc 1 308 5 is_stmt 1 view .LVU578
.LBE469:
	.loc 1 212 30 is_stmt 0 view .LVU579
	vmrs	APSR_nzcv, FPSCR
.LBB470:
	.loc 1 308 26 view .LVU580
	vstr.32	s14, [r8, #72]
.LVL87:
	.loc 1 308 26 view .LVU581
.LBE470:
	.loc 1 212 30 is_stmt 1 view .LVU582
	bge	.L129
.LVL88:
.L90:
	.loc 1 310 1 is_stmt 0 view .LVU583
	add	sp, sp, #220
	.cfi_remember_state
	.cfi_def_cfa_offset 100
	@ sp needed
	vldm	sp!, {d8-d15}
	.cfi_restore 94
	.cfi_restore 95
	.cfi_restore 92
	.cfi_restore 93
	.cfi_restore 90
	.cfi_restore 91
	.cfi_restore 88
	.cfi_restore 89
	.cfi_restore 86
	.cfi_restore 87
	.cfi_restore 84
	.cfi_restore 85
	.cfi_restore 82
	.cfi_restore 83
	.cfi_restore 80
	.cfi_restore 81
	.cfi_def_cfa_offset 36
	pop	{r4, r5, r6, r7, r8, r9, r10, fp, pc}
.L181:
	.align	2
.L180:
	.word	1015580809
	.word	1051372203
	.word	-1035468800
	.word	1008981771
	.word	995783695
	.word	1051092582
	.word	1059481190
	.word	1065353216
	.word	1072064102
	.word	-1097229926
	.word	1064514355
	.word	1036831949
	.word	.LANCHOR0
	.word	1087792742
	.word	1066192077
	.word	1023969417
	.word	-1110651699
	.word	1007192201
	.word	0
.LVL89:
.L175:
	.cfi_restore_state
.LBB471:
.LBB404:
.LBB397:
.LBB395:
.LBB383:
.LBB374:
.LBB364:
.LBB353:
	.loc 1 251 15 is_stmt 1 view .LVU584
	.loc 1 251 30 is_stmt 0 view .LVU585
	vmov	s15, r7	@ int
	vmov	s13, r4	@ int
	vcvt.f32.s32	s14, s15
	vmov	s15, r8	@ int
	vcvt.f32.s32	s13, s13
.LVL90:
	.loc 1 251 30 view .LVU586
	vcvt.f32.s32	s15, s15
.LVL91:
.LBB302:
.LBI296:
	.loc 4 9 12 is_stmt 1 view .LVU587
.LBB298:
	.loc 4 9 79 view .LVU588
	.loc 4 9 109 is_stmt 0 discriminator 1 view .LVU589
	vadd.f32	s12, s13, s17
	vadd.f32	s11, s15, s17
	vadd.f32	s10, s14, s17
.LBE298:
.LBE302:
	.loc 1 257 31 view .LVU590
	add	r1, sp, #104
	add	r2, sp, #100
	add	r3, sp, #156
	str	r1, [sp, #44]
	str	r2, [sp, #40]
	str	r3, [sp, #36]
	str	r5, [sp, #32]
	add	ip, sp, #8
	add	lr, sp, #168
	ldmia	lr!, {r0, r1, r2, r3}
	stmia	ip!, {r0, r1, r2, r3}
	.loc 1 253 31 view .LVU591
	vstr.32	s16, [sp, #156]
	.loc 1 257 31 view .LVU592
	ldm	lr, {r0, r1}
	.loc 1 253 31 view .LVU593
	vstr.32	s16, [sp, #160]
	.loc 1 257 31 view .LVU594
	stm	ip, {r0, r1}
.LBB303:
.LBB299:
	.loc 4 9 86 discriminator 2 view .LVU595
	vstr.32	s11, [sp, #208]
	vstr.32	s12, [sp, #212]
.LVL92:
	.loc 4 9 86 discriminator 2 view .LVU596
.LBE299:
.LBE303:
	.loc 1 253 15 is_stmt 1 view .LVU597
	.loc 1 254 15 view .LVU598
	.loc 1 255 15 view .LVU599
	.loc 1 257 14 view .LVU600
.LBB304:
.LBB300:
	.loc 4 9 86 is_stmt 0 discriminator 2 view .LVU601
	vstr.32	s13, [sp, #200]
	vstr.32	s10, [sp, #204]
.LBE300:
.LBE304:
	.loc 1 257 31 view .LVU602
	add	r2, sp, #216
	ldmdb	r2, {r0, r1}
	stm	sp, {r0, r1}
	add	r3, sp, #192
.LBB305:
.LBB301:
	.loc 4 9 86 discriminator 2 view .LVU603
	vstr.32	s14, [sp, #192]
	vstr.32	s15, [sp, #196]
.LBE301:
.LBE305:
	.loc 1 253 31 view .LVU604
	vstr.32	s16, [sp, #164]
	.loc 1 254 21 view .LVU605
	vstr.32	s16, [sp, #100]
	.loc 1 255 19 view .LVU606
	str	r5, [sp, #104]
	.loc 1 257 31 view .LVU607
	ldm	r3, {r0, r1, r2, r3}
	bl	Collision_BoxIntersect
.LVL93:
	.loc 1 258 15 is_stmt 1 view .LVU608
	.loc 1 258 25 is_stmt 0 view .LVU609
	orr	r0, r0, fp
.LVL94:
	.loc 1 258 25 view .LVU610
	uxtb	fp, r0
.LVL95:
	.loc 1 258 25 view .LVU611
	b	.L99
.LVL96:
.L104:
	.loc 1 258 25 view .LVU612
.LBE353:
.LBE364:
.LBE374:
.LBE383:
.LBE395:
	.loc 1 265 12 is_stmt 1 view .LVU613
	.loc 1 265 15 is_stmt 0 view .LVU614
	cmp	r4, #1
	beq	.L179
	.loc 1 272 9 is_stmt 1 view .LVU615
.LVL97:
	.loc 1 273 9 view .LVU616
	.loc 1 273 12 is_stmt 0 view .LVU617
	cmp	r4, #0
	.loc 1 274 11 is_stmt 1 view .LVU618
	.loc 1 274 30 is_stmt 0 view .LVU619
	vstreq.32	s16, [r9, #60]
	.loc 1 276 11 is_stmt 1 view .LVU620
	.loc 1 276 30 is_stmt 0 view .LVU621
	vstrne.32	s16, [r9, #68]
	.loc 1 272 23 view .LVU622
	str	fp, [sp, #76]
	b	.L110
.LVL98:
.L179:
	.loc 1 266 9 is_stmt 1 view .LVU623
	.loc 1 266 12 is_stmt 0 view .LVU624
	vldr.32	s15, [r9, #64]
	vcmpe.f32	s15, #0
	vmrs	APSR_nzcv, FPSCR
	bmi	.L107
	.loc 1 266 38 discriminator 2 view .LVU625
	vcmpe.f32	s22, #0
	vmrs	APSR_nzcv, FPSCR
	bmi	.L107
.L108:
	.loc 1 267 9 is_stmt 1 view .LVU626
	.loc 1 267 24 is_stmt 0 view .LVU627
	mov	r2, #0
	.loc 1 268 28 view .LVU628
	vstr.32	s16, [r9, #60]
	.loc 1 269 28 view .LVU629
	vstr.32	s16, [r9, #64]
	.loc 1 270 28 view .LVU630
	vstr.32	s16, [r9, #68]
	.loc 1 267 24 view .LVU631
	strb	r2, [r9, #33]
	.loc 1 268 9 is_stmt 1 view .LVU632
	.loc 1 269 9 view .LVU633
	.loc 1 270 9 view .LVU634
	b	.L110
.LVL99:
.L176:
	.loc 1 270 9 is_stmt 0 view .LVU635
.LBE397:
.LBE404:
.LBB405:
	.loc 1 285 7 is_stmt 1 view .LVU636
.LBB406:
.LBI406:
	.loc 2 17 15 view .LVU637
.LBB407:
	.loc 2 17 44 view .LVU638
	.loc 2 17 51 is_stmt 0 view .LVU639
	vsub.f32	s26, s26, s15
.LVL100:
	.loc 2 17 51 view .LVU640
	vsub.f32	s29, s29, s30
.LVL101:
	.loc 2 17 51 view .LVU641
.LBE407:
.LBE406:
.LBB409:
.LBB410:
.LBB411:
.LBB412:
.LBB413:
.LBB414:
	.loc 2 20 66 view .LVU642
	vmul.f32	s15, s26, s26
.LVL102:
	.loc 2 20 66 view .LVU643
.LBE414:
.LBE413:
.LBE412:
.LBE411:
.LBE410:
.LBE409:
.LBB422:
.LBB408:
	.loc 2 17 51 view .LVU644
	vsub.f32	s28, s28, s27
.LVL103:
	.loc 2 17 51 view .LVU645
.LBE408:
.LBE422:
.LBB423:
.LBI409:
	.loc 2 25 15 is_stmt 1 view .LVU646
.LBB419:
	.loc 2 26 2 view .LVU647
.LBB418:
.LBI411:
	.loc 2 23 14 view .LVU648
.LBB417:
	.loc 2 23 35 view .LVU649
.LBB416:
.LBI413:
	.loc 2 20 14 view .LVU650
.LBB415:
	.loc 2 20 43 view .LVU651
	.loc 2 20 60 is_stmt 0 view .LVU652
	vmla.f32	s15, s29, s29
	.loc 2 20 72 view .LVU653
	vmla.f32	s15, s28, s28
.LBE415:
.LBE416:
	.loc 2 23 42 discriminator 1 view .LVU654
	vsqrt.f32	s12, s15
.LVL104:
	.loc 2 23 42 discriminator 1 view .LVU655
.LBE417:
.LBE418:
	.loc 2 27 2 is_stmt 1 view .LVU656
	.loc 2 27 2 is_stmt 0 view .LVU657
.LBE419:
.LBE423:
	.loc 1 286 7 is_stmt 1 view .LVU658
.LBB424:
.LBB420:
	.loc 2 27 9 is_stmt 0 view .LVU659
	vdiv.f32	s13, s29, s12
.LVL105:
	.loc 2 27 9 view .LVU660
	vdiv.f32	s14, s26, s12
.LVL106:
	.loc 2 27 9 view .LVU661
.LBE420:
.LBE424:
	.loc 1 286 21 view .LVU662
	vadd.f32	s13, s13, s18
.LVL107:
.LBB425:
.LBI425:
	.loc 3 25 19 is_stmt 1 view .LVU663
.LBB426:
	.loc 3 25 40 view .LVU664
.LBE426:
.LBE425:
	.loc 1 287 36 is_stmt 0 view .LVU665
	vadd.f32	s14, s14, s19
.LVL108:
.LBB433:
.LBB427:
	.loc 3 25 47 view .LVU666
	vcvt.s32.f32	s10, s13
.LBE427:
.LBE433:
.LBB434:
.LBB421:
	.loc 2 27 9 view .LVU667
	vdiv.f32	s15, s28, s12
.LVL109:
	.loc 2 27 9 view .LVU668
.LBE421:
.LBE434:
.LBB435:
.LBB436:
	.loc 3 25 47 view .LVU669
	vcvt.s32.f32	s11, s14
.LBE436:
.LBE435:
	.loc 1 286 21 view .LVU670
	vadd.f32	s15, s15, s17
.LVL110:
.LBB442:
.LBB428:
	.loc 3 25 58 view .LVU671
	vcvt.f32.s32	s7, s10
.LBE428:
.LBE442:
.LBB443:
.LBB444:
	.loc 3 25 47 view .LVU672
	vcvt.s32.f32	s12, s15
.LVL111:
	.loc 3 25 47 view .LVU673
.LBE444:
.LBE443:
.LBB449:
.LBB429:
	.loc 3 25 58 view .LVU674
	vcmpe.f32	s13, s7
.LBE429:
.LBE449:
.LBB450:
.LBB437:
	vcvt.f32.s32	s8, s11
.LBE437:
.LBE450:
.LBB451:
.LBB430:
	vmrs	APSR_nzcv, FPSCR
.LBE430:
.LBE451:
.LBB452:
.LBB445:
	vcvt.f32.s32	s9, s12
.LBE445:
.LBE452:
.LBB453:
.LBB438:
	vcmpe.f32	s14, s8
.LBE438:
.LBE453:
.LBB454:
.LBB431:
	movmi	r3, #1
	movpl	r3, #0
	.loc 3 25 56 view .LVU675
	vmov	r2, s10	@ int
.LBE431:
.LBE454:
.LBB455:
.LBB439:
	.loc 3 25 58 view .LVU676
	vmrs	APSR_nzcv, FPSCR
.LBE439:
.LBE455:
.LBB456:
.LBB446:
	vcmpe.f32	s15, s9
.LBE446:
.LBE456:
.LBB457:
.LBB432:
	.loc 3 25 56 view .LVU677
	sub	r6, r2, r3
.LVL112:
	.loc 3 25 56 view .LVU678
.LBE432:
.LBE457:
.LBB458:
.LBI435:
	.loc 3 25 19 is_stmt 1 view .LVU679
.LBB440:
	.loc 3 25 40 view .LVU680
	.loc 3 25 58 is_stmt 0 view .LVU681
	movmi	r3, #1
	movpl	r3, #0
	.loc 3 25 56 view .LVU682
	vmov	r2, s11	@ int
.LBE440:
.LBE458:
.LBB459:
.LBB447:
	.loc 3 25 58 view .LVU683
	vmrs	APSR_nzcv, FPSCR
.LBE447:
.LBE459:
.LBB460:
.LBB441:
	.loc 3 25 56 view .LVU684
	sub	r5, r2, r3
.LVL113:
	.loc 3 25 56 view .LVU685
.LBE441:
.LBE460:
.LBB461:
.LBI443:
	.loc 3 25 19 is_stmt 1 view .LVU686
.LBB448:
	.loc 3 25 40 view .LVU687
	.loc 3 25 56 is_stmt 0 view .LVU688
	vmov	ip, s12	@ int
	.loc 3 25 58 view .LVU689
	movmi	r3, #1
	movpl	r3, #0
	.loc 3 25 56 view .LVU690
	sub	r7, ip, r3
.LVL114:
	.loc 3 25 56 view .LVU691
.LBE448:
.LBE461:
	.loc 1 286 21 discriminator 1 view .LVU692
	add	r2, r5, #2
	mov	r1, r6
	mov	r3, r7
	ldr	r0, [r8, #40]
	bl	World_GetBlock
.LVL115:
	.loc 1 288 28 discriminator 1 view .LVU693
	add	r2, r5, #1
	.loc 1 286 21 discriminator 1 view .LVU694
	mov	r5, r0
.LVL116:
	.loc 1 288 7 is_stmt 1 view .LVU695
	.loc 1 288 28 is_stmt 0 discriminator 1 view .LVU696
	mov	r3, r7
	mov	r1, r6
	ldr	r0, [r8, #40]
	bl	World_GetBlock
.LVL117:
	.loc 1 290 7 is_stmt 1 view .LVU697
	.loc 1 290 10 is_stmt 0 view .LVU698
	clz	r5, r5
.LVL118:
	.loc 1 290 10 view .LVU699
	cmp	r0, #0
	lsr	r5, r5, #5
	moveq	r5, #0
	cmp	r5, #0
	beq	.L115
	.loc 1 290 60 is_stmt 1 discriminator 1 view .LVU700
.LVL119:
.LBB462:
.LBI462:
	.loc 1 195 6 view .LVU701
.LBB463:
	.loc 1 196 2 view .LVU702
	.loc 1 196 5 is_stmt 0 view .LVU703
	ldrb	r3, [r8, #32]	@ zero_extendqisi2
	cmp	r3, #0
	beq	.L115
	.loc 1 196 23 discriminator 1 view .LVU704
	ldrb	r3, [r8, #35]	@ zero_extendqisi2
	cmp	r3, #0
	bne	.L115
	.loc 1 197 3 is_stmt 1 view .LVU705
	.loc 1 197 31 is_stmt 0 view .LVU706
	vldr.32	s15, .L180+56
	vmul.f32	s13, s23, s15
	.loc 1 198 31 view .LVU707
	vmul.f32	s15, s24, s15
	.loc 1 201 21 view .LVU708
	strb	r3, [r8, #36]
	.loc 1 199 22 view .LVU709
	ldr	r3, .L180+52
	vldr.32	s14, [r8, #28]
	str	r3, [r8, #64]	@ float
	.loc 1 200 18 view .LVU710
	mov	r3, #1
	.loc 1 197 22 view .LVU711
	vstr.32	s13, [r8, #60]
	.loc 1 198 3 is_stmt 1 view .LVU712
	.loc 1 198 22 is_stmt 0 view .LVU713
	vstr.32	s15, [r8, #68]
	.loc 1 199 3 is_stmt 1 view .LVU714
	.loc 1 200 3 view .LVU715
	.loc 1 201 3 view .LVU716
.LVL120:
	.loc 1 201 3 is_stmt 0 view .LVU717
.LBE463:
.LBE462:
.LBE405:
	.loc 1 293 5 is_stmt 1 view .LVU718
.LBB466:
.LBB465:
.LBB464:
	.loc 1 200 18 is_stmt 0 view .LVU719
	strb	r3, [r8, #33]
.LVL121:
.L116:
	.loc 1 200 18 view .LVU720
.LBE464:
.LBE465:
.LBE466:
	.loc 1 294 5 is_stmt 1 view .LVU721
	.loc 1 294 28 is_stmt 0 discriminator 1 view .LVU722
	vcmpe.f32	s14, #0
	vmrs	APSR_nzcv, FPSCR
	bpl	.L122
	.loc 1 294 57 is_stmt 1 discriminator 2 view .LVU723
	.loc 1 294 75 is_stmt 0 discriminator 2 view .LVU724
	vldr.32	s13, .L180+60
	vadd.f32	s14, s14, s13
	.loc 1 304 24 view .LVU725
	vldr.32	s15, [r8, #64]
	.loc 1 294 75 discriminator 2 view .LVU726
	vstr.32	s14, [r8, #28]
	.loc 1 296 5 is_stmt 1 view .LVU727
	b	.L120
.LVL122:
.L94:
	.loc 1 216 23 discriminator 1 view .LVU728
	.loc 1 216 42 is_stmt 0 discriminator 1 view .LVU729
	vstr.32	s16, [r8, #64]
	.loc 1 218 3 is_stmt 1 view .LVU730
.LVL123:
	.loc 1 219 3 view .LVU731
	.loc 1 224 10 view .LVU732
	.loc 1 216 42 is_stmt 0 discriminator 1 view .LVU733
	vmov.f32	s15, s16
	vldr.32	s14, .L180+60
	b	.L97
.LVL124:
.L178:
	.loc 1 306 83 discriminator 1 view .LVU734
	vldr.32	s13, .L180+64
	vcmpe.f32	s14, s13
	vmrs	APSR_nzcv, FPSCR
	movgt	r3, #1
	movle	r3, #0
	b	.L128
.L177:
	.loc 1 305 83 discriminator 1 view .LVU735
	vldr.32	s12, .L180+64
	vcmpe.f32	s13, s12
	vmrs	APSR_nzcv, FPSCR
	movgt	r3, #1
	movle	r3, #0
	b	.L125
.LVL125:
.L95:
	.loc 1 224 10 is_stmt 1 view .LVU736
	.loc 1 226 8 view .LVU737
	.loc 1 226 11 is_stmt 0 view .LVU738
	vldr.32	s14, .L180+68
	.loc 1 226 18 view .LVU739
	ldrb	r3, [r8, #36]	@ zero_extendqisi2
	.loc 1 226 11 view .LVU740
	cmp	r3, #0
	movne	r4, r3
	vmoveq.f32	s14, s20
	b	.L97
.LVL126:
.L107:
.LBB467:
.LBB398:
	.loc 1 266 55 is_stmt 1 discriminator 3 view .LVU741
	.loc 1 266 72 is_stmt 0 discriminator 3 view .LVU742
	mov	r2, #1
	strb	r2, [r9, #32]
	b	.L108
.LVL127:
.L121:
	.loc 1 266 72 discriminator 3 view .LVU743
.LBE398:
.LBE467:
.LBB468:
.LBB403:
	.loc 2 17 51 view .LVU744
	vsub.f32	s18, s18, s30
.LVL128:
	.loc 2 17 51 view .LVU745
	vsub.f32	s17, s17, s27
.LVL129:
	.loc 2 17 51 view .LVU746
.LBE403:
.LBE468:
	.loc 1 296 98 discriminator 4 view .LVU747
	vcmp.f32	s18, #0
	.loc 1 296 63 discriminator 3 view .LVU748
	vldr.32	s15, [r8, #4]
	.loc 1 296 98 discriminator 4 view .LVU749
	vmrs	APSR_nzcv, FPSCR
	.loc 1 296 118 discriminator 5 view .LVU750
	vcmp.f32	s17, #0
	.loc 1 296 98 discriminator 4 view .LVU751
	movne	r3, #1
	moveq	r3, #0
	.loc 1 296 118 discriminator 5 view .LVU752
	vmrs	APSR_nzcv, FPSCR
	.loc 1 296 63 discriminator 3 view .LVU753
	vcmpe.f32	s15, s19
	.loc 1 296 118 discriminator 5 view .LVU754
	moveq	r3, #0
	andne	r3, r3, #1
	.loc 1 296 63 discriminator 3 view .LVU755
	vmrs	APSR_nzcv, FPSCR
	.loc 1 296 118 discriminator 5 view .LVU756
	movle	r3, #0
	andgt	r3, r3, #1
	cmp	r3, #0
	beq	.L122
	.loc 1 298 7 is_stmt 1 view .LVU757
	.loc 1 298 16 is_stmt 0 view .LVU758
	ldm	r8, {r0, r1, r2}
	.loc 1 299 24 view .LVU759
	mov	r3, #1
	strb	r3, [r8, #32]
	.loc 1 298 16 view .LVU760
	add	r3, sp, #120
.LVL130:
	.loc 1 299 24 view .LVU761
	vldr.32	s15, .L180+72
	.loc 1 298 16 view .LVU762
	stm	r3, {r0, r1, r2}
.LVL131:
	.loc 1 299 7 is_stmt 1 view .LVU763
	.loc 1 300 7 view .LVU764
	b	.L120
.LBE471:
	.cfi_endproc
.LFE154:
	.size	Player_Move, .-Player_Move
	.section	.rodata.str1.4
	.align	2
.LC43:
	.ascii	"romfs:/assets/sound/entity/player/hit.opus\000"
	.section	.text.Player_PlaceBlock,"ax",%progbits
	.align	2
	.global	Player_PlaceBlock
	.syntax unified
	.arm
	.type	Player_PlaceBlock, %function
Player_PlaceBlock:
.LVL132:
.LFB155:
	.loc 1 313 54 view -0
	.cfi_startproc
	@ args = 0, pretend = 0, frame = 0
	@ frame_needed = 0, uses_anonymous_args = 0
	.loc 1 314 2 view .LVU766
	.loc 1 313 54 is_stmt 0 view .LVU767
	push	{r4, r5, r6, r7, lr}
	.cfi_def_cfa_offset 20
	.cfi_offset 4, -20
	.cfi_offset 5, -16
	.cfi_offset 6, -12
	.cfi_offset 7, -8
	.cfi_offset 14, -4
	mov	r4, r0
	.loc 1 314 12 view .LVU768
	ldr	r0, [r0, #40]
.LVL133:
	.loc 1 314 59 discriminator 2 view .LVU769
	vldr.32	s15, [r4, #76]
	.loc 1 314 5 view .LVU770
	cmp	r0, #0
	.loc 1 313 54 view .LVU771
	sub	sp, sp, #12
	.cfi_def_cfa_offset 32
	.loc 1 314 5 view .LVU772
	beq	.L183
	.loc 1 314 20 discriminator 1 view .LVU773
	ldrb	r3, [r4, #193]	@ zero_extendqisi2
	cmp	r3, #0
	bne	.L209
.LVL134:
.L183:
	.loc 1 331 2 is_stmt 1 view .LVU774
	.loc 1 331 5 is_stmt 0 view .LVU775
	vcmpe.f32	s15, #0
	vmrs	APSR_nzcv, FPSCR
	.loc 1 331 39 is_stmt 1 discriminator 1 view .LVU776
	.loc 1 331 65 is_stmt 0 discriminator 1 view .LVU777
	ldrmi	r3, .L210+16
	strmi	r3, [r4, #76]	@ float
.L182:
	.loc 1 332 1 view .LVU778
	add	sp, sp, #12
	.cfi_remember_state
	.cfi_def_cfa_offset 20
	@ sp needed
	pop	{r4, r5, r6, r7, pc}
.LVL135:
.L209:
	.cfi_restore_state
	.loc 1 314 50 discriminator 2 view .LVU779
	vcmpe.f32	s15, #0
	vmrs	APSR_nzcv, FPSCR
	bpl	.L182
.LBB472:
	.loc 1 315 3 is_stmt 1 view .LVU780
	.loc 1 315 14 is_stmt 0 view .LVU781
	ldrb	r2, [r4, #188]	@ zero_extendqisi2
	ldr	r3, .L210+20
	add	r2, r2, r2, lsl #1
	.loc 1 318 37 view .LVU782
	ldr	ip, [r3, r2, lsl #2]
	mov	r6, r1
	ldr	r1, [r4, #172]
.LVL136:
	.loc 1 316 7 view .LVU783
	vldr.32	s15, [r4]
	.loc 1 318 37 view .LVU784
	add	r1, r1, ip
	.loc 1 316 7 view .LVU785
	vmov	s14, r1	@ int
	vldr.32	s12, .L210
.LBB473:
.LBB474:
	.loc 3 33 19 view .LVU786
	vldr.32	s13, .L210+4
.LBE474:
.LBE473:
	.loc 1 316 7 view .LVU787
	vcvt.f32.s32	s14, s14
	vsub.f32	s15, s15, s12
.LBB479:
.LBB475:
	.loc 3 33 19 view .LVU788
	vadd.f32	s11, s14, s13
	.loc 3 33 78 view .LVU789
	vcmpe.f32	s15, s11
	vmrs	APSR_nzcv, FPSCR
.LBE475:
.LBE479:
	.loc 1 315 14 view .LVU790
	add	r3, r3, r2, lsl #2
.LVL137:
	.loc 1 316 3 is_stmt 1 view .LVU791
	.loc 1 318 72 is_stmt 0 view .LVU792
	ldr	ip, [r3, #4]
	ldr	r2, [r4, #176]
	.loc 1 316 7 view .LVU793
	vldr.32	s10, [r4, #4]
	.loc 1 318 72 view .LVU794
	add	r2, r2, ip
	.loc 1 319 28 view .LVU795
	ldr	ip, [r3, #8]
	ldr	r3, [r4, #180]
.LVL138:
	.loc 1 317 22 view .LVU796
	vldr.32	s9, [r4, #8]
	.loc 1 319 28 view .LVU797
	add	r3, r3, ip
.LVL139:
.LBB480:
.LBI473:
	.loc 3 32 19 is_stmt 1 view .LVU798
.LBB476:
	.loc 3 33 2 view .LVU799
	.loc 3 33 78 is_stmt 0 view .LVU800
	bhi	.L186
	.loc 3 33 30 discriminator 1 view .LVU801
	vldr.32	s11, .L210+8
	vadd.f32	s15, s15, s11
.LVL140:
	.loc 3 33 24 discriminator 1 view .LVU802
	vcmpe.f32	s14, s15
	vmrs	APSR_nzcv, FPSCR
	bhi	.L186
.LBE476:
.LBE480:
	.loc 1 316 7 view .LVU803
	vmov	s15, r2	@ int
	vcvt.f32.s32	s15, s15
.LVL141:
.LBB481:
.LBB477:
	.loc 3 33 55 discriminator 3 view .LVU804
	vadd.f32	s14, s15, s13
.LVL142:
	.loc 3 33 42 discriminator 3 view .LVU805
	vcmpe.f32	s10, s14
	vmrs	APSR_nzcv, FPSCR
	bhi	.L186
	.loc 3 33 66 discriminator 5 view .LVU806
	vldr.32	s14, .L210+12
	vadd.f32	s10, s10, s14
.LVL143:
	.loc 3 33 60 discriminator 5 view .LVU807
	vcmpe.f32	s15, s10
	vmrs	APSR_nzcv, FPSCR
	bhi	.L186
.LBE477:
.LBE481:
	.loc 1 316 7 view .LVU808
	vmov	s15, r3	@ int
.LVL144:
	.loc 1 316 7 view .LVU809
	vcvt.f32.s32	s15, s15
.LVL145:
	.loc 1 316 7 view .LVU810
	vsub.f32	s9, s9, s12
.LVL146:
.LBB482:
.LBB478:
	.loc 3 33 91 discriminator 7 view .LVU811
	vadd.f32	s13, s15, s13
	.loc 3 33 78 discriminator 7 view .LVU812
	vcmpe.f32	s9, s13
	vmrs	APSR_nzcv, FPSCR
	bhi	.L186
	.loc 3 33 102 discriminator 9 view .LVU813
	vadd.f32	s9, s9, s11
.LVL147:
	.loc 3 33 96 discriminator 9 view .LVU814
	vcmpe.f32	s15, s9
	vmrs	APSR_nzcv, FPSCR
	bls	.L182
.LVL148:
.L186:
	.loc 3 33 96 discriminator 9 view .LVU815
.LBE478:
.LBE482:
	.loc 1 321 3 is_stmt 1 view .LVU816
	.loc 1 322 75 is_stmt 0 view .LVU817
	ldr	ip, [r4, #136]
	.loc 1 327 3 view .LVU818
	ldr	r5, .L210+24
	.loc 1 321 3 view .LVU819
	add	ip, ip, ip, lsl #1
	add	ip, r4, ip
	ldrb	lr, [ip, #145]	@ zero_extendqisi2
	.loc 1 327 3 view .LVU820
	add	r7, r5, #32
	.loc 1 321 3 view .LVU821
	str	lr, [sp, #4]
.LVL149:
	.loc 1 321 3 view .LVU822
	ldrb	ip, [ip, #144]	@ zero_extendqisi2
	str	ip, [sp]
	bl	World_SetBlockAndMeta
.LVL150:
	.loc 1 324 3 is_stmt 1 view .LVU823
	.loc 1 324 21 is_stmt 0 view .LVU824
	mov	r3, #0
	.loc 1 327 3 view .LVU825
	mov	r0, r6
	.loc 1 324 21 view .LVU826
	strb	r3, [r6, #128]
	.loc 1 325 3 is_stmt 1 view .LVU827
.LVL151:
	.loc 1 326 3 view .LVU828
	.loc 1 326 18 is_stmt 0 view .LVU829
	strb	r3, [r6]
	.loc 1 327 3 is_stmt 1 view .LVU830
	bl	strlen
.LVL152:
	add	ip, r6, r0
.L193:
	mov	lr, r5
	add	ip, ip, #16
	ldmia	lr!, {r0, r1, r2, r3}
	cmp	lr, r7
	add	r5, r5, #16
	str	r0, [ip, #-16]	@ unaligned
	str	r1, [ip, #-12]	@ unaligned
	str	r2, [ip, #-8]	@ unaligned
	str	r3, [ip, #-4]	@ unaligned
	bne	.L193
	ldmia	r5!, {r0, r1}
	ldrh	r3, [r5]	@ unaligned
	str	r0, [ip]	@ unaligned
	strh	r3, [ip, #8]	@ unaligned
	ldrb	r3, [r5, #2]	@ zero_extendqisi2
	.loc 1 329 3 is_stmt 0 view .LVU831
	mov	r0, r6
	.loc 1 327 3 view .LVU832
	str	r1, [ip, #4]	@ unaligned
	strb	r3, [ip, #10]
	.loc 1 329 3 is_stmt 1 view .LVU833
	bl	playopus
.LVL153:
	vldr.32	s15, [r4, #76]
	b	.L183
.L211:
	.align	2
.L210:
	.word	1051092582
	.word	1065353216
	.word	1059481190
	.word	1072064102
	.word	1045220557
	.word	DirectionToOffset
	.word	.LC43
.LBE472:
	.cfi_endproc
.LFE155:
	.size	Player_PlaceBlock, .-Player_PlaceBlock
	.section	.text.Player_BreakBlock,"ax",%progbits
	.align	2
	.global	Player_BreakBlock
	.syntax unified
	.arm
	.type	Player_BreakBlock, %function
Player_BreakBlock:
.LVL154:
.LFB156:
	.loc 1 334 40 view -0
	.cfi_startproc
	@ args = 0, pretend = 0, frame = 0
	@ frame_needed = 0, uses_anonymous_args = 0
	.loc 1 335 2 view .LVU835
	.loc 1 334 40 is_stmt 0 view .LVU836
	push	{r4, lr}
	.cfi_def_cfa_offset 8
	.cfi_offset 4, -8
	.cfi_offset 14, -4
	mov	r4, r0
	.loc 1 335 12 view .LVU837
	ldr	r0, [r0, #40]
.LVL155:
	.loc 1 335 59 discriminator 2 view .LVU838
	vldr.32	s15, [r4, #76]
	.loc 1 335 5 view .LVU839
	cmp	r0, #0
	.loc 1 334 40 view .LVU840
	sub	sp, sp, #8
	.cfi_def_cfa_offset 16
	.loc 1 335 5 view .LVU841
	beq	.L213
	.loc 1 335 20 discriminator 1 view .LVU842
	ldrb	r3, [r4, #193]	@ zero_extendqisi2
	cmp	r3, #0
	bne	.L226
.L213:
	.loc 1 338 2 is_stmt 1 view .LVU843
	.loc 1 338 5 is_stmt 0 view .LVU844
	vcmpe.f32	s15, #0
	vmrs	APSR_nzcv, FPSCR
	.loc 1 338 39 is_stmt 1 discriminator 1 view .LVU845
	.loc 1 338 65 is_stmt 0 discriminator 1 view .LVU846
	ldrmi	r3, .L227
	strmi	r3, [r4, #76]	@ float
.L212:
	.loc 1 339 1 view .LVU847
	add	sp, sp, #8
	.cfi_remember_state
	.cfi_def_cfa_offset 8
	@ sp needed
	pop	{r4, pc}
.LVL156:
.L226:
	.cfi_restore_state
	.loc 1 335 50 discriminator 2 view .LVU848
	vcmpe.f32	s15, #0
	vmrs	APSR_nzcv, FPSCR
	bpl	.L212
	.loc 1 336 3 is_stmt 1 view .LVU849
	ldrd	r2, [r4, #176]
	mov	ip, #0
	ldr	r1, [r4, #172]
	str	ip, [sp]
	bl	World_SetBlock
.LVL157:
	vldr.32	s15, [r4, #76]
	b	.L213
.L228:
	.align	2
.L227:
	.word	1045220557
	.cfi_endproc
.LFE156:
	.size	Player_BreakBlock, .-Player_BreakBlock
	.global	GravityPlusFriction
	.global	MaxFallVelocity
	.global	MaxWalkVelocity
	.section	.rodata
	.align	2
	.set	.LANCHOR0,. + 0
.LC37:
	.word	0
	.word	2
	.word	1
	.type	GravityPlusFriction, %object
	.size	GravityPlusFriction, 4
GravityPlusFriction:
	.word	1092616192
	.type	MaxFallVelocity, %object
	.size	MaxFallVelocity, 4
MaxFallVelocity:
	.word	-1035468800
	.type	MaxWalkVelocity, %object
	.size	MaxWalkVelocity, 4
MaxWalkVelocity:
	.word	1082759578
	.text
.Letext0:
	.file 5 "C:/devkitPro/devkitARM/arm-none-eabi/include/machine/_default_types.h"
	.file 6 "C:/devkitPro/devkitARM/arm-none-eabi/include/sys/_stdint.h"
	.file 7 "C:/Users/Elias/CLionProjects/3DSCraft/include/world/Direction.h"
	.file 8 "C:/Users/Elias/CLionProjects/3DSCraft/include/blocks/Block.h"
	.file 9 "C:/Users/Elias/CLionProjects/3DSCraft/include/misc/Xorshift.h"
	.file 10 "C:/devkitPro/devkitARM/lib/gcc/arm-none-eabi/13.2.0/include/stddef.h"
	.file 11 "C:/devkitPro/devkitARM/arm-none-eabi/include/sys/lock.h"
	.file 12 "C:/Users/Elias/CLionProjects/3DSCraft/include/rendering/VBOCache.h"
	.file 13 "C:/Users/Elias/CLionProjects/3DSCraft/include/world/Chunk.h"
	.file 14 "C:/devkitPro/libctru/include/3ds/types.h"
	.file 15 "C:/devkitPro/libctru/include/3ds/synchronization.h"
	.file 16 "C:/devkitPro/libctru/include/3ds/thread.h"
	.file 17 "C:/devkitPro/libctru/include/3ds/services/csnd.h"
	.file 18 "C:/devkitPro/libctru/include/3ds/services/ndm.h"
	.file 19 "C:/devkitPro/libctru/include/3ds/gpu/enums.h"
	.file 20 "C:/devkitPro/libctru/include/3ds/ndsp/channel.h"
	.file 21 "C:/devkitPro/libctru/include/3ds/applets/error.h"
	.file 22 "C:/Users/Elias/CLionProjects/3DSCraft/include/world/WorkQueue.h"
	.file 23 "C:/Users/Elias/CLionProjects/3DSCraft/include/world/World.h"
	.file 24 "C:/Users/Elias/CLionProjects/3DSCraft/include/blocks/Item.h"
	.file 25 "C:/Users/Elias/CLionProjects/3DSCraft/include/inventory/ItemStack.h"
	.file 26 "C:/Users/Elias/CLionProjects/3DSCraft/include/entity/Damage.h"
	.file 27 "C:/Users/Elias/CLionProjects/3DSCraft/include/misc/Raycast.h"
	.file 28 "C:/devkitPro/portlibs/3ds/include/opus/opusfile.h"
	.file 29 "C:/Users/Elias/CLionProjects/3DSCraft/include/misc/Sound.h"
	.file 30 "C:/Users/Elias/CLionProjects/3DSCraft/include/entity/Player.h"
	.file 31 "C:/devkitPro/devkitARM/arm-none-eabi/include/string.h"
	.file 32 "C:/devkitPro/devkitARM/arm-none-eabi/include/math.h"
	.file 33 "C:/devkitPro/libctru/include/3ds/svc.h"
	.file 34 "C:/Users/Elias/CLionProjects/3DSCraft/include/gui/DebugUI.h"
	.file 35 "<built-in>"