	.arch armv6k
	.fpu vfp
	.eabi_attribute 28, 1
	.eabi_attribute 20, 1
	.eabi_attribute 21, 1
	.eabi_attribute 23, 3
	.eabi_attribute 24, 1
	.eabi_attribute 25, 1
	.eabi_attribute 26, 1
	.eabi_attribute 30, 2
	.eabi_attribute 34, 1
	.eabi_attribute 18, 4
	.file	"PolyGen.c"
	.text
.Ltext0:
	.cfi_sections	.debug_frame
	.file 1 "C:/Users/Elias/CLionProjects/3DSCraft/source/rendering/PolyGen.c"
	.section	.text.floodFill.part.0,"ax",%progbits
	.align	2
	.syntax unified
	.arm
	.type	floodFill.part.0, %function
floodFill.part.0:
.LVL0:
.LFB157:
	.loc 1 170 17 view -0
	.cfi_startproc
	@ args = 12, pretend = 0, frame = 32
	@ frame_needed = 0, uses_anonymous_args = 0
	.loc 1 173 2 view .LVU1
	.loc 1 170 17 is_stmt 0 view .LVU2
	push	{r4, r5, r6, r7, r8, r9, r10, fp, lr}
	.cfi_def_cfa_offset 36
	.cfi_offset 4, -36
	.cfi_offset 5, -32
	.cfi_offset 6, -28
	.cfi_offset 7, -24
	.cfi_offset 8, -20
	.cfi_offset 9, -16
	.cfi_offset 10, -12
	.cfi_offset 11, -8
	.cfi_offset 14, -4
	sub	sp, sp, #36
	.cfi_def_cfa_offset 72
	.loc 1 170 17 view .LVU3
	ldrb	r7, [sp, #72]	@ zero_extendqisi2
	mov	r4, r3
	.loc 1 174 5 view .LVU4
	cmp	r7, #6
	.loc 1 174 62 discriminator 1 view .LVU5
	addne	r3, r7, #32
.LVL1:
	.loc 1 174 62 discriminator 1 view .LVU6
	addne	r7, sp, r3
	.loc 1 173 10 view .LVU7
	mov	r8, #0
	.loc 1 174 62 discriminator 1 view .LVU8
	movne	r3, #1
	.loc 1 170 17 view .LVU9
	ldrb	lr, [sp, #76]	@ zero_extendqisi2
	.loc 1 173 10 view .LVU10
	str	r8, [sp, #24]
	strh	r8, [sp, #28]	@ movhi
	.loc 1 174 2 is_stmt 1 view .LVU11
	.loc 1 174 39 discriminator 1 view .LVU12
	.loc 1 174 62 is_stmt 0 discriminator 1 view .LVU13
	strbne	r3, [r7, #-8]
	.loc 1 175 2 is_stmt 1 view .LVU14
	.loc 1 175 5 is_stmt 0 view .LVU15
	cmp	lr, #6
	.loc 1 175 39 is_stmt 1 discriminator 1 view .LVU16
	.loc 1 175 62 is_stmt 0 discriminator 1 view .LVU17
	addne	r3, lr, #32
	addne	lr, sp, r3
	movne	r3, #1
	.loc 1 170 17 view .LVU18
	ldrb	ip, [sp, #80]	@ zero_extendqisi2
	.loc 1 175 62 discriminator 1 view .LVU19
	strbne	r3, [lr, #-8]
	.loc 1 176 2 is_stmt 1 view .LVU20
	.loc 1 176 5 is_stmt 0 view .LVU21
	cmp	ip, #6
	.loc 1 176 39 is_stmt 1 discriminator 1 view .LVU22
	.loc 1 177 2 view .LVU23
	.loc 1 176 62 is_stmt 0 discriminator 1 view .LVU24
	addne	r3, ip, #32
	addne	ip, sp, r3
	movne	r3, #1
	strbne	r3, [ip, #-8]
	.loc 1 177 30 view .LVU25
	mov	r3, #0
	ldr	r7, .L49
	.loc 1 170 17 view .LVU26
	str	r0, [sp, #8]
	.loc 1 177 30 view .LVU27
	str	r3, [r7, #4]
	.loc 1 178 2 is_stmt 1 view .LVU28
	.loc 1 170 17 is_stmt 0 view .LVU29
	mov	r6, r1
	mov	r5, r2
	.loc 1 178 4 view .LVU30
	mov	r3, #3
	mov	r0, r7
.LVL2:
	.loc 1 178 4 view .LVU31
	add	r2, r7, #8
.LVL3:
	.loc 1 178 4 view .LVU32
	add	r1, r7, #4
.LVL4:
	.loc 1 178 4 view .LVU33
	bl	vec_expand_
.LVL5:
	.loc 1 178 151 discriminator 1 view .LVU34
	cmp	r0, #0
	bne	.L5
	.loc 1 178 197 discriminator 1 view .LVU35
	ldr	r0, [r7, #4]
	.loc 1 178 172 discriminator 1 view .LVU36
	ldr	r2, [r7]
	.loc 1 178 178 discriminator 1 view .LVU37
	add	r1, r0, r0, lsl #1
	.loc 1 178 205 discriminator 1 view .LVU38
	add	r3, r0, #1
	str	r3, [r7, #4]
	.loc 1 180 32 view .LVU39
	cmp	r3, #0
	.loc 1 178 209 discriminator 1 view .LVU40
	strb	r6, [r2, r1]
	.loc 1 178 178 discriminator 1 view .LVU41
	add	r2, r2, r1
	.loc 1 178 209 discriminator 1 view .LVU42
	strb	r5, [r2, #1]
	strb	r4, [r2, #2]
	.loc 1 180 32 is_stmt 1 view .LVU43
	ble	.L19
.LVL6:
.L47:
.LBB84:
	.loc 1 181 3 view .LVU44
	.loc 1 181 41 is_stmt 0 view .LVU45
	ldr	r0, .L49
	.loc 1 181 48 view .LVU46
	sub	r3, r3, #1
	.loc 1 181 41 view .LVU47
	ldr	r1, [r0]
	.loc 1 181 16 view .LVU48
	str	r3, [r0, #4]
	.loc 1 181 47 view .LVU49
	add	r2, r3, r3, lsl #1
	add	r3, r1, r2
.LVL7:
	.loc 1 183 3 is_stmt 1 view .LVU50
.LBB85:
	.loc 1 183 8 view .LVU51
	.loc 1 183 21 discriminator 1 view .LVU52
.LBB86:
	.loc 1 185 16 is_stmt 0 view .LVU53
	ldrsb	r2, [r1, r2]
	.loc 1 185 40 view .LVU54
	ldrsb	fp, [r3, #1]
	.loc 1 185 64 view .LVU55
	ldrsb	r10, [r3, #2]
	ldr	r4, .L49+4
	ldr	r9, .L49+8
	.loc 1 185 16 view .LVU56
	str	r2, [sp, #4]
	add	r8, sp, #24
.LVL8:
.L16:
	.loc 1 184 4 is_stmt 1 view .LVU57
	.loc 1 185 4 view .LVU58
	.loc 1 185 8 is_stmt 0 view .LVU59
	ldr	r3, [sp, #4]
	ldr	r7, [r4]
	.loc 1 185 32 view .LVU60
	ldr	r6, [r4, #4]
	.loc 1 185 56 view .LVU61
	ldr	r5, [r4, #8]
	.loc 1 185 8 view .LVU62
	add	r7, r3, r7
.LVL9:
	.loc 1 185 32 view .LVU63
	add	r6, fp, r6
.LVL10:
	.loc 1 185 56 view .LVU64
	add	r5, r10, r5
.LVL11:
	.loc 1 186 4 is_stmt 1 view .LVU65
	.loc 1 186 28 is_stmt 0 discriminator 1 view .LVU66
	orr	r3, r7, r6
	orr	r3, r3, r5
	.loc 1 186 32 discriminator 1 view .LVU67
	cmp	r3, #15
	.loc 1 187 19 view .LVU68
	movhi	r3, #1
	strbhi	r3, [r8]
	.loc 1 186 32 discriminator 1 view .LVU69
	bhi	.L8
	.loc 1 189 5 is_stmt 1 view .LVU70
	.loc 1 189 77 is_stmt 0 view .LVU71
	ldr	r3, [sp, #8]
	add	r2, r6, r7, lsl #4
	add	r3, r3, r2, lsl #4
	add	r3, r3, r5
	lsl	r2, r2, #4
	str	r2, [sp, #12]
	add	r2, r3, #4096
	.loc 1 189 10 view .LVU72
	ldrb	r1, [r2, #4]	@ zero_extendqisi2
	ldrb	r0, [r3, #4]	@ zero_extendqisi2
	and	r1, r1, #15
	.loc 1 189 77 view .LVU73
	lsl	r3, r7, #4
	str	r3, [sp, #16]
	.loc 1 189 10 view .LVU74
	bl	Block_Opaque
.LVL12:
	.loc 1 189 8 discriminator 1 view .LVU75
	cmp	r0, #0
	bne	.L10
	.loc 1 190 34 view .LVU76
	ldr	r2, [sp, #12]
	ldr	r3, .L49+12
	add	r3, r3, r2
	ldrb	r2, [r3, r5]	@ zero_extendqisi2
	.loc 1 189 88 discriminator 1 view .LVU77
	tst	r2, #1
	beq	.L45
.L10:
	.loc 1 194 5 is_stmt 1 view .LVU78
	.loc 1 194 41 is_stmt 0 view .LVU79
	ldr	r3, [sp, #4]
	ldr	r2, [sp, #8]
	add	r3, fp, r3, lsl #4
	add	r3, r2, r3, lsl #4
	add	r3, r3, r10
	.loc 1 194 8 view .LVU80
	ldrb	r3, [r3, #4]	@ zero_extendqisi2
	cmp	r3, #0
	.loc 1 195 10 view .LVU81
	lsl	r3, r7, #4
	add	r3, r3, r6
	add	r3, r2, r3, lsl #4
	add	r3, r3, r5
	ldrb	r0, [r3, #4]	@ zero_extendqisi2
	.loc 1 194 8 view .LVU82
	bne	.L12
.L15:
	.loc 1 196 30 view .LVU83
	lsl	r3, r7, #4
	add	r2, r3, r6
	ldr	r3, [sp, #8]
	add	r2, r3, r2, lsl #4
	add	r2, r2, r5
	ldrb	r3, [r2, #4]	@ zero_extendqisi2
	.loc 1 195 89 view .LVU84
	cmp	r3, #0
	bne	.L46
.LVL13:
.L8:
	.loc 1 195 89 view .LVU85
.LBE86:
	.loc 1 183 27 is_stmt 1 discriminator 2 view .LVU86
	.loc 1 183 21 discriminator 1 view .LVU87
	ldr	r3, .L49+16
	add	r4, r4, #12
.LVL14:
	.loc 1 183 21 is_stmt 0 discriminator 1 view .LVU88
	cmp	r3, r4
	add	r8, r8, #1
.LVL15:
	.loc 1 183 21 discriminator 1 view .LVU89
	add	r9, r9, #1
	bne	.L16
.LVL16:
.L5:
	.loc 1 183 21 discriminator 1 view .LVU90
.LBE85:
.LBE84:
	.loc 1 178 197 discriminator 1 view .LVU91
	ldr	r3, .L49
	ldr	r3, [r3, #4]
	.loc 1 180 32 is_stmt 1 view .LVU92
	cmp	r3, #0
	bgt	.L47
.L19:
.LVL17:
.LBB98:
	.loc 1 205 20 discriminator 1 view .LVU93
.LBE98:
	.loc 1 204 11 is_stmt 0 view .LVU94
	mov	r0, #0
.LBB107:
.LBB99:
.LBB100:
.LBB101:
	.file 2 "C:/Users/Elias/CLionProjects/3DSCraft/include/world/Chunk.h"
	.loc 2 65 73 view .LVU95
	mov	r5, #1
.LBE101:
.LBE100:
.LBE99:
	.loc 1 205 11 view .LVU96
	mov	r2, r0
	ldr	lr, .L49+20
	add	r4, sp, #23
	b	.L18
.LVL18:
.L20:
	.loc 1 205 26 is_stmt 1 discriminator 2 view .LVU97
	add	r2, r2, #1
.LVL19:
	.loc 1 205 20 discriminator 1 view .LVU98
	cmp	r2, #6
	add	lr, lr, #6
	beq	.L48
.LVL20:
.L18:
	.loc 1 206 3 view .LVU99
	.loc 1 206 6 is_stmt 0 view .LVU100
	ldrb	r3, [r4, #1]!	@ zero_extendqisi2
	cmp	r3, #0
	beq	.L20
.LBB106:
	.loc 1 207 13 view .LVU101
	mov	r3, #0
	add	r1, sp, #24
.L22:
.LVL21:
	.loc 1 208 5 is_stmt 1 view .LVU102
	.loc 1 208 8 is_stmt 0 view .LVU103
	cmp	r2, r3
	beq	.L21
	.loc 1 208 34 is_stmt 1 discriminator 2 view .LVU104
.LVL22:
.LBB104:
.LBI100:
	.loc 2 65 17 view .LVU105
.LBB102:
	.loc 2 65 64 view .LVU106
	.loc 2 65 64 is_stmt 0 view .LVU107
.LBE102:
.LBE104:
	.loc 1 208 16 discriminator 1 view .LVU108
	ldrb	ip, [r1]	@ zero_extendqisi2
	cmp	ip, #0
.LBB105:
.LBB103:
	.loc 2 65 76 view .LVU109
	ldrbne	ip, [lr, r3]	@ zero_extendqisi2
.LBE103:
.LBE105:
	.loc 1 208 44 discriminator 1 view .LVU110
	orrne	r0, r0, r5, lsl ip
.LVL23:
	.loc 1 208 44 discriminator 1 view .LVU111
	uxthne	r0, r0
.LVL24:
.L21:
	.loc 1 207 28 is_stmt 1 discriminator 2 view .LVU112
	add	r3, r3, #1
.LVL25:
	.loc 1 207 22 discriminator 1 view .LVU113
	cmp	r3, #6
	add	r1, r1, #1
	bne	.L22
	.loc 1 207 22 is_stmt 0 discriminator 1 view .LVU114
.LBE106:
	.loc 1 205 26 is_stmt 1 discriminator 2 view .LVU115
	add	r2, r2, #1
.LVL26:
	.loc 1 205 20 discriminator 1 view .LVU116
	cmp	r2, #6
	add	lr, lr, #6
	bne	.L18
.LVL27:
.L48:
	.loc 1 205 20 is_stmt 0 discriminator 1 view .LVU117
.LBE107:
	.loc 1 210 1 view .LVU118
	add	sp, sp, #36
	.cfi_remember_state
	.cfi_def_cfa_offset 36
	@ sp needed
	pop	{r4, r5, r6, r7, r8, r9, r10, fp, pc}
.LVL28:
.L12:
	.cfi_restore_state
.LBB108:
.LBB97:
.LBB96:
	.loc 1 195 77 view .LVU119
	add	r3, r3, #4096
	.loc 1 195 10 view .LVU120
	ldrb	r1, [r3, #4]	@ zero_extendqisi2
	and	r1, r1, #15
	bl	Block_Opaque
.LVL29:
	.loc 1 194 63 discriminator 1 view .LVU121
	cmp	r0, #0
	bne	.L15
	b	.L8
.L46:
	.loc 1 197 6 is_stmt 1 view .LVU122
	.loc 1 198 35 is_stmt 0 view .LVU123
	add	r2, r2, #4096
	.loc 1 197 6 view .LVU124
	ldrb	r2, [r2, #4]	@ zero_extendqisi2
	.loc 1 199 8 view .LVU125
	mov	r0, r3
	.loc 1 197 6 view .LVU126
	and	r2, r2, #15
	.loc 1 199 8 view .LVU127
	str	r3, [sp, #16]
	.loc 1 197 6 view .LVU128
	ldrb	r3, [r9]	@ zero_extendqisi2
	.loc 1 199 8 view .LVU129
	mov	r1, r2
	str	r2, [sp, #20]
	.loc 1 197 6 view .LVU130
	str	r3, [sp, #12]
	.loc 1 199 8 view .LVU131
	bl	Block_Opaque
.LVL30:
.LBB87:
.LBB88:
.LBB89:
.LBB90:
	.loc 1 165 25 view .LVU132
	ldr	r3, .L49
	.loc 1 165 29 view .LVU133
	ldr	r2, .L49+24
	.loc 1 165 25 view .LVU134
	ldr	ip, [r3, #12]
	.loc 1 165 29 view .LVU135
	mov	lr, #0
	strb	r7, [r2, ip, lsl #3]
	.loc 1 166 20 view .LVU136
	mov	r7, r3
.LVL31:
	.loc 1 166 20 view .LVU137
	ldr	r1, [r3, #16]
.LBE90:
.LBE89:
.LBE88:
.LBE87:
	.loc 1 199 7 discriminator 1 view .LVU138
	eor	r0, r0, #1
	uxtb	r0, r0
.LVL32:
.LBB94:
.LBI87:
	.loc 1 163 20 is_stmt 1 view .LVU139
	.loc 1 164 2 view .LVU140
.LBB93:
.LBI88:
	.loc 1 163 20 view .LVU141
.LBB92:
.LBB91:
	.loc 1 165 3 view .LVU142
	.loc 1 166 20 is_stmt 0 view .LVU143
	add	r1, r1, r0
	str	r1, [r3, #16]
	.loc 1 165 29 view .LVU144
	ldr	r3, [sp, #12]
	add	r1, r2, ip, lsl #3
	strb	r3, [r1, #3]
	ldr	r2, [sp, #20]
	ldr	r3, [sp, #16]
	.loc 1 165 25 view .LVU145
	add	ip, ip, #1
	.loc 1 165 29 view .LVU146
	strb	r6, [r1, #1]
	strb	r5, [r1, #2]
	strb	r3, [r1, #4]
	strb	lr, [r1, #5]
	strb	r2, [r1, #6]
	strb	r0, [r1, #7]
	.loc 1 166 3 is_stmt 1 view .LVU147
.LVL33:
	.loc 1 165 25 is_stmt 0 view .LVU148
	str	ip, [r7, #12]
.LBE91:
	.loc 1 168 1 view .LVU149
	b	.L8
.LVL34:
.L45:
	.loc 1 168 1 view .LVU150
.LBE92:
.LBE93:
.LBE94:
.LBB95:
	.loc 1 191 6 is_stmt 1 view .LVU151
	.loc 1 191 33 is_stmt 0 view .LVU152
	orr	r2, r2, #1
	strb	r2, [r3, r5]
	.loc 1 192 6 is_stmt 1 view .LVU153
	.loc 1 192 8 is_stmt 0 view .LVU154
	ldr	r2, .L49+28
	mov	r3, #3
	sub	r1, r2, #4
	sub	r0, r2, #8
	bl	vec_expand_
.LVL35:
	.loc 1 192 155 discriminator 1 view .LVU155
	cmp	r0, #0
	bne	.L10
	.loc 1 192 201 discriminator 1 view .LVU156
	ldr	r0, .L49
	ldr	r2, [r0, #4]
	.loc 1 192 176 discriminator 1 view .LVU157
	ldr	r3, [r0]
	.loc 1 192 182 discriminator 1 view .LVU158
	add	r1, r2, r2, lsl #1
	.loc 1 192 209 discriminator 1 view .LVU159
	add	r2, r2, #1
	str	r2, [r0, #4]
	.loc 1 192 213 discriminator 1 view .LVU160
	strb	r7, [r3, r1]
	.loc 1 192 182 discriminator 1 view .LVU161
	add	r3, r3, r1
	.loc 1 192 213 discriminator 1 view .LVU162
	strb	r6, [r3, #1]
	strb	r5, [r3, #2]
	b	.L10
.L50:
	.align	2
.L49:
	.word	.LANCHOR0
	.word	DirectionToOffset
	.word	DirectionOpposite
	.word	floodfill_visited
	.word	DirectionToOffset+72
	.word	_seethroughTable
	.word	faceBuffer
	.word	.LANCHOR0+8
.LBE95:
.LBE96:
.LBE97:
.LBE108:
	.cfi_endproc
.LFE157:
	.size	floodFill.part.0, .-floodFill.part.0
	.section	.text.PolyGen_Init,"ax",%progbits
	.align	2
	.global	PolyGen_Init
	.syntax unified
	.arm
	.type	PolyGen_Init, %function
PolyGen_Init:
.LVL36:
.LFB150:
	.loc 1 112 51 is_stmt 1 view -0
	.cfi_startproc
	@ args = 0, pretend = 0, frame = 0
	@ frame_needed = 0, uses_anonymous_args = 0
	.loc 1 113 2 view .LVU164
	.loc 1 112 51 is_stmt 0 view .LVU165
	push	{r4, r5, r6, lr}
	.cfi_def_cfa_offset 16
	.cfi_offset 4, -16
	.cfi_offset 5, -12
	.cfi_offset 6, -8
	.cfi_offset 14, -4
	.loc 1 118 2 view .LVU166
	mov	r5, #0
	.loc 1 113 8 view .LVU167
	ldr	r4, .L53
	.loc 1 114 9 view .LVU168
	strd	r0, [r4, #20]
	.loc 1 116 2 is_stmt 1 view .LVU169
	bl	VBOCache_Init
.LVL37:
	.loc 1 118 2 view .LVU170
	.loc 1 120 2 is_stmt 0 view .LVU171
	add	r0, r4, #28
	.loc 1 118 2 view .LVU172
	str	r5, [r4]
	str	r5, [r4, #4]
	str	r5, [r4, #8]
	.loc 1 120 2 is_stmt 1 view .LVU173
	bl	LightLock_Init
.LVL38:
	.loc 1 122 2 view .LVU174
	str	r5, [r4, #32]
	str	r5, [r4, #36]
	str	r5, [r4, #40]
	.loc 1 123 1 is_stmt 0 view .LVU175
	pop	{r4, r5, r6, pc}
.L54:
	.align	2
.L53:
	.word	.LANCHOR0
	.cfi_endproc
.LFE150:
	.size	PolyGen_Init, .-PolyGen_Init
	.section	.text.PolyGen_Deinit,"ax",%progbits
	.align	2
	.global	PolyGen_Deinit
	.syntax unified
	.arm
	.type	PolyGen_Deinit, %function
PolyGen_Deinit:
.LFB151:
	.loc 1 124 23 is_stmt 1 view -0
	.cfi_startproc
	@ args = 0, pretend = 0, frame = 0
	@ frame_needed = 0, uses_anonymous_args = 0
	.loc 1 125 2 view .LVU177
	.loc 1 124 23 is_stmt 0 view .LVU178
	push	{r4, r5, r6, lr}
	.cfi_def_cfa_offset 16
	.cfi_offset 4, -16
	.cfi_offset 5, -12
	.cfi_offset 6, -8
	.cfi_offset 14, -4
	.loc 1 125 22 view .LVU179
	ldr	r4, .L57
	.loc 1 125 31 discriminator 1 view .LVU180
	mov	r5, #0
	.loc 1 125 4 view .LVU181
	mov	r6, r4
	ldr	r0, [r6, #32]!
	bl	free
.LVL39:
	.loc 1 125 31 discriminator 1 view .LVU182
	str	r5, [r4, #32]
	str	r5, [r6, #4]
	str	r5, [r6, #8]
	.loc 1 127 2 is_stmt 1 view .LVU183
	bl	VBOCache_Deinit
.LVL40:
	.loc 1 129 2 view .LVU184
	.loc 1 129 4 is_stmt 0 view .LVU185
	ldr	r0, [r4]
	bl	free
.LVL41:
	.loc 1 129 36 discriminator 1 view .LVU186
	str	r5, [r4]
	str	r5, [r4, #4]
	str	r5, [r4, #8]
	.loc 1 130 1 view .LVU187
	pop	{r4, r5, r6, pc}
.L58:
	.align	2
.L57:
	.word	.LANCHOR0
	.cfi_endproc
.LFE151:
	.size	PolyGen_Deinit, .-PolyGen_Deinit
	.section	.rodata.str1.4,"aMS",%progbits,1
	.align	2
.LC0:
	.ascii	"VBOUpdates %d\000"
	.section	.text.PolyGen_Harvest,"ax",%progbits
	.align	2
	.global	PolyGen_Harvest
	.syntax unified
	.arm
	.type	PolyGen_Harvest, %function
PolyGen_Harvest:
.LFB152:
	.loc 1 132 24 is_stmt 1 view -0
	.cfi_startproc
	@ args = 0, pretend = 0, frame = 48
	@ frame_needed = 0, uses_anonymous_args = 0
	.loc 1 133 2 view .LVU189
	.loc 1 132 24 is_stmt 0 view .LVU190
	push	{r4, r5, r6, r7, r8, r9, r10, fp, lr}
	.cfi_def_cfa_offset 36
	.cfi_offset 4, -36
	.cfi_offset 5, -32
	.cfi_offset 6, -28
	.cfi_offset 7, -24
	.cfi_offset 8, -20
	.cfi_offset 9, -16
	.cfi_offset 10, -12
	.cfi_offset 11, -8
	.cfi_offset 14, -4
	.loc 1 133 6 view .LVU191
	ldr	r5, .L77
	.loc 1 132 24 view .LVU192
	sub	sp, sp, #52
	.cfi_def_cfa_offset 88
	.loc 1 133 6 view .LVU193
	add	r0, r5, #28
	bl	LightLock_TryLock
.LVL42:
	.loc 1 133 5 discriminator 1 view .LVU194
	cmp	r0, #0
	beq	.L76
	.loc 1 156 1 view .LVU195
	add	sp, sp, #52
	.cfi_remember_state
	.cfi_def_cfa_offset 36
	@ sp needed
	pop	{r4, r5, r6, r7, r8, r9, r10, fp, pc}
.L76:
	.cfi_restore_state
	.loc 1 134 3 is_stmt 1 view .LVU196
	ldr	r1, [r5, #36]
	ldr	r0, .L77+4
	bl	DebugUI_Text
.LVL43:
	.loc 1 135 3 view .LVU197
	.loc 1 135 17 is_stmt 0 view .LVU198
	ldr	r2, [r5, #36]
	.loc 1 135 6 view .LVU199
	cmp	r2, #0
	ble	.L61
	.loc 1 136 4 is_stmt 1 view .LVU200
	.loc 1 136 18 is_stmt 0 view .LVU201
	ldr	r3, [r5, #32]
	.loc 1 136 26 view .LVU202
	ldrb	r1, [r3, #36]	@ zero_extendqisi2
	.loc 1 136 32 view .LVU203
	add	r0, r1, #1
	.loc 1 136 7 view .LVU204
	cmp	r1, #2
	.loc 1 136 32 view .LVU205
	strb	r0, [r3, #36]
	.loc 1 136 7 view .LVU206
	bls	.L61
	add	r6, sp, #8
	b	.L65
.LVL44:
.L63:
.LBB109:
	.loc 1 143 7 is_stmt 1 view .LVU207
	.loc 1 143 36 is_stmt 0 view .LVU208
	add	r3, r10, r4
	add	r3, r4, r3, lsl #1
	add	r3, fp, r3, lsl #4
	add	r3, r3, #8192
	.loc 1 143 10 view .LVU209
	ldr	r3, [r3, #60]
	cmp	r3, #0
	.loc 1 144 8 view .LVU210
	add	r3, r4, #1
	.loc 1 143 10 view .LVU211
	bne	.L74
.L64:
	.loc 1 145 7 is_stmt 1 view .LVU212
	.loc 1 145 37 is_stmt 0 view .LVU213
	ldm	r6, {r0, r1}
	add	r2, r10, r4
	add	r4, r4, r2, lsl #1
.LVL45:
	.loc 1 145 37 view .LVU214
	add	r4, fp, r4, lsl #4
	.loc 1 147 48 view .LVU215
	add	r2, r3, r3, lsl #8
	.loc 1 145 37 view .LVU216
	add	r4, r4, #8192
	.loc 1 147 48 view .LVU217
	add	r3, r3, r2, lsl #1
	add	fp, fp, r3, lsl #4
.LVL46:
	.loc 1 145 37 view .LVU218
	add	r3, r4, #40
	stm	r3, {r0, r1}
	.loc 1 146 7 is_stmt 1 view .LVU219
	.loc 1 147 48 is_stmt 0 view .LVU220
	add	r3, sp, #16
	.loc 1 146 42 view .LVU221
	str	r9, [r4, #56]
	.loc 1 147 7 is_stmt 1 view .LVU222
	.loc 1 147 48 is_stmt 0 view .LVU223
	ldm	r3, {r0, r1}
	stm	fp, {r0, r1}
	.loc 1 148 7 is_stmt 1 view .LVU224
	.loc 1 148 53 is_stmt 0 view .LVU225
	str	r8, [r4, #60]
	.loc 1 149 7 is_stmt 1 view .LVU226
	.loc 1 149 44 is_stmt 0 view .LVU227
	strh	r7, [r4, #32]	@ movhi
.L62:
.LVL47:
	.loc 1 149 44 view .LVU228
.LBE109:
	.loc 1 137 30 is_stmt 1 view .LVU229
	.loc 1 137 22 is_stmt 0 view .LVU230
	ldr	r2, [r5, #36]
	.loc 1 137 30 view .LVU231
	cmp	r2, #0
	ble	.L61
.LBB110:
	.loc 1 138 38 view .LVU232
	ldr	r3, [r5, #32]
.LVL48:
.L65:
	.loc 1 138 6 is_stmt 1 view .LVU233
	.loc 1 138 45 is_stmt 0 view .LVU234
	sub	r2, r2, #1
	.loc 1 138 44 view .LVU235
	add	r1, r2, r2, lsl #2
	add	fp, r3, r1, lsl #3
	.loc 1 138 16 view .LVU236
	mov	lr, fp
	mov	ip, r6
	str	r2, [r5, #36]
	ldmia	lr!, {r0, r1, r2, r3}
	stmia	ip!, {r0, r1, r2, r3}
	ldmia	lr!, {r0, r1, r2, r3}
	stmia	ip!, {r0, r1, r2, r3}
	ldm	lr, {r0, r1}
	.loc 1 140 21 view .LVU237
	ldr	r2, [fp, #24]
	.loc 1 138 16 view .LVU238
	stm	ip, {r0, r1}
.LVL49:
	.loc 1 140 21 view .LVU239
	ldr	r1, [fp, #16]
	ldr	r0, [r5, #20]
	.loc 1 138 16 view .LVU240
	ldr	r4, [fp, #20]
.LVL50:
	.loc 1 138 16 view .LVU241
	ldr	r9, [fp, #28]
.LVL51:
	.loc 1 138 16 view .LVU242
	ldr	r8, [fp, #32]
	ldrh	r7, [fp, #38]
	.loc 1 140 6 is_stmt 1 view .LVU243
	.loc 1 140 21 is_stmt 0 view .LVU244
	bl	World_GetChunk
.LVL52:
	.loc 1 142 7 is_stmt 1 view .LVU245
	.loc 1 141 6 view .LVU246
	.loc 1 141 9 is_stmt 0 view .LVU247
	subs	fp, r0, #0
	beq	.L62
	.loc 1 142 36 view .LVU248
	add	r3, r4, r4, lsl #8
	add	r3, r4, r3, lsl #1
	add	r3, fp, r3, lsl #4
	add	r3, r3, #8192
	.loc 1 142 10 view .LVU249
	ldr	r2, [r3, #56]
	.loc 1 142 36 view .LVU250
	lsl	r10, r4, #8
	.loc 1 142 10 view .LVU251
	cmp	r2, #0
	beq	.L63
	.loc 1 142 51 is_stmt 1 discriminator 1 view .LVU252
	add	r3, r3, #40
	ldm	r3, {r0, r1}
.LVL53:
	.loc 1 142 51 is_stmt 0 discriminator 1 view .LVU253
	bl	VBO_Free
.LVL54:
	b	.L63
.LVL55:
.L61:
	.loc 1 142 51 discriminator 1 view .LVU254
.LBE110:
	.loc 1 154 3 is_stmt 1 view .LVU255
	ldr	r0, .L77+8
	.loc 1 156 1 is_stmt 0 view .LVU256
	add	sp, sp, #52
	.cfi_remember_state
	.cfi_def_cfa_offset 36
	@ sp needed
	pop	{r4, r5, r6, r7, r8, r9, r10, fp, lr}
	.cfi_restore 14
	.cfi_restore 11
	.cfi_restore 10
	.cfi_restore 9
	.cfi_restore 8
	.cfi_restore 7
	.cfi_restore 6
	.cfi_restore 5
	.cfi_restore 4
	.cfi_def_cfa_offset 0
	.loc 1 154 3 view .LVU257
	b	LightLock_Unlock
.LVL56:
.L74:
	.cfi_restore_state
.LBB111:
	.loc 1 144 8 is_stmt 1 view .LVU258
	add	r1, r3, r3, lsl #8
	add	r1, r3, r1, lsl #1
	add	r1, fp, r1, lsl #4
	ldm	r1, {r0, r1}
	str	r3, [sp, #4]
	bl	VBO_Free
.LVL57:
	ldr	r3, [sp, #4]
	b	.L64
.L78:
	.align	2
.L77:
	.word	.LANCHOR0
	.word	.LC0
	.word	.LANCHOR0+28
.LBE111:
	.cfi_endproc
.LFE152:
	.size	PolyGen_Harvest, .-PolyGen_Harvest
	.section	.text.PolyGen_GeneratePolygons,"ax",%progbits
	.align	2
	.global	PolyGen_GeneratePolygons
	.syntax unified
	.arm
	.type	PolyGen_GeneratePolygons, %function
PolyGen_GeneratePolygons:
.LVL58:
.LFB155:
	.loc 1 212 78 view -0
	.cfi_startproc
	@ args = 4, pretend = 0, frame = 168
	@ frame_needed = 0, uses_anonymous_args = 0
	.loc 1 212 78 is_stmt 0 view .LVU260
	push	{r4, r5, r6, r7, r8, r9, r10, fp, lr}
	.cfi_def_cfa_offset 36
	.cfi_offset 4, -36
	.cfi_offset 5, -32
	.cfi_offset 6, -28
	.cfi_offset 7, -24
	.cfi_offset 8, -20
	.cfi_offset 9, -16
	.cfi_offset 10, -12
	.cfi_offset 11, -8
	.cfi_offset 14, -4
	mov	fp, r2
.LVL59:
	.loc 1 213 2 is_stmt 1 view .LVU261
.LBB188:
	.loc 1 213 7 view .LVU262
	.loc 1 213 20 discriminator 1 view .LVU263
.LBE188:
	.loc 1 212 78 is_stmt 0 view .LVU264
	sub	sp, sp, #188
	.cfi_def_cfa_offset 224
	.loc 1 212 78 view .LVU265
	add	r0, sp, #108
.LVL60:
	.loc 1 212 78 view .LVU266
	stm	r0, {r1, r2, r3}
	mov	r3, #0
	add	r4, fp, #65536
	add	r1, fp, #28
.LBB379:
.LBB189:
.LBB190:
	.loc 1 220 16 view .LVU267
	ldr	r8, .L188
	add	r2, r2, #8192
.LVL61:
	.loc 1 220 16 view .LVU268
	str	r1, [sp, #56]
	add	r1, r4, #412
	add	r2, r2, #28
	str	r1, [sp, #72]
	.loc 1 378 6 view .LVU269
	add	r1, r8, #36
.LBE190:
.LBE189:
	.loc 1 213 11 view .LVU270
	str	r4, [sp, #88]
.LBE379:
	.loc 1 212 78 view .LVU271
	str	r3, [sp, #60]
.LBB380:
	.loc 1 213 11 view .LVU272
	mov	r4, r2
.LBB376:
.LBB371:
	.loc 1 378 6 view .LVU273
	str	r1, [sp, #84]
.LBE371:
.LBE376:
	.loc 1 213 11 view .LVU274
	str	r3, [sp, #52]
	b	.L134
.LVL62:
.L174:
.LBB377:
	.loc 1 216 49 discriminator 1 view .LVU275
	ldrb	r2, [r4, #40]	@ zero_extendqisi2
	cmp	r2, #0
	bne	.L80
.LVL63:
.L81:
	.loc 1 216 49 discriminator 1 view .LVU276
.LBE377:
	.loc 1 213 39 is_stmt 1 discriminator 2 view .LVU277
	.loc 1 213 20 is_stmt 0 discriminator 1 view .LVU278
	ldr	r3, [sp, #56]
	ldr	r1, [sp, #72]
	add	r3, r3, #8192
	add	r3, r3, #48
	ldr	r2, [sp, #60]
	str	r3, [sp, #56]
	cmp	r3, r1
	.loc 1 213 39 discriminator 2 view .LVU279
	ldr	r3, [sp, #52]
	.loc 1 213 20 discriminator 1 view .LVU280
	add	r2, r2, #8192
	.loc 1 213 39 discriminator 2 view .LVU281
	add	r3, r3, #1
	.loc 1 213 20 discriminator 1 view .LVU282
	add	r4, r4, #8192
	.loc 1 213 39 discriminator 2 view .LVU283
	str	r3, [sp, #52]
.LVL64:
	.loc 1 213 20 is_stmt 1 discriminator 1 view .LVU284
	add	r3, r2, #48
.LVL65:
	.loc 1 213 20 is_stmt 0 discriminator 1 view .LVU285
	str	r3, [sp, #60]
	add	r4, r4, #48
	beq	.L173
.LVL66:
.L134:
.LBB378:
	.loc 1 214 3 is_stmt 1 view .LVU286
	.loc 1 216 3 view .LVU287
	.loc 1 216 14 is_stmt 0 view .LVU288
	ldr	r3, [r4]
	.loc 1 216 6 view .LVU289
	ldr	r2, [r4, #36]
	cmp	r3, r2
	beq	.L174
.L80:
.LBB372:
	.loc 1 218 28 view .LVU290
	mov	r6, #0
.LBE372:
	.loc 1 214 12 view .LVU291
	ldr	r10, [sp, #56]
.LBB373:
	.loc 1 217 25 view .LVU292
	str	r3, [r4, #36]
	.loc 1 218 28 view .LVU293
	strb	r6, [r4, #40]
	.loc 1 225 4 view .LVU294
	mov	r1, r6
.LBE373:
	.loc 1 214 12 view .LVU295
	sub	r3, r10, #4
.LBB374:
	.loc 1 225 4 view .LVU296
	mov	r2, #4096
	ldr	r0, .L188+4
	.loc 1 220 16 view .LVU297
	str	r6, [r8, #12]
	.loc 1 221 21 view .LVU298
	str	r6, [r8, #16]
.LBE374:
	.loc 1 214 12 view .LVU299
	str	r3, [sp, #24]
.LBB375:
	.loc 1 217 4 is_stmt 1 view .LVU300
	.loc 1 218 4 view .LVU301
	.loc 1 220 4 view .LVU302
	.loc 1 221 4 view .LVU303
	.loc 1 223 4 view .LVU304
.LVL67:
	.loc 1 225 4 view .LVU305
	bl	memset
.LVL68:
	.loc 1 226 4 view .LVU306
.LBB191:
	.loc 1 226 9 view .LVU307
	.loc 1 226 22 discriminator 1 view .LVU308
	.loc 1 226 13 is_stmt 0 view .LVU309
	mov	lr, r6
	ldr	r5, .L188+4
.LBE191:
	.loc 1 225 4 view .LVU310
	ldr	r6, [sp, #60]
	str	r4, [sp, #96]
	mov	ip, lr
	mov	r9, r5
	mov	r4, r6
	.loc 1 223 13 view .LVU311
	str	lr, [sp, #20]
	str	r5, [sp, #92]
.LVL69:
.L93:
.LBB235:
.LBB192:
	.loc 1 227 5 is_stmt 1 view .LVU312
	.loc 1 227 42 is_stmt 0 view .LVU313
	cmp	ip, #0
	.loc 1 227 15 view .LVU314
	movne	r3, #1
	moveq	r3, #0
	str	r3, [sp, #36]
.LVL70:
	.loc 1 228 5 is_stmt 1 view .LVU315
.LBB193:
	.loc 1 228 10 view .LVU316
	.loc 1 228 23 discriminator 1 view .LVU317
	mvneq	r3, #0
	movne	r3, #16
	str	r3, [sp, #16]
.LBB194:
	.loc 1 229 6 view .LVU318
.LVL71:
	.loc 1 230 6 view .LVU319
	.loc 1 231 12 is_stmt 0 view .LVU320
	mov	r3, #4
	mov	lr, r9
	mov	r7, #0
	str	r3, [sp, #44]
	add	r3, fp, r4
	str	r3, [sp, #48]
	str	ip, [sp, #32]
	str	r4, [sp, #64]
	str	r9, [sp, #68]
.LVL72:
.L82:
	.loc 1 234 6 is_stmt 1 view .LVU321
.LBB195:
	.loc 1 234 11 view .LVU322
	.loc 1 234 24 discriminator 1 view .LVU323
	ldr	r3, [sp, #48]
.LBB196:
	mov	r4, #0
	.loc 1 237 13 is_stmt 0 view .LVU324
	mov	r6, #2
	add	r5, r3, r7
	.loc 1 235 7 is_stmt 1 view .LVU325
.LVL73:
	.loc 1 236 7 view .LVU326
	str	lr, [sp, #28]
	b	.L83
.LVL74:
.L84:
	.loc 1 243 7 view .LVU327
.LBB197:
.LBI197:
	.loc 1 92 21 view .LVU328
.LBB198:
	.loc 1 93 2 view .LVU329
	.loc 1 94 8 is_stmt 0 view .LVU330
	ldr	r0, [sp, #16]
	.loc 1 94 88 view .LVU331
	ldr	r3, [fp, #20]
	.loc 1 94 65 view .LVU332
	ldr	r2, [r10, #-4]
	.loc 1 94 40 view .LVU333
	ldr	r1, [fp, #16]
	.loc 1 94 8 view .LVU334
	add	r3, r7, r3, lsl #4
	add	r1, r0, r1, lsl #4
	add	r2, r4, r2, lsl #4
	ldr	r0, [r8, #20]
	bl	World_GetBlock
.LVL75:
.LBE198:
.LBE197:
.LBB200:
.LBB201:
	.loc 1 99 91 view .LVU335
	ldr	r3, [fp, #20]
.LBE201:
.LBE200:
.LBB203:
.LBB199:
	.loc 1 94 8 view .LVU336
	mov	r6, r0
.LVL76:
	.loc 1 94 8 view .LVU337
.LBE199:
.LBE203:
	.loc 1 244 7 is_stmt 1 view .LVU338
.LBB204:
.LBI200:
	.loc 1 97 23 view .LVU339
.LBB202:
	.loc 1 98 2 view .LVU340
	.loc 1 99 68 is_stmt 0 view .LVU341
	ldr	r2, [r10, #-4]
	.loc 1 99 8 view .LVU342
	ldr	r0, [sp, #16]
	.loc 1 99 43 view .LVU343
	ldr	r1, [fp, #16]
	.loc 1 99 8 view .LVU344
	add	r3, r7, r3, lsl #4
	add	r1, r0, r1, lsl #4
	add	r2, r4, r2, lsl #4
	ldr	r0, [r8, #20]
	bl	World_GetMetadata
.LVL77:
	.loc 1 99 8 view .LVU345
	mov	r1, r0
.LVL78:
	.loc 1 99 8 view .LVU346
.LBE202:
.LBE204:
	.loc 1 245 7 is_stmt 1 view .LVU347
	.loc 1 245 12 is_stmt 0 view .LVU348
	mov	r0, r6
	bl	Block_Opaque
.LVL79:
	.loc 1 245 10 discriminator 1 view .LVU349
	subs	r6, r0, #0
.LVL80:
	.loc 1 245 10 discriminator 1 view .LVU350
	bne	.L86
	.loc 1 245 62 discriminator 1 view .LVU351
	ldrb	r3, [r5, #28]	@ zero_extendqisi2
	.loc 1 245 38 discriminator 1 view .LVU352
	cmp	r3, #0
	bne	.L175
.L86:
.LBE196:
	.loc 1 234 33 is_stmt 1 discriminator 2 view .LVU353
	add	r4, r4, #1
.LVL81:
	.loc 1 234 24 discriminator 1 view .LVU354
.LBB227:
	.loc 1 235 7 view .LVU355
	.loc 1 236 7 view .LVU356
	.loc 1 238 12 view .LVU357
.LBE227:
	.loc 1 234 24 is_stmt 0 discriminator 1 view .LVU358
	cmp	r4, #16
	beq	.L87
.L176:
.LBB228:
	.loc 1 235 17 view .LVU359
	cmp	r4, #15
	moveq	r6, #3
	movne	r6, #6
.LBE228:
	.loc 1 234 24 discriminator 1 view .LVU360
	add	r5, r5, #16
.LVL82:
.L83:
.LBB229:
	.loc 1 241 7 is_stmt 1 view .LVU361
	.loc 1 241 79 is_stmt 0 view .LVU362
	add	r9, r5, #4096
	.loc 1 241 12 view .LVU363
	ldrb	r1, [r9, #28]	@ zero_extendqisi2
	ldrb	r0, [r5, #28]	@ zero_extendqisi2
	and	r1, r1, #15
	bl	Block_Opaque
.LVL83:
	.loc 1 241 10 discriminator 1 view .LVU364
	cmp	r0, #0
	bne	.L84
	.loc 1 242 8 is_stmt 1 view .LVU365
.LVL84:
.LBB205:
.LBI205:
	.loc 1 170 17 view .LVU366
.LBB206:
	.loc 1 172 2 view .LVU367
	.loc 1 172 5 is_stmt 0 view .LVU368
	ldr	r3, [sp, #28]
	ldrb	r3, [r3, r4, lsl #4]	@ zero_extendqisi2
	tst	r3, #1
	bne	.L84
	ldr	r2, [sp, #44]
	mov	r3, r7
	str	r2, [sp, #8]
	ldr	r2, [sp, #36]
	ldr	r1, [sp, #32]
	str	r2, [sp]
	ldr	r0, [sp, #24]
	mov	r2, r4
	str	r6, [sp, #4]
	bl	floodFill.part.0
.LVL85:
	.loc 1 172 5 view .LVU369
.LBE206:
.LBE205:
	.loc 1 242 19 discriminator 1 view .LVU370
	ldr	r3, [sp, #20]
	orr	r0, r3, r0
	uxth	r3, r0
	str	r3, [sp, #20]
.LVL86:
	.loc 1 242 19 discriminator 1 view .LVU371
	b	.L84
.LVL87:
.L175:
	.loc 1 246 8 is_stmt 1 view .LVU372
	ldrb	r9, [r9, #28]	@ zero_extendqisi2
	.loc 1 249 13 is_stmt 0 view .LVU373
	mov	r0, r3
	.loc 1 246 8 view .LVU374
	and	r9, r9, #15
	.loc 1 249 13 view .LVU375
	mov	r1, r9
	str	r3, [sp, #40]
	bl	Block_Opaque
.LVL88:
.LBB207:
.LBB208:
.LBB209:
.LBB210:
	.loc 1 165 29 view .LVU376
	ldr	r3, .L188+8
	ldr	r2, [sp, #32]
.LBE210:
.LBE209:
.LBE208:
.LBE207:
	.loc 1 249 12 discriminator 1 view .LVU377
	eor	r1, r0, #1
.LBB223:
.LBB219:
.LBB215:
.LBB211:
	.loc 1 165 25 view .LVU378
	ldr	r0, [r8, #12]
.LBE211:
.LBE215:
.LBE219:
.LBE223:
	.loc 1 249 12 discriminator 1 view .LVU379
	uxtb	r1, r1
.LVL89:
.LBB224:
.LBI207:
	.loc 1 163 20 is_stmt 1 view .LVU380
	.loc 1 164 2 view .LVU381
.LBB220:
.LBI208:
	.loc 1 163 20 view .LVU382
.LBB216:
.LBB212:
	.loc 1 165 3 view .LVU383
	.loc 1 165 29 is_stmt 0 view .LVU384
	strb	r2, [r3, r0, lsl #3]
	.loc 1 166 20 view .LVU385
	ldr	r2, [r8, #16]
.LVL90:
	.loc 1 166 20 view .LVU386
	add	r2, r2, r1
	str	r2, [r8, #16]
	.loc 1 165 29 view .LVU387
	add	r2, r3, r0, lsl #3
	ldr	r3, [sp, #40]
	strb	r4, [r2, #1]
	strb	r3, [r2, #4]
.LBE212:
.LBE216:
.LBE220:
.LBE224:
.LBE229:
	.loc 1 234 33 discriminator 2 view .LVU388
	add	r4, r4, #1
.LVL91:
.LBB230:
.LBB225:
.LBB221:
.LBB217:
.LBB213:
	.loc 1 165 29 view .LVU389
	ldr	r3, [sp, #36]
	.loc 1 165 25 view .LVU390
	add	r0, r0, #1
.LBE213:
.LBE217:
.LBE221:
.LBE225:
.LBE230:
	.loc 1 234 24 discriminator 1 view .LVU391
	cmp	r4, #16
.LBB231:
.LBB226:
.LBB222:
.LBB218:
.LBB214:
	.loc 1 165 29 view .LVU392
	strb	r6, [r2, #5]
	strb	r9, [r2, #6]
	strb	r1, [r2, #7]
	.loc 1 166 3 is_stmt 1 view .LVU393
.LVL92:
	.loc 1 165 25 is_stmt 0 view .LVU394
	str	r0, [r8, #12]
	.loc 1 165 29 view .LVU395
	strb	r7, [r2, #2]
	strb	r3, [r2, #3]
.LVL93:
	.loc 1 165 29 view .LVU396
.LBE214:
.LBE218:
.LBE222:
.LBE226:
.LBE231:
	.loc 1 234 33 is_stmt 1 discriminator 2 view .LVU397
	.loc 1 234 24 discriminator 1 view .LVU398
.LBB232:
	.loc 1 235 7 view .LVU399
	.loc 1 236 7 view .LVU400
	.loc 1 238 12 view .LVU401
.LBE232:
	.loc 1 234 24 is_stmt 0 discriminator 1 view .LVU402
	bne	.L176
.L87:
	.loc 1 234 24 discriminator 1 view .LVU403
.LBE195:
.LBE194:
	.loc 1 228 32 discriminator 2 view .LVU404
	add	r7, r7, #1
	.loc 1 228 23 discriminator 1 view .LVU405
	cmp	r7, #16
	.loc 1 228 32 discriminator 2 view .LVU406
	ldr	lr, [sp, #28]
	.loc 1 228 32 is_stmt 1 discriminator 2 view .LVU407
.LVL94:
	.loc 1 228 23 discriminator 1 view .LVU408
	beq	.L90
.LBB233:
	.loc 1 229 6 view .LVU409
.LVL95:
	.loc 1 230 6 view .LVU410
	.loc 1 232 11 view .LVU411
	.loc 1 229 16 is_stmt 0 view .LVU412
	cmp	r7, #15
	moveq	r3, #5
	movne	r3, #6
.LBE233:
	.loc 1 228 23 discriminator 1 view .LVU413
	add	lr, lr, #1
.LBB234:
	.loc 1 229 16 view .LVU414
	str	r3, [sp, #44]
	b	.L82
.LVL96:
.L90:
	.loc 1 229 16 view .LVU415
.LBE234:
.LBE193:
.LBE192:
	.loc 1 226 22 discriminator 1 view .LVU416
	ldr	ip, [sp, #32]
	ldr	r4, [sp, #64]
.LVL97:
	.loc 1 226 22 discriminator 1 view .LVU417
	ldr	r9, [sp, #68]
	.loc 1 226 32 is_stmt 1 discriminator 2 view .LVU418
.LVL98:
	.loc 1 226 22 discriminator 1 view .LVU419
	cmp	ip, #15
	add	r4, r4, #3840
	add	r9, r9, #3840
	movne	ip, #15
.LVL99:
	.loc 1 226 22 is_stmt 0 discriminator 1 view .LVU420
	bne	.L93
.LVL100:
.L177:
	.loc 1 226 22 discriminator 1 view .LVU421
	mov	r9, #0
.LBE235:
.LBB236:
.LBB237:
	.loc 1 255 44 discriminator 1 view .LVU422
	mov	ip, #2
.LVL101:
	.loc 1 255 44 discriminator 1 view .LVU423
	mov	lr, r9
.LBE237:
.LBE236:
.LBB288:
	.loc 1 226 22 discriminator 1 view .LVU424
	ldr	r5, [sp, #92]
	ldr	r4, [sp, #96]
	ldr	r10, [sp, #56]
	ldr	r6, .L188+4
	add	r7, r10, #4096
.LVL102:
	.loc 1 226 22 discriminator 1 view .LVU425
.LBE288:
.LBB289:
.LBB286:
	.loc 1 255 5 is_stmt 1 view .LVU426
	str	ip, [sp, #32]
.LVL103:
	.loc 1 255 5 is_stmt 0 view .LVU427
	str	r5, [sp, #68]
	str	r4, [sp, #92]
.LVL104:
.L107:
	.loc 1 256 5 is_stmt 1 view .LVU428
.LBB238:
	.loc 1 256 10 view .LVU429
	.loc 1 256 23 discriminator 1 view .LVU430
.LBB239:
	.loc 1 257 6 view .LVU431
	.loc 1 258 6 view .LVU432
	mov	r9, #0
	.loc 1 259 12 is_stmt 0 view .LVU433
	str	lr, [sp, #16]
	str	r7, [sp, #64]
	mov	lr, r7
	mov	r7, r9
	str	r6, [sp, #28]
	str	r9, [sp, #40]
	str	r6, [sp, #48]
.LVL105:
.L94:
	.loc 1 262 6 is_stmt 1 view .LVU434
.LBB240:
	.loc 1 262 11 view .LVU435
	.loc 1 262 24 discriminator 1 view .LVU436
.LBB241:
	.loc 1 263 7 view .LVU437
	.loc 1 264 7 view .LVU438
	mov	r5, lr
	mov	r4, #0
	.loc 1 265 13 is_stmt 0 view .LVU439
	mov	r6, #5
	str	lr, [sp, #44]
	b	.L95
.LVL106:
.L168:
.LBB242:
.LBB243:
	.loc 1 94 8 view .LVU440
	add	r2, r2, #1
	add	r1, r7, r1, lsl #4
	add	r3, r4, r3, lsl #4
	lsl	r2, r2, #4
	bl	World_GetBlock
.LVL107:
.LBE243:
.LBE242:
	.loc 1 271 22 view .LVU441
	mov	r1, #16
.LBB248:
.LBB244:
	.loc 1 94 8 view .LVU442
	mov	r6, r0
.LVL108:
	.loc 1 94 8 view .LVU443
.LBE244:
.LBE248:
	.loc 1 271 7 is_stmt 1 view .LVU444
	.loc 1 271 22 is_stmt 0 view .LVU445
	ldr	r0, [r8, #20]
.LVL109:
.LBB249:
.LBI249:
	.loc 1 97 23 is_stmt 1 view .LVU446
.LBB250:
	.loc 1 98 2 view .LVU447
.L135:
	.loc 1 99 68 is_stmt 0 view .LVU448
	ldr	r2, [r10, #-4]
	.loc 1 99 91 view .LVU449
	ldr	r3, [fp, #20]
	.loc 1 99 8 view .LVU450
	add	r2, r1, r2, lsl #4
	.loc 1 99 43 view .LVU451
	ldr	r1, [fp, #16]
	.loc 1 99 8 view .LVU452
	add	r3, r4, r3, lsl #4
	add	r1, r7, r1, lsl #4
	bl	World_GetMetadata
.LVL110:
	.loc 1 99 8 view .LVU453
	mov	r1, r0
.LVL111:
	.loc 1 99 8 view .LVU454
.LBE250:
.LBE249:
	.loc 1 272 7 is_stmt 1 view .LVU455
	.loc 1 272 12 is_stmt 0 view .LVU456
	mov	r0, r6
	bl	Block_Opaque
.LVL112:
	.loc 1 272 10 discriminator 1 view .LVU457
	subs	r6, r0, #0
.LVL113:
	.loc 1 272 10 discriminator 1 view .LVU458
	bne	.L100
	.loc 1 272 62 discriminator 1 view .LVU459
	ldrb	r9, [r9]	@ zero_extendqisi2
	.loc 1 272 38 discriminator 1 view .LVU460
	cmp	r9, #0
	bne	.L178
.L100:
.LBE241:
	.loc 1 262 33 is_stmt 1 discriminator 2 view .LVU461
	add	r4, r4, #1
.LVL114:
	.loc 1 262 24 discriminator 1 view .LVU462
	cmp	r4, #16
	beq	.L101
.L180:
.LBB278:
	.loc 1 263 7 view .LVU463
.LVL115:
	.loc 1 264 7 view .LVU464
	.loc 1 266 12 view .LVU465
	.loc 1 263 17 is_stmt 0 view .LVU466
	cmp	r4, #15
	moveq	r6, #4
	movne	r6, #6
.LBE278:
	.loc 1 262 24 discriminator 1 view .LVU467
	add	r5, r5, #1
.LVL116:
.L95:
.LBB279:
	.loc 1 268 7 is_stmt 1 view .LVU468
	.loc 1 268 12 is_stmt 0 view .LVU469
	ldrb	r1, [r5]	@ zero_extendqisi2
	sub	r9, r5, #4096
	ldrb	r0, [r9]	@ zero_extendqisi2
	and	r1, r1, #15
	bl	Block_Opaque
.LVL117:
	.loc 1 268 10 discriminator 1 view .LVU470
	cmp	r0, #0
	beq	.L179
.LVL118:
.L96:
	.loc 1 270 7 is_stmt 1 view .LVU471
	.loc 1 270 80 is_stmt 0 view .LVU472
	ldr	r3, [sp, #16]
	.loc 1 270 21 view .LVU473
	ldr	r0, [r8, #20]
	.loc 1 270 80 view .LVU474
	cmp	r3, #0
.LBB252:
.LBB245:
	.loc 1 94 61 view .LVU475
	ldr	r2, [r10, #-4]
	.loc 1 94 84 view .LVU476
	ldr	r3, [fp, #20]
	.loc 1 94 36 view .LVU477
	ldr	r1, [fp, #16]
.LBE245:
.LBE252:
	.loc 1 270 80 view .LVU478
	bne	.L168
.LVL119:
.LBB253:
.LBI242:
	.loc 1 92 21 is_stmt 1 view .LVU479
.LBB246:
	.loc 1 93 2 view .LVU480
	.loc 1 94 65 is_stmt 0 view .LVU481
	lsl	r2, r2, #4
	.loc 1 94 8 view .LVU482
	add	r1, r7, r1, lsl #4
	add	r3, r4, r3, lsl #4
	sub	r2, r2, #1
	bl	World_GetBlock
.LVL120:
.LBE246:
.LBE253:
	.loc 1 271 22 view .LVU483
	mvn	r1, #0
.LBB254:
.LBB247:
	.loc 1 94 8 view .LVU484
	mov	r6, r0
.LVL121:
	.loc 1 94 8 view .LVU485
.LBE247:
.LBE254:
	.loc 1 271 7 is_stmt 1 view .LVU486
	.loc 1 271 22 is_stmt 0 view .LVU487
	ldr	r0, [r8, #20]
.LVL122:
.LBB255:
	.loc 1 97 23 is_stmt 1 view .LVU488
.LBB251:
	.loc 1 98 2 view .LVU489
	b	.L135
.LVL123:
.L179:
	.loc 1 98 2 is_stmt 0 view .LVU490
.LBE251:
.LBE255:
	.loc 1 269 8 is_stmt 1 view .LVU491
.LBB256:
.LBI256:
	.loc 1 170 17 view .LVU492
.LBB257:
	.loc 1 172 2 view .LVU493
	.loc 1 172 5 is_stmt 0 view .LVU494
	ldr	r3, [sp, #28]
	ldrb	r3, [r3, r4]	@ zero_extendqisi2
	tst	r3, #1
	bne	.L96
	ldr	r3, [sp, #32]
	mov	r1, r7
	str	r3, [sp, #4]
	ldr	r3, [sp, #40]
	ldr	r2, [sp, #16]
	str	r3, [sp]
	ldr	r0, [sp, #24]
	mov	r3, r4
	str	r6, [sp, #8]
	bl	floodFill.part.0
.LVL124:
	.loc 1 172 5 view .LVU495
.LBE257:
.LBE256:
	.loc 1 269 19 discriminator 1 view .LVU496
	ldr	r3, [sp, #20]
	orr	r0, r0, r3
	uxth	r3, r0
	str	r3, [sp, #20]
.LVL125:
	.loc 1 269 19 discriminator 1 view .LVU497
	b	.L96
.LVL126:
.L178:
	.loc 1 273 8 is_stmt 1 view .LVU498
	ldrb	r1, [r5]	@ zero_extendqisi2
	.loc 1 276 13 is_stmt 0 view .LVU499
	mov	r0, r9
	.loc 1 273 8 view .LVU500
	and	r1, r1, #15
	.loc 1 276 13 view .LVU501
	str	r1, [sp, #36]
	bl	Block_Opaque
.LVL127:
.LBB258:
.LBB259:
.LBB260:
.LBB261:
	.loc 1 166 20 view .LVU502
	ldr	r3, [r8, #16]
.LBE261:
.LBE260:
.LBE259:
.LBE258:
	.loc 1 276 12 discriminator 1 view .LVU503
	eor	r2, r0, #1
.LBB274:
.LBB270:
.LBB266:
.LBB262:
	.loc 1 165 29 view .LVU504
	ldr	r1, .L188+8
	.loc 1 165 25 view .LVU505
	ldr	r0, [r8, #12]
.LBE262:
.LBE266:
.LBE270:
.LBE274:
	.loc 1 276 12 discriminator 1 view .LVU506
	uxtb	r2, r2
.LVL128:
.LBB275:
.LBI258:
	.loc 1 163 20 is_stmt 1 view .LVU507
	.loc 1 164 2 view .LVU508
.LBB271:
.LBI259:
	.loc 1 163 20 view .LVU509
.LBB267:
.LBB263:
	.loc 1 165 3 view .LVU510
	.loc 1 166 20 is_stmt 0 view .LVU511
	add	r3, r3, r2
	str	r3, [r8, #16]
	.loc 1 165 29 view .LVU512
	add	r3, r1, r0, lsl #3
	strb	r2, [r3, #7]
	.loc 1 166 3 is_stmt 1 view .LVU513
.LVL129:
	.loc 1 165 29 is_stmt 0 view .LVU514
	ldr	r2, [sp, #16]
.LVL130:
	.loc 1 165 29 view .LVU515
	strb	r7, [r1, r0, lsl #3]
	strb	r2, [r3, #1]
	ldr	r1, [sp, #36]
	ldr	r2, [sp, #32]
	strb	r4, [r3, #2]
.LBE263:
.LBE267:
.LBE271:
.LBE275:
.LBE279:
	.loc 1 262 33 discriminator 2 view .LVU516
	add	r4, r4, #1
.LVL131:
.LBB280:
.LBB276:
.LBB272:
.LBB268:
.LBB264:
	.loc 1 165 25 view .LVU517
	add	r0, r0, #1
.LBE264:
.LBE268:
.LBE272:
.LBE276:
.LBE280:
	.loc 1 262 24 discriminator 1 view .LVU518
	cmp	r4, #16
.LBB281:
.LBB277:
.LBB273:
.LBB269:
.LBB265:
	.loc 1 165 29 view .LVU519
	strb	r9, [r3, #4]
	strb	r6, [r3, #5]
	strb	r1, [r3, #6]
	.loc 1 165 25 view .LVU520
	str	r0, [r8, #12]
	.loc 1 165 29 view .LVU521
	strb	r2, [r3, #3]
.LVL132:
	.loc 1 165 29 view .LVU522
.LBE265:
.LBE269:
.LBE273:
.LBE277:
.LBE281:
	.loc 1 262 33 is_stmt 1 discriminator 2 view .LVU523
	.loc 1 262 24 discriminator 1 view .LVU524
	bne	.L180
.L101:
	.loc 1 262 24 is_stmt 0 discriminator 1 view .LVU525
.LBE240:
.LBE239:
	.loc 1 256 32 discriminator 2 view .LVU526
	add	r7, r7, #1
	.loc 1 256 23 discriminator 1 view .LVU527
	cmp	r7, #16
	.loc 1 256 32 discriminator 2 view .LVU528
	ldr	lr, [sp, #44]
	.loc 1 256 32 is_stmt 1 discriminator 2 view .LVU529
.LVL133:
	.loc 1 256 23 discriminator 1 view .LVU530
	beq	.L104
.LBB282:
	.loc 1 257 6 view .LVU531
.LVL134:
	.loc 1 258 6 view .LVU532
	.loc 1 260 11 view .LVU533
.LBE282:
	.loc 1 256 23 is_stmt 0 discriminator 1 view .LVU534
	ldr	r3, [sp, #28]
.LBB283:
	.loc 1 257 16 view .LVU535
	cmp	r7, #15
.LBE283:
	.loc 1 256 23 discriminator 1 view .LVU536
	add	r3, r3, #256
	str	r3, [sp, #28]
.LBB284:
	.loc 1 257 16 view .LVU537
	moveq	r3, #1
	movne	r3, #6
.LBE284:
	.loc 1 256 23 discriminator 1 view .LVU538
	add	lr, lr, #256
.LBB285:
	.loc 1 257 16 view .LVU539
	str	r3, [sp, #40]
	b	.L94
.LVL135:
.L104:
	.loc 1 257 16 view .LVU540
.LBE285:
.LBE238:
	.loc 1 255 44 discriminator 2 view .LVU541
	mov	r3, #3
.LBE286:
	.loc 1 254 22 discriminator 1 view .LVU542
	ldr	lr, [sp, #16]
	ldr	r6, [sp, #48]
	ldr	r7, [sp, #64]
.LVL136:
	.loc 1 254 32 is_stmt 1 discriminator 2 view .LVU543
	.loc 1 254 22 discriminator 1 view .LVU544
	cmp	lr, #15
	add	r6, r6, #240
	add	r7, r7, #240
.LBB287:
	.loc 1 255 44 is_stmt 0 discriminator 2 view .LVU545
	str	r3, [sp, #32]
.LVL137:
	.loc 1 255 44 discriminator 2 view .LVU546
.LBE287:
	.loc 1 254 22 discriminator 1 view .LVU547
	movne	lr, #15
.LVL138:
	.loc 1 254 22 discriminator 1 view .LVU548
	bne	.L107
.LVL139:
.L181:
	.loc 1 254 22 discriminator 1 view .LVU549
	ldr	r10, [sp, #56]
	mov	r2, #4
	mov	r3, r10
	mov	ip, #0
	mov	r4, r10
.LVL140:
	.loc 1 254 22 discriminator 1 view .LVU550
	ldr	r5, [sp, #68]
	str	r2, [sp, #36]
.LVL141:
.L119:
	.loc 1 254 22 discriminator 1 view .LVU551
.LBE289:
.LBB290:
.LBB291:
	.loc 1 283 5 is_stmt 1 view .LVU552
.LBB292:
	.loc 1 283 10 view .LVU553
	.loc 1 283 23 discriminator 1 view .LVU554
	cmp	ip, #0
.LBB293:
	mov	r7, #0
	mvneq	r3, #0
	movne	r3, #16
	mov	r9, r4
	str	r3, [sp, #16]
	str	r5, [sp, #28]
	add	r6, r4, #4096
	.loc 1 284 6 view .LVU555
.LVL142:
	.loc 1 285 6 view .LVU556
	.loc 1 286 12 is_stmt 0 view .LVU557
	str	r7, [sp, #48]
	str	ip, [sp, #32]
	str	r5, [sp, #64]
	str	r4, [sp, #68]
.LVL143:
.L108:
	.loc 1 289 6 is_stmt 1 view .LVU558
.LBB294:
	.loc 1 289 11 view .LVU559
	.loc 1 289 24 discriminator 1 view .LVU560
.LBB295:
	.loc 1 290 7 view .LVU561
	.loc 1 291 7 view .LVU562
	mov	r4, #0
	.loc 1 292 13 is_stmt 0 view .LVU563
	mov	r5, #2
	b	.L109
.LVL144:
.L110:
	.loc 1 297 7 is_stmt 1 view .LVU564
.LBB296:
.LBI296:
	.loc 1 92 21 view .LVU565
.LBB297:
	.loc 1 93 2 view .LVU566
	.loc 1 94 8 is_stmt 0 view .LVU567
	ldr	r2, [sp, #16]
	.loc 1 94 88 view .LVU568
	ldr	r3, [fp, #20]
	.loc 1 94 40 view .LVU569
	ldr	r1, [fp, #16]
	.loc 1 94 8 view .LVU570
	add	r3, r2, r3, lsl #4
	.loc 1 94 65 view .LVU571
	ldr	r2, [r10, #-4]
	.loc 1 94 8 view .LVU572
	add	r1, r7, r1, lsl #4
	add	r2, r4, r2, lsl #4
	ldr	r0, [r8, #20]
	bl	World_GetBlock
.LVL145:
	.loc 1 94 8 view .LVU573
.LBE297:
.LBE296:
	.loc 1 298 7 is_stmt 1 view .LVU574
	.loc 1 298 12 is_stmt 0 view .LVU575
	ldrb	r1, [r6, r4, lsl #4]	@ zero_extendqisi2
	and	r1, r1, #15
	bl	Block_Opaque
.LVL146:
	.loc 1 298 10 discriminator 1 view .LVU576
	subs	r5, r0, #0
.LVL147:
	.loc 1 298 10 discriminator 1 view .LVU577
	bne	.L112
	.loc 1 299 32 view .LVU578
	ldrb	r3, [r9, r4, lsl #4]	@ zero_extendqisi2
	.loc 1 298 71 discriminator 1 view .LVU579
	cmp	r3, #0
	bne	.L182
.L112:
.LBE295:
	.loc 1 289 33 is_stmt 1 discriminator 2 view .LVU580
	add	r4, r4, #1
.LVL148:
	.loc 1 289 24 discriminator 1 view .LVU581
.LBB320:
	.loc 1 290 7 view .LVU582
	.loc 1 291 7 view .LVU583
	.loc 1 293 12 view .LVU584
.LBE320:
	.loc 1 289 24 is_stmt 0 discriminator 1 view .LVU585
	cmp	r4, #16
	beq	.L113
.L183:
.LBB321:
	.loc 1 290 17 view .LVU586
	cmp	r4, #15
	moveq	r5, #3
	movne	r5, #6
.LVL149:
.L109:
	.loc 1 295 7 is_stmt 1 view .LVU587
	.loc 1 295 12 is_stmt 0 view .LVU588
	ldrb	r1, [r6, r4, lsl #4]	@ zero_extendqisi2
	ldrb	r0, [r9, r4, lsl #4]	@ zero_extendqisi2
	and	r1, r1, #15
	bl	Block_Opaque
.LVL150:
	.loc 1 295 10 discriminator 1 view .LVU589
	cmp	r0, #0
	bne	.L110
	.loc 1 296 8 is_stmt 1 view .LVU590
.LVL151:
.LBB298:
.LBI298:
	.loc 1 170 17 view .LVU591
.LBB299:
	.loc 1 172 2 view .LVU592
	.loc 1 172 5 is_stmt 0 view .LVU593
	ldr	r3, [sp, #28]
	ldrb	r3, [r3, r4, lsl #4]	@ zero_extendqisi2
	tst	r3, #1
	bne	.L110
	ldr	r2, [sp, #36]
	ldr	r3, [sp, #32]
	str	r2, [sp, #8]
	ldr	r2, [sp, #48]
	mov	r1, r7
	str	r2, [sp]
	ldr	r0, [sp, #24]
	mov	r2, r4
	str	r5, [sp, #4]
	bl	floodFill.part.0
.LVL152:
	.loc 1 172 5 view .LVU594
.LBE299:
.LBE298:
	.loc 1 296 19 discriminator 1 view .LVU595
	ldr	r3, [sp, #20]
	orr	r0, r3, r0
	uxth	r3, r0
	str	r3, [sp, #20]
.LVL153:
	.loc 1 296 19 discriminator 1 view .LVU596
	b	.L110
.LVL154:
.L182:
	.loc 1 300 8 is_stmt 1 view .LVU597
	ldrb	r1, [r6, r4, lsl #4]	@ zero_extendqisi2
	.loc 1 303 13 is_stmt 0 view .LVU598
	mov	r0, r3
	.loc 1 300 8 view .LVU599
	and	r1, r1, #15
	.loc 1 303 13 view .LVU600
	str	r1, [sp, #44]
	str	r3, [sp, #40]
	bl	Block_Opaque
.LVL155:
.LBB300:
.LBB301:
.LBB302:
.LBB303:
	.loc 1 166 20 view .LVU601
	ldr	r2, [r8, #16]
.LBE303:
.LBE302:
.LBE301:
.LBE300:
	.loc 1 303 12 discriminator 1 view .LVU602
	eor	r0, r0, #1
.LBB316:
.LBB312:
.LBB308:
.LBB304:
	.loc 1 165 25 view .LVU603
	ldr	ip, [r8, #12]
	.loc 1 165 29 view .LVU604
	ldr	r3, .L188+8
.LBE304:
.LBE308:
.LBE312:
.LBE316:
	.loc 1 303 12 discriminator 1 view .LVU605
	uxtb	r0, r0
.LVL156:
.LBB317:
.LBI300:
	.loc 1 163 20 is_stmt 1 view .LVU606
	.loc 1 164 2 view .LVU607
.LBB313:
.LBI301:
	.loc 1 163 20 view .LVU608
.LBB309:
.LBB305:
	.loc 1 165 3 view .LVU609
	.loc 1 166 20 is_stmt 0 view .LVU610
	add	r2, r2, r0
	.loc 1 165 29 view .LVU611
	strb	r7, [r3, ip, lsl #3]
	.loc 1 166 20 view .LVU612
	str	r2, [r8, #16]
	.loc 1 165 29 view .LVU613
	add	r2, r3, ip, lsl #3
	ldr	r3, [sp, #40]
	ldr	r1, [sp, #44]
	strb	r3, [r2, #4]
	ldr	r3, [sp, #32]
	strb	r4, [r2, #1]
	strb	r3, [r2, #2]
.LBE305:
.LBE309:
.LBE313:
.LBE317:
.LBE321:
	.loc 1 289 33 discriminator 2 view .LVU614
	add	r4, r4, #1
.LVL157:
.LBB322:
.LBB318:
.LBB314:
.LBB310:
.LBB306:
	.loc 1 165 29 view .LVU615
	ldr	r3, [sp, #36]
	.loc 1 165 25 view .LVU616
	add	ip, ip, #1
.LBE306:
.LBE310:
.LBE314:
.LBE318:
.LBE322:
	.loc 1 289 24 discriminator 1 view .LVU617
	cmp	r4, #16
.LBB323:
.LBB319:
.LBB315:
.LBB311:
.LBB307:
	.loc 1 165 29 view .LVU618
	strb	r5, [r2, #5]
	strb	r1, [r2, #6]
	strb	r0, [r2, #7]
	.loc 1 166 3 is_stmt 1 view .LVU619
.LVL158:
	.loc 1 165 25 is_stmt 0 view .LVU620
	str	ip, [r8, #12]
	.loc 1 165 29 view .LVU621
	strb	r3, [r2, #3]
.LVL159:
	.loc 1 165 29 view .LVU622
.LBE307:
.LBE311:
.LBE315:
.LBE319:
.LBE323:
	.loc 1 289 33 is_stmt 1 discriminator 2 view .LVU623
	.loc 1 289 24 discriminator 1 view .LVU624
.LBB324:
	.loc 1 290 7 view .LVU625
	.loc 1 291 7 view .LVU626
	.loc 1 293 12 view .LVU627
.LBE324:
	.loc 1 289 24 is_stmt 0 discriminator 1 view .LVU628
	bne	.L183
.L113:
	.loc 1 289 24 discriminator 1 view .LVU629
.LBE294:
.LBE293:
	.loc 1 283 32 is_stmt 1 discriminator 2 view .LVU630
	add	r7, r7, #1
.LVL160:
	.loc 1 283 23 discriminator 1 view .LVU631
	cmp	r7, #16
	beq	.L116
.LBB325:
	.loc 1 284 6 view .LVU632
.LVL161:
	.loc 1 285 6 view .LVU633
	.loc 1 287 11 view .LVU634
.LBE325:
	.loc 1 283 23 is_stmt 0 discriminator 1 view .LVU635
	ldr	r3, [sp, #28]
.LBB326:
	.loc 1 284 16 view .LVU636
	cmp	r7, #15
.LBE326:
	.loc 1 283 23 discriminator 1 view .LVU637
	add	r3, r3, #256
	str	r3, [sp, #28]
.LBB327:
	.loc 1 284 16 view .LVU638
	moveq	r3, #1
	movne	r3, #6
.LBE327:
	.loc 1 283 23 discriminator 1 view .LVU639
	add	r9, r9, #256
	add	r6, r6, #256
.LBB328:
	.loc 1 284 16 view .LVU640
	str	r3, [sp, #48]
	b	.L108
.LVL162:
.L116:
	.loc 1 284 16 view .LVU641
.LBE328:
.LBE292:
	.loc 1 282 43 discriminator 2 view .LVU642
	mov	r3, #5
.LBE291:
	.loc 1 281 22 discriminator 1 view .LVU643
	ldr	ip, [sp, #32]
	ldr	r5, [sp, #64]
	ldr	r4, [sp, #68]
.LVL163:
	.loc 1 281 32 is_stmt 1 discriminator 2 view .LVU644
	.loc 1 281 22 discriminator 1 view .LVU645
	cmp	ip, #15
	add	r4, r4, #15
	add	r5, r5, #15
.LBB329:
	.loc 1 282 43 is_stmt 0 discriminator 2 view .LVU646
	str	r3, [sp, #36]
.LVL164:
	.loc 1 282 43 discriminator 2 view .LVU647
.LBE329:
	.loc 1 281 22 discriminator 1 view .LVU648
	movne	ip, #15
.LVL165:
	.loc 1 281 22 discriminator 1 view .LVU649
	bne	.L119
.LVL166:
.L184:
	.loc 1 281 22 discriminator 1 view .LVU650
.LBE290:
	.loc 1 308 4 is_stmt 1 view .LVU651
	.loc 1 308 29 is_stmt 0 view .LVU652
	ldr	r0, [r8, #24]
	.loc 1 311 7 discriminator 1 view .LVU653
	ldr	ip, [fp, #16]
.LVL167:
	.loc 1 308 13 view .LVU654
	vldr.32	s14, [r0]
.LVL168:
.LBB330:
.LBI330:
	.file 3 "C:/Users/Elias/CLionProjects/3DSCraft/include/misc/NumberUtils.h"
	.loc 3 25 19 is_stmt 1 view .LVU655
.LBB331:
	.loc 3 25 40 view .LVU656
	.loc 3 25 47 is_stmt 0 view .LVU657
	vcvt.s32.f32	s15, s14
	.loc 3 25 58 view .LVU658
	vcvt.f32.s32	s13, s15
	vcmpe.f32	s14, s13
	vmrs	APSR_nzcv, FPSCR
	.loc 3 25 56 view .LVU659
	vmov	r2, s15	@ int
	.loc 3 25 58 view .LVU660
	movmi	r3, #1
	movpl	r3, #0
	.loc 3 25 56 view .LVU661
	sub	r1, r2, r3
.LVL169:
	.loc 3 25 56 view .LVU662
.LBE331:
.LBE330:
	.loc 1 309 4 is_stmt 1 view .LVU663
.LBB332:
.LBI332:
	.loc 3 25 19 view .LVU664
.LBB333:
	.loc 3 25 40 view .LVU665
	.loc 3 25 40 is_stmt 0 view .LVU666
.LBE333:
.LBE332:
	.loc 1 310 4 is_stmt 1 view .LVU667
.LBB335:
.LBI335:
	.loc 3 25 19 view .LVU668
.LBB336:
	.loc 3 25 40 view .LVU669
	.loc 3 25 40 is_stmt 0 view .LVU670
.LBE336:
.LBE335:
	.loc 1 311 4 is_stmt 1 view .LVU671
.LBB338:
.LBI338:
	.file 4 "C:/Users/Elias/CLionProjects/3DSCraft/include/world/World.h"
	.loc 4 51 19 view .LVU672
.LBB339:
	.loc 4 51 46 view .LVU673
	.loc 4 51 56 is_stmt 0 view .LVU674
	add	r2, r1, r1, lsr #31
	.loc 4 51 72 view .LVU675
	cmp	r2, #0
	add	r3, r2, #15
	movge	r3, r2
	asr	r3, r3, #4
	.loc 4 51 79 view .LVU676
	sub	r3, r3, r1, lsr #31
.LVL170:
	.loc 4 51 79 view .LVU677
.LBE339:
.LBE338:
	.loc 1 311 7 discriminator 1 view .LVU678
	cmp	ip, r3
	.loc 1 308 29 view .LVU679
	ldr	r4, [sp, #92]
	.loc 1 311 7 discriminator 1 view .LVU680
	beq	.L185
.LVL171:
.L120:
	.loc 1 317 4 is_stmt 1 view .LVU681
	.loc 1 318 37 is_stmt 0 view .LVU682
	ldr	r3, [r8, #12]
	.loc 1 317 47 view .LVU683
	ldr	r2, [r8, #16]
	.loc 1 321 7 view .LVU684
	cmp	r3, #0
	.loc 1 318 37 view .LVU685
	add	r3, r3, r3, lsl #1
	.loc 1 317 8 view .LVU686
	add	r1, r2, r2, lsl #1
	.loc 1 318 37 view .LVU687
	lsl	r3, r3, #1
	.loc 1 318 8 view .LVU688
	sub	r6, r3, r1, lsl #1
	.loc 1 317 8 view .LVU689
	lsl	r9, r1, #1
.LVL172:
	.loc 1 318 4 is_stmt 1 view .LVU690
	.loc 1 319 4 view .LVU691
	.loc 1 321 4 view .LVU692
	.loc 1 321 7 is_stmt 0 view .LVU693
	bne	.L186
.LVL173:
.L121:
	.loc 1 369 4 is_stmt 1 view .LVU694
	.loc 1 377 4 is_stmt 0 view .LVU695
	ldr	r0, .L188+12
	.loc 1 369 25 view .LVU696
	ldr	r5, [fp, #16]
.LVL174:
	.loc 1 370 4 is_stmt 1 view .LVU697
	.loc 1 371 4 view .LVU698
	.loc 1 371 25 is_stmt 0 view .LVU699
	ldr	r7, [fp, #20]
.LVL175:
	.loc 1 372 4 is_stmt 1 view .LVU700
	.loc 1 373 4 view .LVU701
	.loc 1 374 4 view .LVU702
	.loc 1 375 4 view .LVU703
	.loc 1 377 4 view .LVU704
	bl	LightLock_Lock
.LVL176:
	.loc 1 378 4 view .LVU705
	.loc 1 378 6 is_stmt 0 view .LVU706
	ldr	r2, .L188+16
	mov	r3, #40
	ldr	r1, [sp, #84]
	sub	r0, r2, #8
	bl	vec_expand_
.LVL177:
	.loc 1 378 133 discriminator 1 view .LVU707
	cmp	r0, #0
	bne	.L133
	.loc 1 378 181 discriminator 1 view .LVU708
	ldr	r3, [sp, #20]
	.loc 1 378 149 discriminator 1 view .LVU709
	ldr	ip, [r8, #32]
	.loc 1 378 181 discriminator 1 view .LVU710
	strh	r3, [sp, #182]	@ movhi
	ldr	r3, [sp, #80]
	str	r9, [sp, #176]
	str	r3, [sp, #148]
	ldr	r3, [sp, #76]
	strb	r0, [sp, #180]
	str	r3, [sp, #156]
	ldr	r3, [sp, #52]
	str	r5, [sp, #160]
	str	r3, [sp, #164]
	.loc 1 378 169 discriminator 1 view .LVU711
	ldr	r3, [r8, #36]
	.loc 1 378 181 discriminator 1 view .LVU712
	str	r7, [sp, #168]
	add	r2, r3, r3, lsl #2
	str	r6, [sp, #172]
	add	ip, ip, r2, lsl #3
	.loc 1 378 177 discriminator 1 view .LVU713
	add	r3, r3, #1
	.loc 1 378 181 discriminator 1 view .LVU714
	add	lr, sp, #144
	.loc 1 378 177 discriminator 1 view .LVU715
	str	r3, [r8, #36]
	.loc 1 378 181 discriminator 1 view .LVU716
	ldmia	lr!, {r0, r1, r2, r3}
	stmia	ip!, {r0, r1, r2, r3}
	ldmia	lr!, {r0, r1, r2, r3}
	stmia	ip!, {r0, r1, r2, r3}
	ldm	lr, {r0, r1}
	stm	ip, {r0, r1}
.LVL178:
.L133:
	.loc 1 379 4 is_stmt 1 view .LVU717
	ldr	r0, .L188+12
	bl	LightLock_Unlock
.LVL179:
	.loc 1 379 4 is_stmt 0 view .LVU718
	b	.L81
.LVL180:
.L185:
	.loc 1 310 13 view .LVU719
	vldr.32	s14, [r0, #8]
.LBB340:
.LBB337:
	.loc 3 25 47 view .LVU720
	vcvt.s32.f32	s15, s14
	.loc 3 25 58 view .LVU721
	vcvt.f32.s32	s13, s15
	vcmpe.f32	s14, s13
	vmrs	APSR_nzcv, FPSCR
	.loc 3 25 56 view .LVU722
	vmov	r2, s15	@ int
	.loc 3 25 58 view .LVU723
	movmi	r3, #1
	movpl	r3, #0
	.loc 3 25 56 view .LVU724
	sub	r3, r2, r3
.LVL181:
	.loc 3 25 56 view .LVU725
.LBE337:
.LBE340:
.LBB341:
.LBI341:
	.loc 4 51 19 is_stmt 1 view .LVU726
.LBB342:
	.loc 4 51 46 view .LVU727
	.loc 4 51 56 is_stmt 0 view .LVU728
	add	lr, r3, r3, lsr #31
	.loc 4 51 72 view .LVU729
	cmp	lr, #0
	add	r2, lr, #15
	movge	r2, lr
.LBE342:
.LBE341:
	.loc 1 311 47 discriminator 1 view .LVU730
	ldr	r5, [fp, #20]
.LBB344:
.LBB343:
	.loc 4 51 72 view .LVU731
	asr	r2, r2, #4
	.loc 4 51 79 view .LVU732
	sub	r2, r2, r3, lsr #31
.LVL182:
	.loc 4 51 79 view .LVU733
.LBE343:
.LBE344:
	.loc 1 311 47 discriminator 1 view .LVU734
	cmp	r5, r2
	bne	.L120
	.loc 1 309 13 view .LVU735
	vldr.32	s14, [r0, #4]
.LBB345:
.LBB334:
	.loc 3 25 47 view .LVU736
	vcvt.s32.f32	s15, s14
	.loc 3 25 58 view .LVU737
	vcvt.f32.s32	s13, s15
	vcmpe.f32	s14, s13
	vmrs	APSR_nzcv, FPSCR
	.loc 3 25 56 view .LVU738
	vmov	r0, s15	@ int
.LVL183:
	.loc 3 25 58 view .LVU739
	movmi	r2, #1
	movpl	r2, #0
	.loc 3 25 56 view .LVU740
	sub	r2, r0, r2
.LVL184:
	.loc 3 25 56 view .LVU741
.LBE334:
.LBE345:
.LBB346:
.LBI346:
	.loc 4 51 19 is_stmt 1 view .LVU742
.LBB347:
	.loc 4 51 46 view .LVU743
	.loc 4 51 56 is_stmt 0 view .LVU744
	add	lr, r2, r2, lsr #31
	.loc 4 51 72 view .LVU745
	cmp	lr, #0
	add	r0, lr, #15
	movge	r0, lr
.LBE347:
.LBE346:
	.loc 1 311 89 discriminator 2 view .LVU746
	ldr	lr, [sp, #52]
.LBB349:
.LBB348:
	.loc 4 51 72 view .LVU747
	asr	r0, r0, #4
	.loc 4 51 79 view .LVU748
	sub	r0, r0, r2, lsr #31
.LBE348:
.LBE349:
	.loc 1 311 89 discriminator 2 view .LVU749
	cmp	r0, lr
	bne	.L120
	.loc 1 313 5 is_stmt 1 view .LVU750
.LVL185:
.LBB350:
.LBI350:
	.loc 4 52 19 view .LVU751
.LBB351:
	.loc 4 52 46 view .LVU752
	.loc 4 52 55 is_stmt 0 discriminator 1 view .LVU753
	sub	r1, r1, ip, lsl #4
.LVL186:
	.loc 4 52 55 discriminator 1 view .LVU754
.LBE351:
.LBE350:
.LBB352:
.LBI352:
	.loc 4 52 19 is_stmt 1 view .LVU755
.LBB353:
	.loc 4 52 46 view .LVU756
	.loc 4 52 55 is_stmt 0 discriminator 1 view .LVU757
	sub	r2, r2, lr, lsl #4
.LVL187:
	.loc 4 52 55 discriminator 1 view .LVU758
.LBE353:
.LBE352:
.LBB354:
.LBI354:
	.loc 4 52 19 is_stmt 1 view .LVU759
.LBB355:
	.loc 4 52 46 view .LVU760
	.loc 4 52 46 is_stmt 0 view .LVU761
.LBE355:
.LBE354:
.LBB357:
.LBB358:
	.loc 1 172 29 view .LVU762
	ldr	ip, .L188+4
	add	r0, r2, r1, lsl #4
.LBE358:
.LBE357:
.LBB360:
.LBB356:
	.loc 4 52 55 discriminator 1 view .LVU763
	sub	r3, r3, r5, lsl #4
.LVL188:
	.loc 4 52 55 discriminator 1 view .LVU764
.LBE356:
.LBE360:
.LBB361:
.LBI357:
	.loc 1 170 17 is_stmt 1 view .LVU765
.LBB359:
	.loc 1 172 2 view .LVU766
	.loc 1 172 29 is_stmt 0 view .LVU767
	add	r0, ip, r0, lsl #4
	.loc 1 172 5 view .LVU768
	ldrb	r0, [r0, r3]	@ zero_extendqisi2
	tst	r0, #1
	bne	.L120
	mov	ip, #6
	ldr	r0, [sp, #24]
	str	ip, [sp, #8]
.LVL189:
	.loc 1 172 5 view .LVU769
	str	ip, [sp, #4]
	str	ip, [sp]
	bl	floodFill.part.0
.LVL190:
	.loc 1 172 5 view .LVU770
	b	.L120
.LVL191:
.L186:
	.loc 1 172 5 view .LVU771
.LBE359:
.LBE361:
.LBB362:
	.loc 1 322 5 is_stmt 1 view .LVU772
	.loc 1 323 5 view .LVU773
	.loc 1 323 8 is_stmt 0 view .LVU774
	cmp	r6, #0
	.loc 1 323 39 discriminator 1 view .LVU775
	add	r5, sp, #128
	.loc 1 323 8 view .LVU776
	ble	.L122
	.loc 1 323 28 is_stmt 1 discriminator 1 view .LVU777
	.loc 1 323 39 is_stmt 0 discriminator 1 view .LVU778
	mov	r0, r5
	lsl	r1, r6, #4
	bl	VBO_Alloc
.LVL192:
	.loc 1 323 39 discriminator 1 view .LVU779
	ldr	r3, [sp, #132]
	.loc 1 325 26 view .LVU780
	ldr	r2, [r8, #16]
	.loc 1 323 39 discriminator 1 view .LVU781
	str	r3, [sp, #80]
.LVL193:
.L122:
	.loc 1 324 5 is_stmt 1 view .LVU782
	.loc 1 325 5 view .LVU783
	.loc 1 325 8 is_stmt 0 view .LVU784
	cmp	r2, #0
	.loc 1 325 48 discriminator 1 view .LVU785
	add	r10, sp, #136
	.loc 1 325 8 view .LVU786
	ble	.L123
	.loc 1 325 31 is_stmt 1 discriminator 1 view .LVU787
	.loc 1 325 48 is_stmt 0 discriminator 1 view .LVU788
	mov	r0, r10
	lsl	r1, r9, #4
	bl	VBO_Alloc
.LVL194:
	ldr	r3, [sp, #140]
	str	r3, [sp, #76]
.LVL195:
.L123:
	.loc 1 327 5 is_stmt 1 view .LVU789
	.loc 1 328 5 view .LVU790
	.loc 1 329 5 view .LVU791
.LBB363:
	.loc 1 329 10 view .LVU792
	.loc 1 329 23 discriminator 1 view .LVU793
	ldr	r3, [r8, #12]
	cmp	r3, #0
	ble	.L187
.LBE363:
	.loc 1 328 18 is_stmt 0 view .LVU794
	ldr	r3, [sp, #76]
	str	r5, [sp, #100]
	str	r3, [sp, #24]
	.loc 1 327 18 view .LVU795
	ldr	r3, [sp, #80]
.LBB369:
.LBB364:
	.loc 1 334 31 view .LVU796
	ldr	r2, [sp, #52]
.LBE364:
.LBE369:
	.loc 1 327 18 view .LVU797
	str	r3, [sp, #16]
.LBB370:
	.loc 1 329 14 view .LVU798
	mov	r3, #0
	str	r3, [sp, #28]
	ldr	r3, .L188+8
.LBB367:
	.loc 1 334 31 view .LVU799
	lsl	r2, r2, #4
	mov	r5, r3
	str	r2, [sp, #64]
.LBB365:
	.loc 1 352 68 discriminator 2 view .LVU800
	ldr	r7, .L188+20
.LVL196:
	.loc 1 352 68 discriminator 2 view .LVU801
	add	r2, sp, #144
	str	r6, [sp, #68]
	str	r4, [sp, #92]
	str	r9, [sp, #96]
	str	r10, [sp, #104]
	str	r2, [sp, #48]
.LVL197:
.L131:
	.loc 1 352 68 discriminator 2 view .LVU802
.LBE365:
	.loc 1 330 6 is_stmt 1 view .LVU803
	.loc 1 330 11 is_stmt 0 view .LVU804
	ldrb	ip, [r5, #7]	@ zero_extendqisi2
	.loc 1 332 43 view .LVU805
	ldr	r2, [fp, #16]
	.loc 1 330 11 view .LVU806
	mov	r4, ip
	.loc 1 332 24 view .LVU807
	ldrsb	r3, [r5]
	.loc 1 334 10 view .LVU808
	ldr	r1, [sp, #64]
	.loc 1 332 10 view .LVU809
	add	r3, r3, r2, lsl #4
	str	r3, [sp, #32]
	.loc 1 333 43 view .LVU810
	ldr	r2, [fp, #20]
	.loc 1 333 24 view .LVU811
	ldrsb	r3, [r5, #2]
	.loc 1 330 11 view .LVU812
	ldrb	r6, [r5, #3]	@ zero_extendqisi2
.LVL198:
	.loc 1 333 10 view .LVU813
	add	r2, r3, r2, lsl #4
	.loc 1 334 24 view .LVU814
	ldrsb	r3, [r5, #1]
	.loc 1 330 11 view .LVU815
	ldrb	r9, [r5, #4]	@ zero_extendqisi2
.LVL199:
	.loc 1 330 11 view .LVU816
	ldrb	r10, [r5, #6]	@ zero_extendqisi2
.LVL200:
	.loc 1 334 10 view .LVU817
	add	r1, r3, r1
	.loc 1 337 6 view .LVU818
	mov	r0, r9
	ldr	r3, [sp, #48]
	.loc 1 333 10 view .LVU819
	str	r2, [sp, #36]
	.loc 1 334 10 view .LVU820
	str	r1, [sp, #40]
	.loc 1 337 6 view .LVU821
	mov	r2, r10
	mov	r1, r6
	.loc 1 330 11 view .LVU822
	str	ip, [sp, #44]
.LVL201:
	.loc 1 332 6 is_stmt 1 view .LVU823
	.loc 1 333 6 view .LVU824
	.loc 1 334 6 view .LVU825
	.loc 1 336 6 view .LVU826
	.loc 1 337 6 view .LVU827
	bl	Block_GetTexture
.LVL202:
	.loc 1 339 6 view .LVU828
	.loc 1 339 61 is_stmt 0 discriminator 1 view .LVU829
	ldr	r0, [sp, #24]
	cmp	r4, #0
	ldr	r3, [sp, #16]
	movne	r3, r0
	mov	r4, r3
.LVL203:
	.loc 1 340 6 is_stmt 1 view .LVU830
	ldr	r0, .L188+24
	.loc 1 340 50 is_stmt 0 view .LVU831
	add	r1, r6, r6, lsl #1
	.loc 1 340 6 view .LVU832
	add	r1, r0, r1, lsl #5
	mov	r2, #96
	mov	r0, r3
	bl	memcpy
.LVL204:
	.loc 1 345 6 is_stmt 1 view .LVU833
	.loc 1 346 6 view .LVU834
	mov	r0, r9
	mov	r2, r6
	mov	r1, r10
	add	r3, sp, #124
	bl	Block_GetColor
.LVL205:
	.loc 1 348 6 view .LVU835
.LBB366:
	.loc 1 348 11 view .LVU836
	.loc 1 348 24 discriminator 1 view .LVU837
	.loc 1 349 22 is_stmt 0 view .LVU838
	ldrh	r6, [sp, #32]
.LVL206:
	.loc 1 350 22 view .LVU839
	ldrh	r9, [sp, #40]
.LVL207:
	.loc 1 351 22 view .LVU840
	ldrh	r10, [sp, #36]
.LVL208:
	.loc 1 352 76 discriminator 4 view .LVU841
	ldrh	lr, [sp, #144]
	.loc 1 353 76 discriminator 4 view .LVU842
	ldrh	ip, [sp, #146]
	add	r0, r4, #96
.LVL209:
.L128:
	.loc 1 349 7 is_stmt 1 view .LVU843
	.loc 1 352 68 is_stmt 0 view .LVU844
	ldrsh	r3, [r4, #6]
	.loc 1 349 22 view .LVU845
	ldrh	r1, [r4]
	.loc 1 352 68 discriminator 2 view .LVU846
	cmp	r3, #1
	.loc 1 353 68 view .LVU847
	ldrsh	r3, [r4, #8]
	.loc 1 352 68 discriminator 2 view .LVU848
	moveq	r2, r7
	movne	r2, #1
	.loc 1 353 68 discriminator 2 view .LVU849
	cmp	r3, #1
	moveq	r3, r7
	movne	r3, #1
	.loc 1 349 22 view .LVU850
	add	r1, r6, r1
	strh	r1, [r4]	@ movhi
	.loc 1 350 7 is_stmt 1 view .LVU851
	.loc 1 350 22 is_stmt 0 view .LVU852
	ldrh	r1, [r4, #2]
	.loc 1 353 68 discriminator 4 view .LVU853
	add	r3, ip, r3
	.loc 1 350 22 view .LVU854
	add	r1, r9, r1
	strh	r1, [r4, #2]	@ movhi
	.loc 1 351 7 is_stmt 1 view .LVU855
	.loc 1 351 22 is_stmt 0 view .LVU856
	ldrh	r1, [r4, #4]
	.loc 1 352 68 discriminator 4 view .LVU857
	add	r2, lr, r2
	.loc 1 351 22 view .LVU858
	add	r1, r10, r1
	strh	r1, [r4, #4]	@ movhi
	.loc 1 352 7 is_stmt 1 view .LVU859
	.loc 1 352 21 is_stmt 0 discriminator 4 view .LVU860
	strh	r2, [r4, #6]	@ movhi
	.loc 1 353 7 is_stmt 1 view .LVU861
	.loc 1 353 21 is_stmt 0 discriminator 4 view .LVU862
	strh	r3, [r4, #8]	@ movhi
	.loc 1 355 7 is_stmt 1 view .LVU863
	.loc 1 355 29 is_stmt 0 view .LVU864
	ldrh	r3, [sp, #124]
	.loc 1 356 7 is_stmt 1 view .LVU865
	.loc 1 348 24 is_stmt 0 discriminator 1 view .LVU866
	add	r4, r4, #16
	.loc 1 355 22 view .LVU867
	strh	r3, [r4, #-6]	@ movhi
	.loc 1 357 7 is_stmt 1 view .LVU868
	.loc 1 357 29 is_stmt 0 view .LVU869
	ldrb	r3, [sp, #126]	@ zero_extendqisi2
	.loc 1 357 22 view .LVU870
	strb	r3, [r4, #-4]
	.loc 1 348 30 is_stmt 1 discriminator 2 view .LVU871
	.loc 1 348 24 discriminator 1 view .LVU872
	cmp	r0, r4
	bne	.L128
.LBE366:
	.loc 1 359 6 view .LVU873
	.loc 1 359 9 is_stmt 0 view .LVU874
	ldr	r3, [sp, #44]
.LBE367:
	.loc 1 329 23 discriminator 1 view .LVU875
	add	r5, r5, #8
.LBB368:
	.loc 1 359 9 view .LVU876
	cmp	r3, #0
	.loc 1 360 7 is_stmt 1 view .LVU877
	.loc 1 360 23 is_stmt 0 view .LVU878
	ldrne	r3, [sp, #24]
	.loc 1 362 18 view .LVU879
	ldreq	r3, [sp, #16]
	.loc 1 360 23 view .LVU880
	addne	r3, r3, #96
	.loc 1 362 18 view .LVU881
	addeq	r3, r3, #96
	.loc 1 360 23 view .LVU882
	strne	r3, [sp, #24]
.LVL210:
	.loc 1 362 7 is_stmt 1 view .LVU883
	.loc 1 362 18 is_stmt 0 view .LVU884
	streq	r3, [sp, #16]
.LVL211:
	.loc 1 362 18 view .LVU885
.LBE368:
	.loc 1 329 39 is_stmt 1 discriminator 2 view .LVU886
	ldr	r3, [sp, #28]
	add	r3, r3, #1
	mov	r2, r3
	str	r3, [sp, #28]
.LVL212:
	.loc 1 329 23 discriminator 1 view .LVU887
	ldr	r3, [r8, #12]
	cmp	r3, r2
	bgt	.L131
	ldr	r6, [sp, #68]
	ldr	r4, [sp, #92]
	ldr	r9, [sp, #96]
	ldr	r5, [sp, #100]
	ldr	r10, [sp, #104]
	ldr	r2, [sp, #48]
.LVL213:
.L132:
	.loc 1 329 23 is_stmt 0 discriminator 1 view .LVU888
.LBE370:
	.loc 1 365 5 is_stmt 1 view .LVU889
	.loc 1 365 16 is_stmt 0 view .LVU890
	ldr	r3, [sp, #80]
	str	r3, [sp, #132]
	.loc 1 366 27 view .LVU891
	ldr	r3, [sp, #76]
	.loc 1 365 16 view .LVU892
	ldm	r5, {r0, r1}
	.loc 1 366 27 view .LVU893
	str	r3, [sp, #140]
	add	r3, sp, #152
	.loc 1 365 16 view .LVU894
	stm	r2, {r0, r1}
.LVL214:
	.loc 1 366 5 is_stmt 1 view .LVU895
	.loc 1 366 27 is_stmt 0 view .LVU896
	ldm	r10, {r0, r1}
	stm	r3, {r0, r1}
.LVL215:
	.loc 1 366 27 view .LVU897
	b	.L121
.LVL216:
.L173:
	.loc 1 366 27 view .LVU898
.LBE362:
.LBE375:
.LBE378:
.LBE380:
	.loc 1 383 29 view .LVU899
	mov	r3, #0
	ldr	r4, [sp, #88]
	.loc 1 382 2 is_stmt 1 view .LVU900
	.loc 1 382 30 is_stmt 0 view .LVU901
	ldr	r2, [r4, #668]
	.loc 1 383 29 view .LVU902
	strb	r3, [r4, #676]
	.loc 1 382 30 view .LVU903
	str	r2, [r4, #672]
	.loc 1 383 2 is_stmt 1 view .LVU904
	.loc 1 384 1 is_stmt 0 view .LVU905
	add	sp, sp, #188
	.cfi_remember_state
	.cfi_def_cfa_offset 36
	@ sp needed
	pop	{r4, r5, r6, r7, r8, r9, r10, fp, pc}
.LVL217:
.L187:
	.cfi_restore_state
	.loc 1 384 1 view .LVU906
	add	r2, sp, #144
	b	.L132
.L189:
	.align	2
.L188:
	.word	.LANCHOR0
	.word	floodfill_visited
	.word	faceBuffer
	.word	.LANCHOR0+28
	.word	.LANCHOR0+40
	.word	4095
	.word	.LANCHOR1
	.cfi_endproc
.LFE155:
	.size	PolyGen_GeneratePolygons, .-PolyGen_GeneratePolygons
	.global	cube_sides_lut
	.section	.rodata
	.align	2
	.set	.LANCHOR1,. + 0
	.type	cube_sides_lut, %object
	.size	cube_sides_lut, 576
cube_sides_lut:
	.short	0
	.short	0
	.short	0
	.short	0
	.short	0
	.ascii	"\377\377\377"
	.ascii	"\000\000\000"
	.short	0
	.short	0
	.short	1
	.short	1
	.short	0
	.ascii	"\377\377\377"
	.ascii	"\000\000\000"
	.short	0
	.short	1
	.short	1
	.short	1
	.short	1
	.ascii	"\377\377\377"
	.ascii	"\000\000\000"
	.short	0
	.short	1
	.short	1
	.short	1
	.short	1
	.ascii	"\377\377\377"
	.ascii	"\000\000\000"
	.short	0
	.short	1
	.short	0
	.short	0
	.short	1
	.ascii	"\377\377\377"
	.ascii	"\000\000\000"
	.short	0
	.short	0
	.short	0
	.short	0
	.short	0
	.ascii	"\377\377\377"
	.ascii	"\000\000\000"
	.short	1
	.short	0
	.short	0
	.short	1
	.short	0
	.ascii	"\377\377\377"
	.ascii	"\000\000\000"
	.short	1
	.short	1
	.short	0
	.short	1
	.short	1
	.ascii	"\377\377\377"
	.ascii	"\000\000\000"
	.short	1
	.short	1
	.short	1
	.short	0
	.short	1
	.ascii	"\377\377\377"
	.ascii	"\000\000\000"
	.short	1
	.short	1
	.short	1
	.short	0
	.short	1
	.ascii	"\377\377\377"
	.ascii	"\000\000\000"
	.short	1
	.short	0
	.short	1
	.short	0
	.short	0
	.ascii	"\377\377\377"
	.ascii	"\000\000\000"
	.short	1
	.short	0
	.short	0
	.short	1
	.short	0
	.ascii	"\377\377\377"
	.ascii	"\000\000\000"
	.short	0
	.short	0
	.short	0
	.short	0
	.short	1
	.ascii	"\377\377\377"
	.ascii	"\000\000\000"
	.short	1
	.short	0
	.short	0
	.short	1
	.short	1
	.ascii	"\377\377\377"
	.ascii	"\000\000\000"
	.short	1
	.short	0
	.short	1
	.short	1
	.short	0
	.ascii	"\377\377\377"
	.ascii	"\000\000\000"
	.short	1
	.short	0
	.short	1
	.short	1
	.short	0
	.ascii	"\377\377\377"
	.ascii	"\000\000\000"
	.short	0
	.short	0
	.short	1
	.short	0
	.short	0
	.ascii	"\377\377\377"
	.ascii	"\000\000\000"
	.short	0
	.short	0
	.short	0
	.short	0
	.short	1
	.ascii	"\377\377\377"
	.ascii	"\000\000\000"
	.short	0
	.short	1
	.short	0
	.short	0
	.short	1
	.ascii	"\377\377\377"
	.ascii	"\000\000\000"
	.short	0
	.short	1
	.short	1
	.short	0
	.short	0
	.ascii	"\377\377\377"
	.ascii	"\000\000\000"
	.short	1
	.short	1
	.short	1
	.short	1
	.short	0
	.ascii	"\377\377\377"
	.ascii	"\000\000\000"
	.short	1
	.short	1
	.short	1
	.short	1
	.short	0
	.ascii	"\377\377\377"
	.ascii	"\000\000\000"
	.short	1
	.short	1
	.short	0
	.short	1
	.short	1
	.ascii	"\377\377\377"
	.ascii	"\000\000\000"
	.short	0
	.short	1
	.short	0
	.short	0
	.short	1
	.ascii	"\377\377\377"
	.ascii	"\000\000\000"
	.short	0
	.short	0
	.short	0
	.short	1
	.short	0
	.ascii	"\377\377\377"
	.ascii	"\000\000\000"
	.short	0
	.short	1
	.short	0
	.short	1
	.short	1
	.ascii	"\377\377\377"
	.ascii	"\000\000\000"
	.short	1
	.short	1
	.short	0
	.short	0
	.short	1
	.ascii	"\377\377\377"
	.ascii	"\000\000\000"
	.short	1
	.short	1
	.short	0
	.short	0
	.short	1
	.ascii	"\377\377\377"
	.ascii	"\000\000\000"
	.short	1
	.short	0
	.short	0
	.short	0
	.short	0
	.ascii	"\377\377\377"
	.ascii	"\000\000\000"
	.short	0
	.short	0
	.short	0
	.short	1
	.short	0
	.ascii	"\377\377\377"
	.ascii	"\000\000\000"
	.short	0
	.short	0
	.short	1
	.short	0
	.short	0
	.ascii	"\377\377\377"
	.ascii	"\000\000\000"
	.short	1
	.short	0
	.short	1
	.short	1
	.short	0
	.ascii	"\377\377\377"
	.ascii	"\000\000\000"
	.short	1
	.short	1
	.short	1
	.short	1
	.short	1
	.ascii	"\377\377\377"
	.ascii	"\000\000\000"
	.short	1
	.short	1
	.short	1
	.short	1
	.short	1
	.ascii	"\377\377\377"
	.ascii	"\000\000\000"
	.short	0
	.short	1
	.short	1
	.short	0
	.short	1
	.ascii	"\377\377\377"
	.ascii	"\000\000\000"
	.short	0
	.short	0
	.short	1
	.short	0
	.short	0
	.ascii	"\377\377\377"
	.ascii	"\000\000\000"
	.bss
	.align	2
	.set	.LANCHOR0,. + 0
	.type	floodfill_queue, %object
	.size	floodfill_queue, 12
floodfill_queue:
	.space	12
	.type	currentFace, %object
	.size	currentFace, 4
currentFace:
	.space	4
	.type	transparentFaces, %object
	.size	transparentFaces, 4
transparentFaces:
	.space	4
	.type	world, %object
	.size	world, 4
world:
	.space	4
	.type	player, %object
	.size	player, 4
player:
	.space	4
	.type	updateLock, %object
	.size	updateLock, 4
updateLock:
	.space	4
	.type	vboUpdates, %object
	.size	vboUpdates, 12
vboUpdates:
	.space	12
	.type	floodfill_visited, %object
	.size	floodfill_visited, 4096
floodfill_visited:
	.space	4096
	.type	faceBuffer, %object
	.size	faceBuffer, 98304
faceBuffer:
	.space	98304
	.text
.Letext0:
	.file 5 "C:/devkitPro/devkitARM/lib/gcc/arm-none-eabi/13.2.0/include/stddef.h"
	.file 6 "C:/devkitPro/devkitARM/arm-none-eabi/include/machine/_default_types.h"
	.file 7 "C:/devkitPro/devkitARM/arm-none-eabi/include/sys/_stdint.h"
	.file 8 "C:/devkitPro/devkitARM/arm-none-eabi/include/sys/lock.h"
	.file 9 "C:/Users/Elias/CLionProjects/3DSCraft/include/world/Direction.h"
	.file 10 "C:/Users/Elias/CLionProjects/3DSCraft/include/blocks/Block.h"
	.file 11 "C:/Users/Elias/CLionProjects/3DSCraft/include/misc/Xorshift.h"
	.file 12 "C:/Users/Elias/CLionProjects/3DSCraft/include/rendering/VBOCache.h"
	.file 13 "C:/devkitPro/libctru/include/3ds/types.h"
	.file 14 "C:/devkitPro/libctru/include/3ds/synchronization.h"
	.file 15 "C:/devkitPro/libctru/include/3ds/services/csnd.h"
	.file 16 "C:/devkitPro/libctru/include/3ds/services/ndm.h"
	.file 17 "C:/devkitPro/libctru/include/3ds/gpu/enums.h"
	.file 18 "C:/devkitPro/libctru/include/3ds/ndsp/channel.h"
	.file 19 "C:/devkitPro/libctru/include/3ds/applets/error.h"
	.file 20 "C:/Users/Elias/CLionProjects/3DSCraft/include/world/WorkQueue.h"
	.file 21 "C:/Users/Elias/CLionProjects/3DSCraft/include/blocks/Item.h"
	.file 22 "C:/Users/Elias/CLionProjects/3DSCraft/include/inventory/ItemStack.h"
	.file 23 "C:/Users/Elias/CLionProjects/3DSCraft/include/misc/VecMath.h"
	.file 24 "C:/Users/Elias/CLionProjects/3DSCraft/include/misc/Raycast.h"
	.file 25 "C:/Users/Elias/CLionProjects/3DSCraft/include/entity/Player.h"
	.file 26 "C:/Users/Elias/CLionProjects/3DSCraft/include/rendering/VertexFmt.h"
	.file 27 "C:/Users/Elias/CLionProjects/3DSCraft/dependencies/vec/vec.h"
	.file 28 "C:/devkitPro/devkitARM/arm-none-eabi/include/string.h"
	.file 29 "C:/Users/Elias/CLionProjects/3DSCraft/include/gui/DebugUI.h"
	.file 30 "C:/devkitPro/devkitARM/arm-none-eabi/include/stdlib.h"
	.file 31 "<built-in>"