	.arch armv6k
	.fpu vfp
	.eabi_attribute 28, 1
	.eabi_attribute 20, 1
	.eabi_attribute 21, 1
	.eabi_attribute 23, 3
	.eabi_attribute 24, 1
	.eabi_attribute 25, 1
	.eabi_attribute 26, 1
	.eabi_attribute 30, 2
	.eabi_attribute 34, 1
	.eabi_attribute 18, 4
	.file	"SaveManager.c"
	.text
.Ltext0:
	.cfi_sections	.debug_frame
	.file 1 "C:/Users/Elias/CLionProjects/3DSCraft/source/world/savegame/SaveManager.c"
	.section	.text.fetchSuperChunk,"ax",%progbits
	.align	2
	.syntax unified
	.arm
	.type	fetchSuperChunk, %function
fetchSuperChunk:
.LVL0:
.LFB283:
	.loc 1 157 68 view -0
	.cfi_startproc
	@ args = 0, pretend = 0, frame = 0
	@ frame_needed = 0, uses_anonymous_args = 0
	.loc 1 158 2 view .LVU1
.LBB103:
	.loc 1 158 7 view .LVU2
	.loc 1 158 20 discriminator 1 view .LVU3
.LBE103:
	.loc 1 157 68 is_stmt 0 view .LVU4
	push	{r4, r5, r6, r7, r8, lr}
	.cfi_def_cfa_offset 24
	.cfi_offset 4, -24
	.cfi_offset 5, -20
	.cfi_offset 6, -16
	.cfi_offset 7, -12
	.cfi_offset 8, -8
	.cfi_offset 14, -4
	.loc 1 157 68 view .LVU5
	mov	r5, r1
.LBB104:
	.loc 1 158 38 discriminator 1 view .LVU6
	ldr	r1, [r0, #12]
.LVL1:
	.loc 1 158 38 discriminator 1 view .LVU7
.LBE104:
	.loc 1 157 68 view .LVU8
	mov	r6, r0
.LBB105:
	.loc 1 158 20 discriminator 1 view .LVU9
	cmp	r1, #0
.LBE105:
	.loc 1 157 68 view .LVU10
	mov	r7, r2
.LBB106:
	.loc 1 158 20 discriminator 1 view .LVU11
	ble	.L2
	ldr	ip, [r0, #8]
	.loc 1 158 11 view .LVU12
	mov	r3, #0
	sub	ip, ip, #4
	b	.L5
.LVL2:
.L3:
	.loc 1 158 20 discriminator 1 view .LVU13
	cmp	r3, r1
	beq	.L2
.LVL3:
.L5:
	.loc 1 159 3 is_stmt 1 view .LVU14
	.loc 1 158 48 discriminator 2 view .LVU15
	.loc 1 159 28 is_stmt 0 view .LVU16
	ldr	r4, [ip, #4]!
	.loc 1 158 48 discriminator 2 view .LVU17
	add	r3, r3, #1
.LVL4:
	.loc 1 158 20 is_stmt 1 discriminator 1 view .LVU18
	.loc 1 159 6 is_stmt 0 view .LVU19
	ldr	lr, [r4]
	cmp	lr, r5
	bne	.L3
	.loc 1 159 40 discriminator 1 view .LVU20
	ldr	r0, [r4, #4]
	cmp	r0, r7
	bne	.L3
.LBE106:
	.loc 1 168 1 view .LVU21
	mov	r0, r4
	pop	{r4, r5, r6, r7, r8, pc}
.LVL5:
.L2:
	.loc 1 163 2 is_stmt 1 view .LVU22
	.loc 1 163 40 is_stmt 0 view .LVU23
	ldr	r0, .L10
	bl	malloc
.LVL6:
	.loc 1 164 2 view .LVU24
	mov	r2, r7
	mov	r1, r5
	.loc 1 163 40 view .LVU25
	mov	r4, r0
.LVL7:
	.loc 1 164 2 is_stmt 1 view .LVU26
	bl	SuperChunk_Init
.LVL8:
	.loc 1 165 2 view .LVU27
	.loc 1 165 4 is_stmt 0 view .LVU28
	mov	r3, #4
	add	r2, r6, #16
	add	r1, r6, #12
	add	r0, r6, #8
	bl	vec_expand_
.LVL9:
	.loc 1 165 155 discriminator 1 view .LVU29
	cmp	r0, #0
	.loc 1 165 177 discriminator 1 view .LVU30
	ldrdeq	r2, [r6, #8]
	.loc 1 165 211 discriminator 1 view .LVU31
	addeq	r1, r3, #1
	streq	r1, [r6, #12]
	.loc 1 166 2 view .LVU32
	ldr	r0, .L10+4
	mov	r1, #0
	.loc 1 165 215 discriminator 1 view .LVU33
	streq	r4, [r2, r3, lsl #2]
	.loc 1 166 2 is_stmt 1 view .LVU34
	bl	svcSleepThread
.LVL10:
	.loc 1 167 2 view .LVU35
	.loc 1 168 1 is_stmt 0 view .LVU36
	mov	r0, r4
	pop	{r4, r5, r6, r7, r8, pc}
.L11:
	.align	2
.L10:
	.word	1304
	.word	50000
	.cfi_endproc
.LFE283:
	.size	fetchSuperChunk, .-fetchSuperChunk
	.section	.rodata.str1.4,"aMS",%progbits,1
	.align	2
.LC0:
	.ascii	"sdmc:/craftus_redesigned\000"
	.align	2
.LC1:
	.ascii	"sdmc:/craftus_redesigned/saves\000"
	.section	.text.SaveManager_InitFileSystem,"ax",%progbits
	.align	2
	.global	SaveManager_InitFileSystem
	.syntax unified
	.arm
	.type	SaveManager_InitFileSystem, %function
SaveManager_InitFileSystem:
.LFB278:
	.loc 1 14 35 is_stmt 1 view -0
	.cfi_startproc
	@ args = 0, pretend = 0, frame = 0
	@ frame_needed = 0, uses_anonymous_args = 0
	.loc 1 15 2 view .LVU38
	.loc 1 14 35 is_stmt 0 view .LVU39
	push	{r4, lr}
	.cfi_def_cfa_offset 8
	.cfi_offset 4, -8
	.cfi_offset 14, -4
	.loc 1 15 2 view .LVU40
	ldr	r4, .L14
	ldr	r0, .L14+4
	mov	r1, r4
	bl	mkdir
.LVL11:
	.loc 1 16 2 is_stmt 1 view .LVU41
	mov	r1, r4
	.loc 1 17 1 is_stmt 0 view .LVU42
	pop	{r4, lr}
	.cfi_restore 14
	.cfi_restore 4
	.cfi_def_cfa_offset 0
	.loc 1 16 2 view .LVU43
	ldr	r0, .L14+8
	b	mkdir
.LVL12:
.L15:
	.align	2
.L14:
	.word	509
	.word	.LC0
	.word	.LC1
	.cfi_endproc
.LFE278:
	.size	SaveManager_InitFileSystem, .-SaveManager_InitFileSystem
	.section	.text.SaveManager_Init,"ax",%progbits
	.align	2
	.global	SaveManager_Init
	.syntax unified
	.arm
	.type	SaveManager_Init, %function
SaveManager_Init:
.LVL13:
.LFB279:
	.loc 1 19 57 is_stmt 1 view -0
	.cfi_startproc
	@ args = 0, pretend = 0, frame = 0
	@ frame_needed = 0, uses_anonymous_args = 0
	@ link register save eliminated.
	.loc 1 20 2 view .LVU45
	.loc 1 23 2 is_stmt 0 view .LVU46
	mov	r3, #0
	.loc 1 21 13 view .LVU47
	ldr	r2, [r1, #40]
	.loc 1 23 2 view .LVU48
	str	r3, [r0, #8]	@ unaligned
	.loc 1 21 13 view .LVU49
	stm	r0, {r1, r2}
	.loc 1 23 2 is_stmt 1 view .LVU50
	str	r3, [r0, #12]	@ unaligned
	str	r3, [r0, #16]	@ unaligned
	.loc 1 24 1 is_stmt 0 view .LVU51
	bx	lr
	.cfi_endproc
.LFE279:
	.size	SaveManager_Init, .-SaveManager_Init
	.section	.text.SaveManager_Deinit,"ax",%progbits
	.align	2
	.global	SaveManager_Deinit
	.syntax unified
	.arm
	.type	SaveManager_Deinit, %function
SaveManager_Deinit:
.LVL14:
.LFB280:
	.loc 1 25 43 is_stmt 1 view -0
	.cfi_startproc
	@ args = 0, pretend = 0, frame = 0
	@ frame_needed = 0, uses_anonymous_args = 0
	.loc 1 25 45 view .LVU53
	.loc 1 25 43 is_stmt 0 view .LVU54
	push	{r4, r5, r6, lr}
	.cfi_def_cfa_offset 16
	.cfi_offset 4, -16
	.cfi_offset 5, -12
	.cfi_offset 6, -8
	.cfi_offset 14, -4
	.loc 1 25 47 view .LVU55
	mov	r4, r0
	.loc 1 25 43 view .LVU56
	mov	r5, r0
	.loc 1 25 47 view .LVU57
	ldr	r0, [r4, #8]!
.LVL15:
	.loc 1 25 47 view .LVU58
	bl	free
.LVL16:
	.loc 1 25 80 discriminator 1 view .LVU59
	mov	r3, #0
	str	r3, [r5, #8]	@ unaligned
	str	r3, [r4, #4]	@ unaligned
	str	r3, [r4, #8]	@ unaligned
	.loc 1 25 144 view .LVU60
	pop	{r4, r5, r6, pc}
	.cfi_endproc
.LFE280:
	.size	SaveManager_Deinit, .-SaveManager_Deinit
	.section	.rodata.str1.4
	.align	2
.LC2:
	.ascii	"sdmc:/craftus_redesigned/saves/%s\000"
	.align	2
.LC3:
	.ascii	"superchunks\000"
	.align	2
.LC4:
	.ascii	"level.mp\000"
	.align	2
.LC5:
	.ascii	"name\000"
	.align	2
.LC6:
	.ascii	"worldType\000"
	.align	2
.LC7:
	.ascii	"players\000"
	.align	2
.LC8:
	.ascii	"x\000"
	.global	__aeabi_ul2f
	.global	__aeabi_l2f
	.align	2
.LC9:
	.ascii	"y\000"
	.align	2
.LC10:
	.ascii	"z\000"
	.align	2
.LC11:
	.ascii	"hp\000"
	.align	2
.LC12:
	.ascii	"hunger\000"
	.align	2
.LC13:
	.ascii	"pitch\000"
	.align	2
.LC14:
	.ascii	"yaw\000"
	.align	2
.LC15:
	.ascii	"flying\000"
	.align	2
.LC16:
	.ascii	"crouching\000"
	.align	2
.LC17:
	.ascii	"Mpack error %d while loading world manifest %s\000"
	.section	.text.SaveManager_Load,"ax",%progbits
	.align	2
	.global	SaveManager_Load
	.syntax unified
	.arm
	.type	SaveManager_Load, %function
SaveManager_Load:
.LVL17:
.LFB281:
	.loc 1 31 53 is_stmt 1 view -0
	.cfi_startproc
	@ args = 0, pretend = 0, frame = 536
	@ frame_needed = 0, uses_anonymous_args = 0
	.loc 1 32 2 view .LVU62
	.loc 1 34 2 view .LVU63
	.loc 1 31 53 is_stmt 0 view .LVU64
	push	{r4, r5, r6, r7, r8, lr}
	.cfi_def_cfa_offset 24
	.cfi_offset 4, -24
	.cfi_offset 5, -20
	.cfi_offset 6, -16
	.cfi_offset 7, -12
	.cfi_offset 8, -8
	.cfi_offset 14, -4
	mov	r6, r1
	sub	sp, sp, #536
	.cfi_def_cfa_offset 560
	.loc 1 34 2 view .LVU65
	mov	r2, r6
	ldr	r1, .L128+4
.LVL18:
	.loc 1 31 53 view .LVU66
	mov	r5, r0
	.loc 1 34 2 view .LVU67
	add	r0, sp, #280
.LVL19:
	.loc 1 34 2 view .LVU68
	bl	sprintf
.LVL20:
	.loc 1 35 2 is_stmt 1 view .LVU69
	ldr	r1, .L128+8
	add	r0, sp, #280
	bl	mkdir
.LVL21:
	.loc 1 36 2 view .LVU70
	add	r0, sp, #280
	bl	chdir
.LVL22:
	.loc 1 38 2 view .LVU71
	ldr	r1, .L128+8
	ldr	r0, .L128+12
	bl	mkdir
.LVL23:
	.loc 1 40 2 view .LVU72
	.loc 1 40 6 is_stmt 0 view .LVU73
	mov	r1, #0
	ldr	r0, .L128+16
	bl	access
.LVL24:
	.loc 1 40 5 discriminator 1 view .LVU74
	cmn	r0, #1
	bne	.L119
.L19:
	.loc 1 98 1 view .LVU75
	add	sp, sp, #536
	.cfi_remember_state
	.cfi_def_cfa_offset 24
	@ sp needed
	pop	{r4, r5, r6, r7, r8, pc}
.LVL25:
.L119:
	.cfi_restore_state
.LBB210:
	.loc 1 41 3 is_stmt 1 view .LVU76
	.loc 1 42 3 view .LVU77
	.loc 1 43 23 is_stmt 0 view .LVU78
	add	r4, sp, #8
	.loc 1 42 3 view .LVU79
	mov	r2, #0
	ldr	r1, .L128+16
	add	r0, sp, #224
	bl	mpack_tree_init_file
.LVL26:
	.loc 1 43 3 is_stmt 1 view .LVU80
	.loc 1 45 3 is_stmt 0 view .LVU81
	add	r7, sp, #40
	.loc 1 43 23 view .LVU82
	mov	r0, r4
	add	r1, sp, #224
	bl	mpack_tree_root
.LVL27:
	.loc 1 45 3 is_stmt 1 view .LVU83
	ldm	r4, {r1, r2}
	mov	r0, r7
	ldr	r3, .L128+20
	bl	mpack_node_map_cstr
.LVL28:
	.loc 1 45 3 is_stmt 0 discriminator 1 view .LVU84
	ldm	r7, {r0, r1}
	.loc 1 45 74 discriminator 1 view .LVU85
	ldr	r2, [r5, #4]
	.loc 1 45 3 discriminator 1 view .LVU86
	mov	r3, #12
	add	r2, r2, #4
	bl	mpack_node_copy_utf8_cstr
.LVL29:
	.loc 1 47 3 is_stmt 1 view .LVU87
	.loc 1 47 32 is_stmt 0 view .LVU88
	ldm	r4, {r1, r2}
	ldr	r3, .L128+24
	mov	r0, sp
	bl	mpack_node_map_cstr_optional
.LVL30:
	ldrd	r2, [r4, #-8]
.LVL31:
	.loc 1 48 3 is_stmt 1 view .LVU89
.LBB211:
.LBI211:
	.file 2 "C:/Users/Elias/CLionProjects/3DSCraft/dependencies/mpack/mpack.h"
	.loc 2 4730 21 view .LVU90
.LBB212:
	.loc 2 4731 5 view .LVU91
.LBB213:
.LBI213:
	.loc 2 4690 22 view .LVU92
	.loc 2 4691 5 view .LVU93
.LBB214:
.LBI214:
	.loc 2 4592 22 view .LVU94
.LBB215:
	.loc 2 4593 5 view .LVU95
	.loc 2 4593 16 is_stmt 0 view .LVU96
	ldrb	r7, [r3, #32]	@ zero_extendqisi2
.LVL32:
	.loc 2 4593 16 view .LVU97
.LBE215:
.LBE214:
.LBE213:
	.loc 2 4731 8 discriminator 1 view .LVU98
	cmp	r7, #0
	bne	.L21
	.loc 2 4733 5 is_stmt 1 view .LVU99
	.loc 2 4733 21 is_stmt 0 view .LVU100
	ldrb	r1, [r2]	@ zero_extendqisi2
.LVL33:
	.loc 2 4733 21 view .LVU101
.LBE212:
.LBE211:
	.loc 1 48 6 discriminator 1 view .LVU102
	cmp	r1, #1
	bne	.L120
.L21:
	.loc 1 51 4 is_stmt 1 view .LVU103
	.loc 1 51 33 is_stmt 0 view .LVU104
	mov	r2, #1
.LVL34:
	.loc 1 51 33 view .LVU105
	ldr	r3, [r5, #4]
.LVL35:
	.loc 1 51 33 view .LVU106
	strb	r2, [r3, #24]
.L25:
	.loc 1 53 3 is_stmt 1 view .LVU107
	.loc 1 53 25 is_stmt 0 view .LVU108
	add	r7, sp, #48
	ldm	r4, {r1, r2}
	mov	r0, r7
	ldr	r3, .L128+28
	bl	mpack_node_map_cstr
.LVL36:
	ldm	r7, {r0, r1}
	ldr	r4, [sp, #52]
	add	r3, sp, #168
.LBB216:
.LBB217:
	.loc 2 5433 8 discriminator 1 view .LVU109
	ldrb	r2, [r4, #32]	@ zero_extendqisi2
	stm	r3, {r0, r1}
.LVL37:
	.loc 2 5433 8 discriminator 1 view .LVU110
.LBE217:
.LBI216:
	.loc 2 5432 21 is_stmt 1 view .LVU111
.LBB231:
	.loc 2 5433 5 view .LVU112
.LBB218:
.LBI218:
	.loc 2 4690 22 view .LVU113
	.loc 2 4691 5 view .LVU114
.LBB219:
.LBI219:
	.loc 2 4592 22 view .LVU115
.LBB220:
	.loc 2 4593 5 view .LVU116
	.loc 2 4593 5 is_stmt 0 view .LVU117
.LBE220:
.LBE219:
.LBE218:
	.loc 2 5433 8 discriminator 1 view .LVU118
	cmp	r2, #0
	bne	.L116
	ldr	r2, [sp, #48]
	.loc 2 5436 5 is_stmt 1 view .LVU119
	.loc 2 5436 8 is_stmt 0 view .LVU120
	ldrb	r1, [r2]	@ zero_extendqisi2
.LVL38:
	.loc 2 5436 8 view .LVU121
	cmp	r1, #10
	bne	.L121
	.loc 2 5441 5 is_stmt 1 view .LVU122
	.loc 2 5441 8 is_stmt 0 view .LVU123
	ldr	r1, [r2, #4]
	cmp	r1, #0
.LBB221:
.LBB222:
	.loc 2 4522 28 view .LVU124
	ldrne	r3, [r2, #8]
.LBE222:
.LBE221:
	.loc 2 5441 8 view .LVU125
	beq	.L122
.LVL39:
.L27:
.LBB223:
.LBB224:
.LBB225:
.LBB226:
	.loc 2 4518 12 view .LVU126
	str	r3, [sp, #16]
	str	r4, [sp, #20]
.LVL40:
	.loc 2 4518 12 view .LVU127
.LBE226:
.LBE225:
.LBE224:
.LBE223:
.LBE231:
.LBE216:
	.loc 1 55 3 is_stmt 1 view .LVU128
	.loc 1 55 29 is_stmt 0 view .LVU129
	add	r7, sp, #56
	add	r4, sp, #16
	mov	r0, r7
	ldm	r4, {r1, r2}
	ldr	r3, .L128+32
	bl	mpack_node_map_cstr
.LVL41:
	ldm	r7, {r0, r1}
.LBB234:
.LBB235:
.LBB236:
.LBB237:
.LBB238:
	.loc 2 4593 16 view .LVU130
	ldr	r3, [sp, #60]
	add	ip, sp, #160
.LBE238:
.LBE237:
.LBE236:
	.loc 2 4991 8 discriminator 1 view .LVU131
	ldrb	r3, [r3, #32]	@ zero_extendqisi2
	stm	ip, {r0, r1}
.LVL42:
	.loc 2 4991 8 discriminator 1 view .LVU132
.LBE235:
.LBI234:
	.loc 2 4990 14 is_stmt 1 view .LVU133
.LBB242:
	.loc 2 4991 5 view .LVU134
.LBB241:
.LBI236:
	.loc 2 4690 22 view .LVU135
	.loc 2 4691 5 view .LVU136
.LBB240:
.LBI237:
	.loc 2 4592 22 view .LVU137
.LBB239:
	.loc 2 4593 5 view .LVU138
	.loc 2 4593 5 is_stmt 0 view .LVU139
.LBE239:
.LBE240:
.LBE241:
	.loc 2 4991 8 discriminator 1 view .LVU140
	cmp	r3, #0
.LBE242:
.LBE234:
	.loc 1 55 6 discriminator 1 view .LVU141
	ldr	r7, [r5]
.LBB248:
.LBB243:
	.loc 2 4991 8 discriminator 1 view .LVU142
	bne	.L30
	.loc 2 4994 5 is_stmt 1 view .LVU143
	ldrb	r3, [r0]	@ zero_extendqisi2
	sub	r3, r3, #3
	cmp	r3, #3
	ldrls	pc, [pc, r3, asl #2]
	b	.L31
.L33:
	.word	.L36
	.word	.L35
	.word	.L34
	.word	.L32
.LVL43:
.L121:
	.loc 2 4994 5 is_stmt 0 view .LVU144
.LBE243:
.LBE248:
.LBB249:
.LBB232:
	.loc 2 5437 9 is_stmt 1 view .LVU145
	mov	r2, #4
	ldm	r3, {r0, r1}
.LVL44:
	.loc 2 5437 9 is_stmt 0 view .LVU146
	bl	mpack_node_flag_error
.LVL45:
.L116:
	.loc 2 5438 9 is_stmt 1 view .LVU147
.LBB227:
.LBI227:
	.loc 2 4525 21 view .LVU148
.LBB228:
	.loc 2 4526 5 view .LVU149
	.loc 2 4526 12 is_stmt 0 view .LVU150
	add	r3, r4, #16
.LVL46:
	.loc 2 4526 12 view .LVU151
.LBE228:
.LBE227:
	.loc 2 5438 16 view .LVU152
	b	.L27
.LVL47:
.L120:
	.loc 2 5438 16 view .LVU153
.LBE232:
.LBE249:
	.loc 1 49 4 is_stmt 1 view .LVU154
.LBB250:
.LBI250:
	.loc 2 4944 21 view .LVU155
.LBB251:
	.loc 2 4947 5 view .LVU156
	.loc 2 4948 9 view .LVU157
.LBB252:
.LBB253:
	.loc 2 4867 8 is_stmt 0 view .LVU158
	cmp	r1, #6
	str	r3, [sp, #220]
.LBE253:
.LBI252:
	.loc 2 4863 17 is_stmt 1 view .LVU159
.LVL48:
.LBB254:
	.loc 2 4864 5 view .LVU160
	.loc 2 4867 5 view .LVU161
	str	r2, [sp, #216]
	add	r3, sp, #216
.LVL49:
	.loc 2 4867 8 is_stmt 0 view .LVU162
	beq	.L118
	.loc 2 4870 12 is_stmt 1 view .LVU163
	.loc 2 4870 15 is_stmt 0 view .LVU164
	cmp	r1, #5
	beq	.L118
.LVL50:
.L23:
	.loc 2 4875 5 is_stmt 1 view .LVU165
	ldm	r3, {r0, r1}
	mov	r2, #4
	bl	mpack_node_flag_error
.LVL51:
	.loc 2 4876 5 view .LVU166
.L24:
	.loc 2 4876 5 is_stmt 0 view .LVU167
.LBE254:
.LBE252:
.LBE251:
.LBE250:
	.loc 1 49 33 discriminator 1 view .LVU168
	ldr	r3, [r5, #4]
	strb	r7, [r3, #24]
	b	.L25
.LVL52:
.L32:
.LBB261:
.LBB244:
	.loc 2 4995 9 is_stmt 1 view .LVU169
	.loc 2 4995 16 is_stmt 0 view .LVU170
	ldrd	r0, [r0, #8]
.LVL53:
	.loc 2 4995 16 view .LVU171
	bl	__aeabi_ul2f
.LVL54:
	.loc 2 4995 16 view .LVU172
	vmov	s14, r0
.L37:
.LVL55:
	.loc 2 4995 16 view .LVU173
.LBE244:
.LBE261:
	.loc 1 56 29 view .LVU174
	ldm	r4, {r1, r2}
	.loc 1 55 27 discriminator 2 view .LVU175
	vstr.32	s14, [r7]
	.loc 1 56 3 is_stmt 1 view .LVU176
	.loc 1 56 29 is_stmt 0 view .LVU177
	add	r7, sp, #64
	mov	r0, r7
	ldr	r3, .L128+36
	bl	mpack_node_map_cstr
.LVL56:
	ldm	r7, {r0, r1}
.LBB262:
.LBB263:
.LBB264:
.LBB265:
.LBB266:
	.loc 2 4593 16 view .LVU178
	ldr	r3, [sp, #68]
	add	ip, sp, #152
.LBE266:
.LBE265:
.LBE264:
	.loc 2 4991 8 discriminator 1 view .LVU179
	ldrb	r3, [r3, #32]	@ zero_extendqisi2
	stm	ip, {r0, r1}
.LVL57:
	.loc 2 4991 8 discriminator 1 view .LVU180
.LBE263:
.LBI262:
	.loc 2 4990 14 is_stmt 1 view .LVU181
.LBB270:
	.loc 2 4991 5 view .LVU182
.LBB269:
.LBI264:
	.loc 2 4690 22 view .LVU183
	.loc 2 4691 5 view .LVU184
.LBB268:
.LBI265:
	.loc 2 4592 22 view .LVU185
.LBB267:
	.loc 2 4593 5 view .LVU186
	.loc 2 4593 5 is_stmt 0 view .LVU187
.LBE267:
.LBE268:
.LBE269:
	.loc 2 4991 8 discriminator 1 view .LVU188
	cmp	r3, #0
	bne	.L38
	.loc 2 4994 5 is_stmt 1 view .LVU189
	ldrb	r3, [r0]	@ zero_extendqisi2
	sub	r3, r3, #3
	cmp	r3, #3
	ldrls	pc, [pc, r3, asl #2]
	b	.L39
.L41:
	.word	.L44
	.word	.L43
	.word	.L42
	.word	.L40
.L40:
	.loc 2 4995 9 view .LVU190
	.loc 2 4995 16 is_stmt 0 view .LVU191
	ldrd	r0, [r0, #8]
.LVL58:
	.loc 2 4995 16 view .LVU192
	bl	__aeabi_ul2f
.LVL59:
	.loc 2 4995 16 view .LVU193
.LBE270:
.LBE262:
	.loc 1 56 80 discriminator 2 view .LVU194
	vldr.32	s15, .L128
.LBB279:
.LBB271:
	.loc 2 4995 16 view .LVU195
	vmov	s14, r0
.LBE271:
.LBE279:
	.loc 1 56 80 discriminator 2 view .LVU196
	vadd.f32	s14, s14, s15
.L45:
.LVL60:
	.loc 1 57 29 view .LVU197
	ldm	r4, {r1, r2}
	.loc 1 56 27 discriminator 2 view .LVU198
	ldr	r3, [r5]
	.loc 1 57 29 view .LVU199
	add	r7, sp, #72
	mov	r0, r7
	.loc 1 56 27 discriminator 2 view .LVU200
	vstr.32	s14, [r3, #4]
	.loc 1 57 3 is_stmt 1 view .LVU201
	.loc 1 57 29 is_stmt 0 view .LVU202
	ldr	r3, .L128+40
	bl	mpack_node_map_cstr
.LVL61:
	ldm	r7, {r0, r1}
.LBB280:
.LBB281:
.LBB282:
.LBB283:
.LBB284:
	.loc 2 4593 16 view .LVU203
	ldr	r3, [sp, #76]
	add	ip, sp, #144
.LBE284:
.LBE283:
.LBE282:
	.loc 2 4991 8 discriminator 1 view .LVU204
	ldrb	r3, [r3, #32]	@ zero_extendqisi2
	stm	ip, {r0, r1}
.LVL62:
	.loc 2 4991 8 discriminator 1 view .LVU205
.LBE281:
.LBI280:
	.loc 2 4990 14 is_stmt 1 view .LVU206
.LBB288:
	.loc 2 4991 5 view .LVU207
.LBB287:
.LBI282:
	.loc 2 4690 22 view .LVU208
	.loc 2 4691 5 view .LVU209
.LBB286:
.LBI283:
	.loc 2 4592 22 view .LVU210
.LBB285:
	.loc 2 4593 5 view .LVU211
	.loc 2 4593 5 is_stmt 0 view .LVU212
.LBE285:
.LBE286:
.LBE287:
	.loc 2 4991 8 discriminator 1 view .LVU213
	cmp	r3, #0
.LBE288:
.LBE280:
	.loc 1 57 6 discriminator 1 view .LVU214
	ldr	r7, [r5]
.LBB292:
.LBB289:
	.loc 2 4991 8 discriminator 1 view .LVU215
	bne	.L46
	.loc 2 4994 5 is_stmt 1 view .LVU216
	ldrb	r3, [r0]	@ zero_extendqisi2
	sub	r3, r3, #3
	cmp	r3, #3
	ldrls	pc, [pc, r3, asl #2]
	b	.L47
.L49:
	.word	.L52
	.word	.L51
	.word	.L50
	.word	.L48
.L48:
	.loc 2 4995 9 view .LVU217
	.loc 2 4995 16 is_stmt 0 view .LVU218
	ldrd	r0, [r0, #8]
.LVL63:
	.loc 2 4995 16 view .LVU219
	bl	__aeabi_ul2f
.LVL64:
	.loc 2 4995 16 view .LVU220
	vmov	s14, r0
.L53:
.LVL65:
	.loc 2 4995 16 view .LVU221
.LBE289:
.LBE292:
	.loc 1 68 25 view .LVU222
	ldm	r4, {r1, r2}
	ldr	r3, .L128+44
	.loc 1 57 27 discriminator 2 view .LVU223
	vstr.32	s14, [r7, #8]
	.loc 1 68 3 is_stmt 1 view .LVU224
	.loc 1 68 25 is_stmt 0 view .LVU225
	add	r0, sp, #24
	bl	mpack_node_map_cstr_optional
.LVL66:
	.loc 1 69 3 is_stmt 1 view .LVU226
.LBB293:
.LBB294:
.LBB295:
.LBB296:
.LBB297:
	.loc 2 4593 16 is_stmt 0 view .LVU227
	ldrd	r2, [sp, #24]
.LBE297:
.LBE296:
.LBE295:
	.loc 2 4731 8 discriminator 1 view .LVU228
	ldrb	r3, [r3, #32]	@ zero_extendqisi2
	cmp	r3, #0
	bne	.L54
	.loc 2 4733 5 is_stmt 1 view .LVU229
.LBE294:
.LBE293:
	.loc 1 69 6 is_stmt 0 discriminator 1 view .LVU230
	ldrb	r3, [r2]	@ zero_extendqisi2
	cmp	r3, #1
	beq	.L54
	.loc 1 71 4 is_stmt 1 view .LVU231
	.loc 1 71 22 is_stmt 0 view .LVU232
	ldm	r4, {r1, r2}
	add	r0, sp, #80
	ldr	r3, .L128+44
	bl	mpack_node_map_cstr
.LVL67:
	ldr	r1, [sp, #84]
	.loc 1 71 7 discriminator 1 view .LVU233
	ldr	r7, [r5]
.LVL68:
.LBB298:
.LBI298:
	.loc 2 4966 12 is_stmt 1 view .LVU234
.LBB299:
	.loc 2 4969 5 view .LVU235
	.loc 2 4970 9 view .LVU236
.LBB300:
.LBI300:
	.loc 2 4883 16 view .LVU237
.LBB301:
	.loc 2 4884 5 view .LVU238
.LBB302:
.LBI302:
	.loc 2 4690 22 view .LVU239
	.loc 2 4691 5 view .LVU240
.LBB303:
.LBI303:
	.loc 2 4592 22 view .LVU241
.LBB304:
	.loc 2 4593 5 view .LVU242
	.loc 2 4593 5 is_stmt 0 view .LVU243
.LBE304:
.LBE303:
.LBE302:
	.loc 2 4884 8 discriminator 1 view .LVU244
	ldrb	r0, [r1, #32]	@ zero_extendqisi2
	cmp	r0, #0
	bne	.L55
	ldr	r2, [sp, #80]
	.loc 2 4887 5 is_stmt 1 view .LVU245
	.loc 2 4887 18 is_stmt 0 view .LVU246
	ldrb	r3, [r2]	@ zero_extendqisi2
	.loc 2 4887 8 view .LVU247
	cmp	r3, #6
	beq	.L123
	.loc 2 4890 12 is_stmt 1 view .LVU248
	.loc 2 4890 15 is_stmt 0 view .LVU249
	cmp	r3, #5
	beq	.L124
.L57:
	.loc 2 4895 5 is_stmt 1 view .LVU250
	str	r2, [sp, #176]
	str	r1, [sp, #180]
	add	r3, sp, #176
	mov	r2, #4
	ldm	r3, {r0, r1}
.LVL69:
	.loc 2 4895 5 is_stmt 0 view .LVU251
	bl	mpack_node_flag_error
.LVL70:
	.loc 2 4896 5 is_stmt 1 view .LVU252
.L55:
	.loc 2 4885 16 is_stmt 0 view .LVU253
	mov	r3, #0
.L58:
.LVL71:
	.loc 2 4885 16 view .LVU254
.LBE301:
.LBE300:
.LBE299:
.LBE298:
	.loc 1 71 20 discriminator 2 view .LVU255
	str	r3, [r7, #84]
.L59:
	.loc 1 77 3 is_stmt 1 view .LVU256
	.loc 1 77 29 is_stmt 0 view .LVU257
	ldr	r3, .L128+48
	ldm	r4, {r1, r2}
	add	r0, sp, #32
	bl	mpack_node_map_cstr_optional
.LVL72:
	.loc 1 78 3 is_stmt 1 view .LVU258
.LBB311:
.LBB312:
.LBB313:
.LBB314:
.LBB315:
	.loc 2 4593 16 is_stmt 0 view .LVU259
	ldrd	r2, [sp, #32]
.LBE315:
.LBE314:
.LBE313:
	.loc 2 4731 8 discriminator 1 view .LVU260
	ldrb	r3, [r3, #32]	@ zero_extendqisi2
	cmp	r3, #0
	bne	.L60
	.loc 2 4733 5 is_stmt 1 view .LVU261
.LBE312:
.LBE311:
	.loc 1 78 6 is_stmt 0 discriminator 1 view .LVU262
	ldrb	r3, [r2]	@ zero_extendqisi2
	cmp	r3, #1
	beq	.L60
	.loc 1 80 4 is_stmt 1 view .LVU263
	.loc 1 80 26 is_stmt 0 view .LVU264
	ldm	r4, {r1, r2}
	add	r0, sp, #88
	ldr	r3, .L128+48
	bl	mpack_node_map_cstr
.LVL73:
	ldr	r1, [sp, #92]
	.loc 1 80 7 discriminator 1 view .LVU265
	ldr	r7, [r5]
.LVL74:
.LBB316:
.LBI316:
	.loc 2 4966 12 is_stmt 1 view .LVU266
.LBB317:
	.loc 2 4969 5 view .LVU267
	.loc 2 4970 9 view .LVU268
.LBB318:
.LBI318:
	.loc 2 4883 16 view .LVU269
.LBB319:
	.loc 2 4884 5 view .LVU270
.LBB320:
.LBI320:
	.loc 2 4690 22 view .LVU271
	.loc 2 4691 5 view .LVU272
.LBB321:
.LBI321:
	.loc 2 4592 22 view .LVU273
.LBB322:
	.loc 2 4593 5 view .LVU274
	.loc 2 4593 5 is_stmt 0 view .LVU275
.LBE322:
.LBE321:
.LBE320:
	.loc 2 4884 8 discriminator 1 view .LVU276
	ldrb	r0, [r1, #32]	@ zero_extendqisi2
	cmp	r0, #0
	bne	.L61
	ldr	r2, [sp, #88]
	.loc 2 4887 5 is_stmt 1 view .LVU277
	.loc 2 4887 18 is_stmt 0 view .LVU278
	ldrb	r3, [r2]	@ zero_extendqisi2
	.loc 2 4887 8 view .LVU279
	cmp	r3, #6
	beq	.L125
	.loc 2 4890 12 is_stmt 1 view .LVU280
	.loc 2 4890 15 is_stmt 0 view .LVU281
	cmp	r3, #5
	beq	.L126
.L63:
	.loc 2 4895 5 is_stmt 1 view .LVU282
	str	r2, [sp, #184]
	str	r1, [sp, #188]
	add	r3, sp, #184
	mov	r2, #4
	ldm	r3, {r0, r1}
.LVL75:
	.loc 2 4895 5 is_stmt 0 view .LVU283
	bl	mpack_node_flag_error
.LVL76:
	.loc 2 4896 5 is_stmt 1 view .LVU284
.L61:
	.loc 2 4885 16 is_stmt 0 view .LVU285
	mov	r3, #0
.L64:
.LVL77:
	.loc 2 4885 16 view .LVU286
.LBE319:
.LBE318:
.LBE317:
.LBE316:
	.loc 1 80 24 discriminator 2 view .LVU287
	str	r3, [r7, #96]
.L65:
	.loc 1 86 3 is_stmt 1 view .LVU288
	.loc 1 86 24 is_stmt 0 view .LVU289
	add	r7, sp, #96
	mov	r0, r7
	ldm	r4, {r1, r2}
	ldr	r3, .L128+52
	bl	mpack_node_map_cstr
.LVL78:
	ldm	r7, {r0, r1}
.LBB329:
.LBB330:
.LBB331:
.LBB332:
.LBB333:
	.loc 2 4593 16 view .LVU290
	ldr	r3, [sp, #100]
	add	ip, sp, #200
.LBE333:
.LBE332:
.LBE331:
	.loc 2 4991 8 discriminator 1 view .LVU291
	ldrb	r3, [r3, #32]	@ zero_extendqisi2
	stm	ip, {r0, r1}
.LVL79:
	.loc 2 4991 8 discriminator 1 view .LVU292
.LBE330:
.LBI329:
	.loc 2 4990 14 is_stmt 1 view .LVU293
.LBB337:
	.loc 2 4991 5 view .LVU294
.LBB336:
.LBI331:
	.loc 2 4690 22 view .LVU295
	.loc 2 4691 5 view .LVU296
.LBB335:
.LBI332:
	.loc 2 4592 22 view .LVU297
.LBB334:
	.loc 2 4593 5 view .LVU298
	.loc 2 4593 5 is_stmt 0 view .LVU299
.LBE334:
.LBE335:
.LBE336:
	.loc 2 4991 8 discriminator 1 view .LVU300
	cmp	r3, #0
.LBE337:
.LBE329:
	.loc 1 86 6 discriminator 1 view .LVU301
	ldr	r7, [r5]
.LBB342:
.LBB338:
	.loc 2 4991 8 discriminator 1 view .LVU302
	bne	.L66
	.loc 2 4994 5 is_stmt 1 view .LVU303
	ldrb	r3, [r0]	@ zero_extendqisi2
	sub	r3, r3, #3
	cmp	r3, #3
	ldrls	pc, [pc, r3, asl #2]
	b	.L67
.L69:
	.word	.L72
	.word	.L71
	.word	.L70
	.word	.L68
.LVL80:
.L50:
	.loc 2 4994 5 is_stmt 0 view .LVU304
.LBE338:
.LBE342:
.LBB343:
.LBB290:
	.loc 2 4997 9 is_stmt 1 view .LVU305
	.loc 2 4997 16 is_stmt 0 view .LVU306
	ldrd	r0, [r0, #8]
.LVL81:
	.loc 2 4997 16 view .LVU307
	bl	__aeabi_l2f
.LVL82:
	.loc 2 4997 16 view .LVU308
	vmov	s14, r0
	b	.L53
.LVL83:
.L51:
	.loc 2 5001 9 is_stmt 1 view .LVU309
	.loc 2 5001 16 is_stmt 0 view .LVU310
	vldr.64	d7, [r0, #8]
	vcvt.f32.f64	s14, d7
	b	.L53
.L52:
	.loc 2 4999 9 is_stmt 1 view .LVU311
	.loc 2 4999 32 is_stmt 0 view .LVU312
	vldr.32	s14, [r0, #8]
	b	.L53
.LVL84:
.L42:
	.loc 2 4999 32 view .LVU313
.LBE290:
.LBE343:
.LBB344:
.LBB272:
	.loc 2 4997 9 is_stmt 1 view .LVU314
	.loc 2 4997 16 is_stmt 0 view .LVU315
	ldrd	r0, [r0, #8]
.LVL85:
	.loc 2 4997 16 view .LVU316
	bl	__aeabi_l2f
.LVL86:
	.loc 2 4997 16 view .LVU317
.LBE272:
.LBE344:
	.loc 1 56 80 discriminator 2 view .LVU318
	vldr.32	s15, .L128
.LBB345:
.LBB273:
	.loc 2 4997 16 view .LVU319
	vmov	s14, r0
.LBE273:
.LBE345:
	.loc 1 56 80 discriminator 2 view .LVU320
	vadd.f32	s14, s14, s15
.LBB346:
.LBB274:
	.loc 2 4997 16 view .LVU321
	b	.L45
.LVL87:
.L43:
	.loc 2 5001 9 is_stmt 1 view .LVU322
	.loc 2 5001 16 is_stmt 0 view .LVU323
	vldr.64	d7, [r0, #8]
.LBE274:
.LBE346:
	.loc 1 56 80 discriminator 2 view .LVU324
	vldr.32	s13, .L128
.LBB347:
.LBB275:
	.loc 2 5001 16 view .LVU325
	vcvt.f32.f64	s14, d7
.LBE275:
.LBE347:
	.loc 1 56 80 discriminator 2 view .LVU326
	vadd.f32	s14, s14, s13
.LBB348:
.LBB276:
	.loc 2 5001 16 view .LVU327
	b	.L45
.L44:
	.loc 2 4999 9 is_stmt 1 view .LVU328
.LBE276:
.LBE348:
	.loc 1 56 80 is_stmt 0 discriminator 2 view .LVU329
	vldr.32	s14, [r0, #8]
	vldr.32	s15, .L128
	vadd.f32	s14, s14, s15
.LBB349:
.LBB277:
	.loc 2 4999 32 view .LVU330
	b	.L45
.LVL88:
.L34:
	.loc 2 4999 32 view .LVU331
.LBE277:
.LBE349:
.LBB350:
.LBB245:
	.loc 2 4997 9 is_stmt 1 view .LVU332
	.loc 2 4997 16 is_stmt 0 view .LVU333
	ldrd	r0, [r0, #8]
.LVL89:
	.loc 2 4997 16 view .LVU334
	bl	__aeabi_l2f
.LVL90:
	.loc 2 4997 16 view .LVU335
	vmov	s14, r0
	b	.L37
.LVL91:
.L35:
	.loc 2 5001 9 is_stmt 1 view .LVU336
	.loc 2 5001 16 is_stmt 0 view .LVU337
	vldr.64	d7, [r0, #8]
	vcvt.f32.f64	s14, d7
	b	.L37
.L36:
	.loc 2 4999 9 is_stmt 1 view .LVU338
	.loc 2 4999 32 is_stmt 0 view .LVU339
	vldr.32	s14, [r0, #8]
	b	.L37
.LVL92:
.L68:
	.loc 2 4999 32 view .LVU340
.LBE245:
.LBE350:
.LBB351:
.LBB339:
	.loc 2 4995 9 is_stmt 1 view .LVU341
	.loc 2 4995 16 is_stmt 0 view .LVU342
	ldrd	r0, [r0, #8]
.LVL93:
	.loc 2 4995 16 view .LVU343
	bl	__aeabi_ul2f
.LVL94:
	.loc 2 4995 16 view .LVU344
	vmov	s14, r0
.L73:
.LVL95:
	.loc 2 4995 16 view .LVU345
.LBE339:
.LBE351:
	.loc 1 87 22 view .LVU346
	ldm	r4, {r1, r2}
	.loc 1 86 22 discriminator 2 view .LVU347
	vstr.32	s14, [r7, #12]
	.loc 1 87 3 is_stmt 1 view .LVU348
	.loc 1 87 22 is_stmt 0 view .LVU349
	add	r7, sp, #104
	mov	r0, r7
	ldr	r3, .L128+56
	bl	mpack_node_map_cstr
.LVL96:
	ldm	r7, {r0, r1}
.LBB352:
.LBB353:
.LBB354:
.LBB355:
.LBB356:
	.loc 2 4593 16 view .LVU350
	ldr	r3, [sp, #108]
	add	ip, sp, #192
.LBE356:
.LBE355:
.LBE354:
	.loc 2 4991 8 discriminator 1 view .LVU351
	ldrb	r3, [r3, #32]	@ zero_extendqisi2
	stm	ip, {r0, r1}
.LVL97:
	.loc 2 4991 8 discriminator 1 view .LVU352
.LBE353:
.LBI352:
	.loc 2 4990 14 is_stmt 1 view .LVU353
.LBB360:
	.loc 2 4991 5 view .LVU354
.LBB359:
.LBI354:
	.loc 2 4690 22 view .LVU355
	.loc 2 4691 5 view .LVU356
.LBB358:
.LBI355:
	.loc 2 4592 22 view .LVU357
.LBB357:
	.loc 2 4593 5 view .LVU358
	.loc 2 4593 5 is_stmt 0 view .LVU359
.LBE357:
.LBE358:
.LBE359:
	.loc 2 4991 8 discriminator 1 view .LVU360
	cmp	r3, #0
.LBE360:
.LBE352:
	.loc 1 87 6 discriminator 1 view .LVU361
	ldr	r7, [r5]
.LBB364:
.LBB361:
	.loc 2 4991 8 discriminator 1 view .LVU362
	bne	.L74
	.loc 2 4994 5 is_stmt 1 view .LVU363
	ldrb	r3, [r0]	@ zero_extendqisi2
	sub	r3, r3, #3
	cmp	r3, #3
	ldrls	pc, [pc, r3, asl #2]
	b	.L75
.L77:
	.word	.L80
	.word	.L79
	.word	.L78
	.word	.L76
.L76:
	.loc 2 4995 9 view .LVU364
	.loc 2 4995 16 is_stmt 0 view .LVU365
	ldrd	r0, [r0, #8]
.LVL98:
	.loc 2 4995 16 view .LVU366
	bl	__aeabi_ul2f
.LVL99:
	.loc 2 4995 16 view .LVU367
	vmov	s14, r0
.L81:
.LVL100:
	.loc 2 4995 16 view .LVU368
.LBE361:
.LBE364:
	.loc 1 89 27 view .LVU369
	ldm	r4, {r1, r2}
	ldr	r3, .L128+60
	.loc 1 87 20 discriminator 2 view .LVU370
	vstr.32	s14, [r7, #16]
	.loc 1 89 3 is_stmt 1 view .LVU371
	.loc 1 89 27 is_stmt 0 view .LVU372
	add	r0, sp, #112
	bl	mpack_node_map_cstr_optional
.LVL101:
.LBB365:
.LBB366:
.LBB367:
.LBB368:
.LBB369:
	.loc 2 4593 16 view .LVU373
	ldrd	r2, [sp, #112]
.LBE369:
.LBE368:
.LBE367:
	.loc 2 4731 8 discriminator 1 view .LVU374
	ldrb	r3, [r3, #32]	@ zero_extendqisi2
	cmp	r3, #0
	bne	.L86
	.loc 2 4733 5 is_stmt 1 view .LVU375
.LBE366:
.LBE365:
	.loc 1 89 185 is_stmt 0 discriminator 2 view .LVU376
	ldrb	r3, [r2]	@ zero_extendqisi2
	cmp	r3, #1
	beq	.L86
	.loc 1 89 116 discriminator 1 view .LVU377
	ldm	r4, {r1, r2}
	add	r7, sp, #120
	mov	r0, r7
	ldr	r3, .L128+60
	bl	mpack_node_map_cstr_optional
.LVL102:
	ldm	r7, {r0, r1}
.LBB370:
.LBB371:
.LBB372:
.LBB373:
.LBB374:
	.loc 2 4593 16 view .LVU378
	ldr	r3, [sp, #124]
	mov	r2, r0
.LVL103:
	.loc 2 4593 16 view .LVU379
.LBE374:
.LBE373:
.LBE372:
.LBE371:
.LBI370:
	.loc 2 4750 18 is_stmt 1 view .LVU380
.LBB378:
	.loc 2 4751 5 view .LVU381
.LBB377:
.LBI372:
	.loc 2 4690 22 view .LVU382
	.loc 2 4691 5 view .LVU383
.LBB376:
.LBI373:
	.loc 2 4592 22 view .LVU384
.LBB375:
	.loc 2 4593 5 view .LVU385
	.loc 2 4593 5 is_stmt 0 view .LVU386
.LBE375:
.LBE376:
.LBE377:
	.loc 2 4751 8 discriminator 1 view .LVU387
	ldrb	r3, [r3, #32]	@ zero_extendqisi2
	cmp	r3, #0
	add	r3, sp, #208
	stm	r3, {r0, r1}
	bne	.L86
	.loc 2 4754 5 is_stmt 1 view .LVU388
	.loc 2 4754 8 is_stmt 0 view .LVU389
	ldrb	r1, [r0]	@ zero_extendqisi2
.LVL104:
	.loc 2 4754 8 view .LVU390
	cmp	r1, #2
	.loc 2 4755 32 view .LVU391
	ldrbeq	r2, [r0, #8]	@ zero_extendqisi2
	.loc 2 4754 8 view .LVU392
	beq	.L83
	.loc 2 4757 5 is_stmt 1 view .LVU393
	ldm	r3, {r0, r1}
	.loc 2 4757 5 is_stmt 0 view .LVU394
	mov	r2, #4
	bl	mpack_node_flag_error
.LVL105:
	.loc 2 4758 5 is_stmt 1 view .LVU395
.L86:
	.loc 2 4758 5 is_stmt 0 view .LVU396
.LBE378:
.LBE370:
	.loc 1 89 185 discriminator 4 view .LVU397
	mov	r2, #0
.L83:
	.loc 1 89 23 discriminator 6 view .LVU398
	ldr	r3, [r5]
	.loc 1 90 30 view .LVU399
	add	r0, sp, #128
	.loc 1 89 23 discriminator 6 view .LVU400
	strb	r2, [r3, #35]
	.loc 1 90 3 is_stmt 1 view .LVU401
	.loc 1 90 30 is_stmt 0 view .LVU402
	ldr	r3, .L128+68
	ldm	r4, {r1, r2}
	bl	mpack_node_map_cstr_optional
.LVL106:
.LBB379:
.LBB380:
.LBB381:
.LBB382:
.LBB383:
	.loc 2 4593 16 view .LVU403
	ldrd	r2, [sp, #128]
.LBE383:
.LBE382:
.LBE381:
	.loc 2 4731 8 discriminator 1 view .LVU404
	ldrb	r3, [r3, #32]	@ zero_extendqisi2
	cmp	r3, #0
	bne	.L88
	.loc 2 4733 5 is_stmt 1 view .LVU405
.LBE380:
.LBE379:
	.loc 1 90 194 is_stmt 0 discriminator 2 view .LVU406
	ldrb	r3, [r2]	@ zero_extendqisi2
	cmp	r3, #1
	bne	.L127
.L88:
	.loc 1 90 194 discriminator 4 view .LVU407
	mov	r2, #0
.L91:
	.loc 1 90 26 discriminator 6 view .LVU408
	ldr	r3, [r5]
	.loc 1 93 23 view .LVU409
	add	r0, sp, #224
	.loc 1 90 26 discriminator 6 view .LVU410
	strb	r2, [r3, #36]
	.loc 1 93 3 is_stmt 1 view .LVU411
	.loc 1 93 23 is_stmt 0 view .LVU412
	bl	mpack_tree_destroy
.LVL107:
	.loc 1 94 3 is_stmt 1 view .LVU413
	.loc 1 94 6 is_stmt 0 view .LVU414
	subs	r1, r0, #0
	beq	.L19
	.loc 1 95 4 is_stmt 1 view .LVU415
	mov	r2, r6
	ldr	r0, .L128+64
.LVL108:
	.loc 1 95 4 is_stmt 0 view .LVU416
	bl	Crash
.LVL109:
	.loc 1 95 4 view .LVU417
.LBE210:
	.loc 1 98 1 view .LVU418
	add	sp, sp, #536
	.cfi_remember_state
	.cfi_def_cfa_offset 24
	@ sp needed
	pop	{r4, r5, r6, r7, r8, pc}
.LVL110:
.L78:
	.cfi_restore_state
.LBB408:
.LBB384:
.LBB362:
	.loc 2 4997 9 is_stmt 1 view .LVU419
	.loc 2 4997 16 is_stmt 0 view .LVU420
	ldrd	r0, [r0, #8]
.LVL111:
	.loc 2 4997 16 view .LVU421
	bl	__aeabi_l2f
.LVL112:
	.loc 2 4997 16 view .LVU422
	vmov	s14, r0
	b	.L81
.LVL113:
.L79:
	.loc 2 5001 9 is_stmt 1 view .LVU423
	.loc 2 5001 16 is_stmt 0 view .LVU424
	vldr.64	d7, [r0, #8]
	vcvt.f32.f64	s14, d7
	b	.L81
.L80:
	.loc 2 4999 9 is_stmt 1 view .LVU425
	.loc 2 4999 32 is_stmt 0 view .LVU426
	vldr.32	s14, [r0, #8]
	b	.L81
.LVL114:
.L70:
	.loc 2 4999 32 view .LVU427
.LBE362:
.LBE384:
.LBB385:
.LBB340:
	.loc 2 4997 9 is_stmt 1 view .LVU428
	.loc 2 4997 16 is_stmt 0 view .LVU429
	ldrd	r0, [r0, #8]
.LVL115:
	.loc 2 4997 16 view .LVU430
	bl	__aeabi_l2f
.LVL116:
	.loc 2 4997 16 view .LVU431
	vmov	s14, r0
	b	.L73
.L129:
	.align	2
.L128:
	.word	1036831949
	.word	.LC2
	.word	509
	.word	.LC3
	.word	.LC4
	.word	.LC5
	.word	.LC6
	.word	.LC7
	.word	.LC8
	.word	.LC9
	.word	.LC10
	.word	.LC11
	.word	.LC12
	.word	.LC13
	.word	.LC14
	.word	.LC15
	.word	.LC17
	.word	.LC16
	.word	1036831949
	.word	0
.LVL117:
.L71:
	.loc 2 5001 9 is_stmt 1 view .LVU432
	.loc 2 5001 16 is_stmt 0 view .LVU433
	vldr.64	d7, [r0, #8]
	vcvt.f32.f64	s14, d7
	b	.L73
.L72:
	.loc 2 4999 9 is_stmt 1 view .LVU434
	.loc 2 4999 32 is_stmt 0 view .LVU435
	vldr.32	s14, [r0, #8]
	b	.L73
.LVL118:
.L118:
	.loc 2 4999 32 view .LVU436
.LBE340:
.LBE385:
.LBB386:
.LBB259:
.LBB257:
.LBB255:
	.loc 2 4871 9 is_stmt 1 view .LVU437
	.loc 2 4871 12 is_stmt 0 view .LVU438
	mvn	r0, #0
	.loc 2 4871 29 view .LVU439
	ldr	r1, [r2, #8]
	ldr	r2, [r2, #12]
.LVL119:
	.loc 2 4871 12 view .LVU440
	cmp	r0, r1
	sbcs	r2, r7, r2
.LBE255:
.LBE257:
.LBE259:
.LBE386:
	.loc 1 49 35 discriminator 1 view .LVU441
	uxtbcs	r7, r1
.LBB387:
.LBB260:
.LBB258:
.LBB256:
	.loc 2 4871 12 view .LVU442
	bcc	.L23
	b	.L24
.LVL120:
.L54:
	.loc 2 4871 12 view .LVU443
.LBE256:
.LBE258:
.LBE260:
.LBE387:
	.loc 1 75 4 is_stmt 1 view .LVU444
	.loc 1 75 20 is_stmt 0 view .LVU445
	mov	r2, #20
	ldr	r3, [r5]
	str	r2, [r3, #84]
	b	.L59
.L60:
	.loc 1 84 4 is_stmt 1 view .LVU446
	.loc 1 84 24 is_stmt 0 view .LVU447
	mov	r2, #20
	ldr	r3, [r5]
	str	r2, [r3, #96]
	b	.L65
.L127:
	.loc 1 90 122 discriminator 1 view .LVU448
	add	r7, sp, #136
	ldm	r4, {r1, r2}
	mov	r0, r7
	ldr	r3, .L128+68
	bl	mpack_node_map_cstr_optional
.LVL121:
	ldm	r7, {r0, r1}
.LBB388:
.LBB389:
.LBB390:
.LBB391:
.LBB392:
	.loc 2 4593 16 view .LVU449
	ldr	r2, [sp, #140]
	add	r3, sp, #216
.LBE392:
.LBE391:
.LBE390:
	.loc 2 4751 8 discriminator 1 view .LVU450
	ldrb	r2, [r2, #32]	@ zero_extendqisi2
	stm	r3, {r0, r1}
	cmp	r2, #0
	mov	r2, r0
.LVL122:
	.loc 2 4751 8 discriminator 1 view .LVU451
.LBE389:
.LBI388:
	.loc 2 4750 18 is_stmt 1 view .LVU452
.LBB396:
	.loc 2 4751 5 view .LVU453
.LBB395:
.LBI390:
	.loc 2 4690 22 view .LVU454
	.loc 2 4691 5 view .LVU455
.LBB394:
.LBI391:
	.loc 2 4592 22 view .LVU456
.LBB393:
	.loc 2 4593 5 view .LVU457
	.loc 2 4593 5 is_stmt 0 view .LVU458
.LBE393:
.LBE394:
.LBE395:
	.loc 2 4751 8 discriminator 1 view .LVU459
	bne	.L88
	.loc 2 4754 5 is_stmt 1 view .LVU460
	.loc 2 4754 8 is_stmt 0 view .LVU461
	ldrb	r1, [r0]	@ zero_extendqisi2
.LVL123:
	.loc 2 4754 8 view .LVU462
	cmp	r1, #2
	.loc 2 4755 32 view .LVU463
	ldrbeq	r2, [r0, #8]	@ zero_extendqisi2
	.loc 2 4754 8 view .LVU464
	beq	.L91
	.loc 2 4757 5 is_stmt 1 view .LVU465
	ldm	r3, {r0, r1}
	.loc 2 4757 5 is_stmt 0 view .LVU466
	mov	r2, #4
	bl	mpack_node_flag_error
.LVL124:
	.loc 2 4758 5 is_stmt 1 view .LVU467
	.loc 2 4758 5 is_stmt 0 view .LVU468
	b	.L88
.LVL125:
.L39:
	.loc 2 4758 5 view .LVU469
.LBE396:
.LBE388:
.LBB397:
.LBB278:
	.loc 2 5003 5 is_stmt 1 view .LVU470
	mov	r2, #4
	ldm	ip, {r0, r1}
.LVL126:
	.loc 2 5003 5 is_stmt 0 view .LVU471
	bl	mpack_node_flag_error
.LVL127:
	.loc 2 5004 5 is_stmt 1 view .LVU472
.L38:
.LBE278:
.LBE397:
.LBB398:
.LBB246:
	.loc 2 4992 16 is_stmt 0 view .LVU473
	vldr.32	s14, .L128+72
	b	.L45
.LVL128:
.L47:
	.loc 2 4992 16 view .LVU474
.LBE246:
.LBE398:
.LBB399:
.LBB291:
	.loc 2 5003 5 is_stmt 1 view .LVU475
	mov	r2, #4
	ldm	ip, {r0, r1}
.LVL129:
	.loc 2 5003 5 is_stmt 0 view .LVU476
	bl	mpack_node_flag_error
.LVL130:
	.loc 2 5004 5 is_stmt 1 view .LVU477
.L46:
	.loc 2 4992 16 is_stmt 0 view .LVU478
	vldr.32	s14, .L128+76
	b	.L53
.LVL131:
.L75:
	.loc 2 4992 16 view .LVU479
.LBE291:
.LBE399:
.LBB400:
.LBB363:
	.loc 2 5003 5 is_stmt 1 view .LVU480
	mov	r2, #4
	ldm	ip, {r0, r1}
.LVL132:
	.loc 2 5003 5 is_stmt 0 view .LVU481
	bl	mpack_node_flag_error
.LVL133:
	.loc 2 5004 5 is_stmt 1 view .LVU482
.L74:
	.loc 2 4992 16 is_stmt 0 view .LVU483
	vldr.32	s14, .L128+76
	b	.L81
.LVL134:
.L67:
	.loc 2 4992 16 view .LVU484
.LBE363:
.LBE400:
.LBB401:
.LBB341:
	.loc 2 5003 5 is_stmt 1 view .LVU485
	mov	r2, #4
	ldm	ip, {r0, r1}
.LVL135:
	.loc 2 5003 5 is_stmt 0 view .LVU486
	bl	mpack_node_flag_error
.LVL136:
	.loc 2 5004 5 is_stmt 1 view .LVU487
.L66:
	.loc 2 4992 16 is_stmt 0 view .LVU488
	vldr.32	s14, .L128+76
	b	.L73
.LVL137:
.L31:
	.loc 2 4992 16 view .LVU489
.LBE341:
.LBE401:
.LBB402:
.LBB247:
	.loc 2 5003 5 is_stmt 1 view .LVU490
	mov	r2, #4
	ldm	ip, {r0, r1}
.LVL138:
	.loc 2 5003 5 is_stmt 0 view .LVU491
	bl	mpack_node_flag_error
.LVL139:
	.loc 2 5004 5 is_stmt 1 view .LVU492
.L30:
	.loc 2 4992 16 is_stmt 0 view .LVU493
	vldr.32	s14, .L128+76
	b	.L37
.LVL140:
.L122:
	.loc 2 4992 16 view .LVU494
.LBE247:
.LBE402:
.LBB403:
.LBB233:
	.loc 2 5442 9 is_stmt 1 view .LVU495
	ldm	r3, {r0, r1}
.LVL141:
	.loc 2 5442 9 is_stmt 0 view .LVU496
	mov	r2, #8
.LVL142:
	.loc 2 5442 9 view .LVU497
	bl	mpack_node_flag_error
.LVL143:
	.loc 2 5443 9 is_stmt 1 view .LVU498
.LBB229:
.LBI229:
	.loc 2 4525 21 view .LVU499
.LBB230:
	.loc 2 4526 5 view .LVU500
	.loc 2 4526 12 is_stmt 0 view .LVU501
	add	r3, r4, #16
.LVL144:
	.loc 2 4526 12 view .LVU502
.LBE230:
.LBE229:
	.loc 2 5443 16 view .LVU503
	b	.L27
.LVL145:
.L126:
	.loc 2 5443 16 view .LVU504
.LBE233:
.LBE403:
.LBB404:
.LBB327:
.LBB325:
.LBB323:
	.loc 2 4891 9 is_stmt 1 view .LVU505
	.loc 2 4891 12 is_stmt 0 view .LVU506
	mvn	r8, #0
	.loc 2 4891 29 view .LVU507
	ldr	r3, [r2, #8]
	ldr	ip, [r2, #12]
	.loc 2 4891 44 view .LVU508
	adds	lr, r3, #-2147483648
	adc	ip, ip, #0
	.loc 2 4891 12 view .LVU509
	cmp	r8, lr
	sbcs	r0, r0, ip
	bcc	.L63
	b	.L64
.LVL146:
.L124:
	.loc 2 4891 12 view .LVU510
.LBE323:
.LBE325:
.LBE327:
.LBE404:
.LBB405:
.LBB309:
.LBB307:
.LBB305:
	.loc 2 4891 9 is_stmt 1 view .LVU511
	.loc 2 4891 12 is_stmt 0 view .LVU512
	mvn	r8, #0
	.loc 2 4891 29 view .LVU513
	ldr	r3, [r2, #8]
	ldr	ip, [r2, #12]
	.loc 2 4891 44 view .LVU514
	adds	lr, r3, #-2147483648
	adc	ip, ip, #0
	.loc 2 4891 12 view .LVU515
	cmp	r8, lr
	sbcs	r0, r0, ip
	bcc	.L57
	b	.L58
.LVL147:
.L125:
	.loc 2 4891 12 view .LVU516
.LBE305:
.LBE307:
.LBE309:
.LBE405:
.LBB406:
.LBB328:
.LBB326:
.LBB324:
	.loc 2 4888 9 is_stmt 1 view .LVU517
	.loc 2 4888 29 is_stmt 0 view .LVU518
	ldr	r3, [r2, #8]
	ldr	r0, [r2, #12]
	.loc 2 4888 12 view .LVU519
	cmp	r3, #-2147483648
	sbcs	r0, r0, #0
	bcs	.L63
	b	.L64
.LVL148:
.L123:
	.loc 2 4888 12 view .LVU520
.LBE324:
.LBE326:
.LBE328:
.LBE406:
.LBB407:
.LBB310:
.LBB308:
.LBB306:
	.loc 2 4888 9 is_stmt 1 view .LVU521
	.loc 2 4888 29 is_stmt 0 view .LVU522
	ldr	r3, [r2, #8]
	ldr	r0, [r2, #12]
	.loc 2 4888 12 view .LVU523
	cmp	r3, #-2147483648
	sbcs	r0, r0, #0
	bcs	.L57
	b	.L58
.LBE306:
.LBE308:
.LBE310:
.LBE407:
.LBE408:
	.cfi_endproc
.LFE281:
	.size	SaveManager_Load, .-SaveManager_Load
	.section	.rodata.str1.4
	.align	2
.LC18:
	.ascii	"gamemode\000"
	.align	2
.LC19:
	.ascii	"cheats\000"
	.align	2
.LC20:
	.ascii	"Mpack error %d while saving world manifest\000"
	.section	.text.SaveManager_Unload,"ax",%progbits
	.align	2
	.global	SaveManager_Unload
	.syntax unified
	.arm
	.type	SaveManager_Unload, %function
SaveManager_Unload:
.LVL149:
.LFB282:
	.loc 1 100 43 is_stmt 1 view -0
	.cfi_startproc
	@ args = 0, pretend = 0, frame = 40
	@ frame_needed = 0, uses_anonymous_args = 0
	.loc 1 101 2 view .LVU525
	.loc 1 102 2 view .LVU526
	.loc 1 100 43 is_stmt 0 view .LVU527
	push	{r4, r5, lr}
	.cfi_def_cfa_offset 12
	.cfi_offset 4, -12
	.cfi_offset 5, -8
	.cfi_offset 14, -4
	mov	r4, r0
	sub	sp, sp, #44
	.cfi_def_cfa_offset 56
	.loc 1 102 2 view .LVU528
	mov	r0, sp
.LVL150:
	.loc 1 102 2 view .LVU529
	ldr	r1, .L140
	bl	mpack_writer_init_file
.LVL151:
	.loc 1 103 2 is_stmt 1 view .LVU530
	mov	r1, #3
	mov	r0, sp
	bl	mpack_start_map
.LVL152:
	.loc 1 105 2 view .LVU531
	mov	r0, sp
	ldr	r1, .L140+4
	bl	mpack_write_cstr
.LVL153:
	.loc 1 106 2 view .LVU532
	.loc 1 106 38 is_stmt 0 view .LVU533
	ldr	r1, [r4, #4]
	.loc 1 106 2 view .LVU534
	mov	r0, sp
	add	r1, r1, #4
	bl	mpack_write_cstr
.LVL154:
	.loc 1 108 2 is_stmt 1 view .LVU535
	mov	r0, sp
	ldr	r1, .L140+8
	bl	mpack_write_cstr
.LVL155:
	.loc 1 109 2 view .LVU536
	mov	r1, #1
	mov	r0, sp
	bl	mpack_start_array
.LVL156:
	.loc 1 110 2 view .LVU537
	mov	r1, #9
	mov	r0, sp
	bl	mpack_start_map
.LVL157:
	.loc 1 112 2 view .LVU538
	ldr	r1, .L140+12
	mov	r0, sp
	bl	mpack_write_cstr
.LVL158:
	.loc 1 113 2 view .LVU539
	ldr	r3, [r4]
	mov	r0, sp
	vldr.32	s0, [r3]
	bl	mpack_write_float
.LVL159:
	.loc 1 114 2 view .LVU540
	ldr	r1, .L140+16
	mov	r0, sp
	bl	mpack_write_cstr
.LVL160:
	.loc 1 115 2 view .LVU541
	ldr	r3, [r4]
	mov	r0, sp
	vldr.32	s0, [r3, #4]
	bl	mpack_write_float
.LVL161:
	.loc 1 116 2 view .LVU542
	ldr	r1, .L140+20
	mov	r0, sp
	bl	mpack_write_cstr
.LVL162:
	.loc 1 117 2 view .LVU543
	ldr	r3, [r4]
	mov	r0, sp
	vldr.32	s0, [r3, #8]
	bl	mpack_write_float
.LVL163:
	.loc 1 118 2 view .LVU544
	ldr	r1, .L140+24
	mov	r0, sp
	bl	mpack_write_cstr
.LVL164:
	.loc 1 119 2 view .LVU545
.LBB409:
.LBI409:
	.loc 2 1750 13 view .LVU546
.LBB410:
	.loc 2 1751 5 view .LVU547
.LBE410:
.LBE409:
	.loc 1 119 37 is_stmt 0 view .LVU548
	ldr	r3, [r4]
.LBB413:
.LBB411:
	.loc 2 1751 5 view .LVU549
	mov	r0, sp
.LVL165:
	.loc 2 1751 5 view .LVU550
.LBE411:
.LBE413:
	.loc 1 119 2 view .LVU551
	ldr	r2, [r3, #84]
.LBB414:
.LBB412:
	.loc 2 1751 5 view .LVU552
	asr	r3, r2, #31
	bl	mpack_write_i64
.LVL166:
	.loc 2 1751 5 view .LVU553
.LBE412:
.LBE414:
	.loc 1 120 2 is_stmt 1 view .LVU554
	ldr	r1, .L140+28
	mov	r0, sp
	bl	mpack_write_cstr
.LVL167:
	.loc 1 121 2 view .LVU555
.LBB415:
.LBI415:
	.loc 2 1750 13 view .LVU556
.LBB416:
	.loc 2 1751 5 view .LVU557
.LBE416:
.LBE415:
	.loc 1 121 37 is_stmt 0 view .LVU558
	ldr	r3, [r4]
.LBB419:
.LBB417:
	.loc 2 1751 5 view .LVU559
	mov	r0, sp
.LVL168:
	.loc 2 1751 5 view .LVU560
.LBE417:
.LBE419:
	.loc 1 121 2 view .LVU561
	ldr	r2, [r3, #96]
.LBB420:
.LBB418:
	.loc 2 1751 5 view .LVU562
	asr	r3, r2, #31
	bl	mpack_write_i64
.LVL169:
	.loc 2 1751 5 view .LVU563
.LBE418:
.LBE420:
	.loc 1 123 2 is_stmt 1 view .LVU564
	ldr	r1, .L140+32
	mov	r0, sp
	bl	mpack_write_cstr
.LVL170:
	.loc 1 124 2 view .LVU565
.LBB421:
.LBI421:
	.loc 2 1750 13 view .LVU566
.LBB422:
	.loc 2 1751 5 view .LVU567
.LBE422:
.LBE421:
	.loc 1 124 37 is_stmt 0 view .LVU568
	ldr	r3, [r4]
.LBB425:
.LBB423:
	.loc 2 1751 5 view .LVU569
	mov	r0, sp
.LVL171:
	.loc 2 1751 5 view .LVU570
.LBE423:
.LBE425:
	.loc 1 124 2 view .LVU571
	ldr	r2, [r3, #124]
.LBB426:
.LBB424:
	.loc 2 1751 5 view .LVU572
	asr	r3, r2, #31
	bl	mpack_write_i64
.LVL172:
	.loc 2 1751 5 view .LVU573
.LBE424:
.LBE426:
	.loc 1 125 2 is_stmt 1 view .LVU574
	mov	r0, sp
	ldr	r1, .L140+36
	bl	mpack_write_cstr
.LVL173:
	.loc 1 126 2 view .LVU575
	ldr	r3, [r4]
	mov	r0, sp
	ldrb	r1, [r3, #128]	@ zero_extendqisi2
	bl	mpack_write_bool
.LVL174:
	.loc 1 128 2 view .LVU576
	ldr	r1, .L140+40
	mov	r0, sp
	bl	mpack_write_cstr
.LVL175:
	.loc 1 129 2 view .LVU577
	ldr	r3, [r4]
	mov	r0, sp
	vldr.32	s0, [r3, #12]
	bl	mpack_write_float
.LVL176:
	.loc 1 130 2 view .LVU578
	ldr	r1, .L140+44
	mov	r0, sp
	bl	mpack_write_cstr
.LVL177:
	.loc 1 131 2 view .LVU579
	ldr	r3, [r4]
	mov	r0, sp
	vldr.32	s0, [r3, #16]
	bl	mpack_write_float
.LVL178:
	.loc 1 133 2 view .LVU580
	mov	r0, sp
	ldr	r1, .L140+48
	bl	mpack_write_cstr
.LVL179:
	.loc 1 134 2 view .LVU581
	ldr	r3, [r4]
	mov	r0, sp
	ldrb	r1, [r3, #35]	@ zero_extendqisi2
	bl	mpack_write_bool
.LVL180:
	.loc 1 136 2 view .LVU582
	mov	r0, sp
	ldr	r1, .L140+52
	bl	mpack_write_cstr
.LVL181:
	.loc 1 137 2 view .LVU583
	ldr	r3, [r4]
	mov	r0, sp
	ldrb	r1, [r3, #36]	@ zero_extendqisi2
	bl	mpack_write_bool
.LVL182:
	.loc 1 139 2 view .LVU584
	.loc 1 140 2 view .LVU585
	.loc 1 142 2 view .LVU586
	ldr	r1, .L140+56
	mov	r0, sp
	bl	mpack_write_cstr
.LVL183:
	.loc 1 143 2 view .LVU587
.LBB427:
.LBI427:
	.loc 2 1767 13 view .LVU588
.LBB428:
	.loc 2 1768 5 view .LVU589
.LBE428:
.LBE427:
	.loc 1 143 51 is_stmt 0 view .LVU590
	ldr	r2, [r4, #4]
.LBB430:
.LBB429:
	.loc 2 1768 5 view .LVU591
	mov	r3, #0
	mov	r0, sp
.LVL184:
	.loc 2 1768 5 view .LVU592
	ldrb	r2, [r2, #24]	@ zero_extendqisi2
	bl	mpack_write_u64
.LVL185:
	.loc 2 1768 5 view .LVU593
.LBE429:
.LBE430:
	.loc 1 145 2 is_stmt 1 view .LVU594
	.loc 1 145 22 is_stmt 0 view .LVU595
	mov	r0, sp
	bl	mpack_writer_destroy
.LVL186:
	.loc 1 146 2 is_stmt 1 view .LVU596
	.loc 1 146 5 is_stmt 0 view .LVU597
	subs	r1, r0, #0
	bne	.L139
.LVL187:
.L131:
.LBB431:
	.loc 1 150 20 is_stmt 1 discriminator 1 view .LVU598
	ldr	r3, [r4, #12]
	cmp	r3, #0
	ble	.L132
	mov	r5, #0
.LVL188:
.L133:
	.loc 1 151 3 view .LVU599
	ldr	r3, [r4, #8]
	ldr	r0, [r3, r5, lsl #2]
	bl	SuperChunk_Deinit
.LVL189:
	.loc 1 152 3 view .LVU600
	ldr	r3, [r4, #8]
	ldr	r0, [r3, r5, lsl #2]
	bl	free
.LVL190:
	.loc 1 150 48 discriminator 3 view .LVU601
	.loc 1 150 20 is_stmt 0 discriminator 1 view .LVU602
	ldr	r3, [r4, #12]
	.loc 1 150 48 discriminator 3 view .LVU603
	add	r5, r5, #1
.LVL191:
	.loc 1 150 20 is_stmt 1 discriminator 1 view .LVU604
	cmp	r3, r5
	bgt	.L133
.LVL192:
.L132:
	.loc 1 150 20 is_stmt 0 discriminator 1 view .LVU605
.LBE431:
	.loc 1 154 2 is_stmt 1 view .LVU606
	.loc 1 154 31 is_stmt 0 view .LVU607
	mov	r3, #0
	str	r3, [r4, #12]
	.loc 1 155 1 view .LVU608
	add	sp, sp, #44
	.cfi_remember_state
	.cfi_def_cfa_offset 12
	@ sp needed
	pop	{r4, r5, pc}
.LVL193:
.L139:
	.cfi_restore_state
	.loc 1 147 3 is_stmt 1 view .LVU609
	ldr	r0, .L140+60
.LVL194:
	.loc 1 147 3 is_stmt 0 view .LVU610
	bl	Crash
.LVL195:
	.loc 1 147 3 view .LVU611
	b	.L131
.L141:
	.align	2
.L140:
	.word	.LC4
	.word	.LC5
	.word	.LC7
	.word	.LC8
	.word	.LC9
	.word	.LC10
	.word	.LC11
	.word	.LC12
	.word	.LC18
	.word	.LC19
	.word	.LC13
	.word	.LC14
	.word	.LC15
	.word	.LC16
	.word	.LC6
	.word	.LC20
	.cfi_endproc
.LFE282:
	.size	SaveManager_Unload, .-SaveManager_Unload
	.section	.text.SaveManager_LoadChunk,"ax",%progbits
	.align	2
	.global	SaveManager_LoadChunk
	.syntax unified
	.arm
	.type	SaveManager_LoadChunk, %function
SaveManager_LoadChunk:
.LVL196:
.LFB284:
	.loc 1 170 75 is_stmt 1 view -0
	.cfi_startproc
	@ args = 4, pretend = 0, frame = 16
	@ frame_needed = 0, uses_anonymous_args = 0
	.loc 1 170 75 is_stmt 0 view .LVU613
	push	{r4, lr}
	.cfi_def_cfa_offset 8
	.cfi_offset 4, -8
	.cfi_offset 14, -4
	sub	sp, sp, #16
	.cfi_def_cfa_offset 24
	.loc 1 173 10 view .LVU614
	ldr	ip, [r2, #20]
	.loc 1 170 75 view .LVU615
	add	r0, sp, #16
.LVL197:
	.loc 1 170 75 view .LVU616
	stmdb	r0, {r1, r2, r3}
	.loc 1 172 10 view .LVU617
	ldr	r1, [r2, #16]
.LBB432:
.LBB433:
	.file 3 "C:/Users/Elias/CLionProjects/3DSCraft/include/world/savegame/SuperChunk.h"
	.loc 3 25 61 view .LVU618
	add	r3, ip, ip, lsr #31
.LBE433:
.LBE432:
.LBB438:
.LBB439:
	add	r0, r1, r1, lsr #31
.LBE439:
.LBE438:
.LBB443:
.LBB434:
	.loc 3 25 77 view .LVU619
	cmp	r3, #0
	mov	r4, r2
.LVL198:
	.loc 3 25 77 view .LVU620
.LBE434:
.LBE443:
	.loc 1 171 2 is_stmt 1 view .LVU621
	.loc 1 172 2 view .LVU622
.LBB444:
.LBI438:
	.loc 3 25 19 view .LVU623
.LBB440:
	.loc 3 25 51 view .LVU624
	.loc 3 25 51 is_stmt 0 view .LVU625
.LBE440:
.LBE444:
	.loc 1 173 2 is_stmt 1 view .LVU626
.LBB445:
.LBI432:
	.loc 3 25 19 view .LVU627
.LBB435:
	.loc 3 25 51 view .LVU628
	.loc 3 25 51 is_stmt 0 view .LVU629
.LBE435:
.LBE445:
	.loc 1 174 2 is_stmt 1 view .LVU630
.LBB446:
.LBB436:
	.loc 3 25 77 is_stmt 0 view .LVU631
	add	r2, r3, #7
.LVL199:
	.loc 3 25 77 view .LVU632
	movge	r2, r3
.LBE436:
.LBE446:
.LBB447:
.LBB441:
	cmp	r0, #0
	add	r3, r0, #7
	movge	r3, r0
.LBE441:
.LBE447:
.LBB448:
.LBB437:
	asr	r2, r2, #3
.LBE437:
.LBE448:
.LBB449:
.LBB442:
	asr	r3, r3, #3
.LBE442:
.LBE449:
	.loc 1 174 27 view .LVU633
	sub	r1, r3, r1, lsr #31
.LVL200:
	.loc 1 174 27 view .LVU634
	ldr	r0, [sp, #24]
	sub	r2, r2, ip, lsr #31
	bl	fetchSuperChunk
.LVL201:
	.loc 1 176 2 is_stmt 1 view .LVU635
	mov	r1, r4
	.loc 1 177 1 is_stmt 0 view .LVU636
	add	sp, sp, #16
	.cfi_def_cfa_offset 8
	@ sp needed
	pop	{r4, lr}
	.cfi_restore 14
	.cfi_restore 4
	.cfi_def_cfa_offset 0
.LVL202:
	.loc 1 176 2 view .LVU637
	b	SuperChunk_LoadChunk
.LVL203:
	.loc 1 176 2 view .LVU638
	.cfi_endproc
.LFE284:
	.size	SaveManager_LoadChunk, .-SaveManager_LoadChunk
	.section	.text.SaveManager_SaveChunk,"ax",%progbits
	.align	2
	.global	SaveManager_SaveChunk
	.syntax unified
	.arm
	.type	SaveManager_SaveChunk, %function
SaveManager_SaveChunk:
.LVL204:
.LFB285:
	.loc 1 178 75 is_stmt 1 view -0
	.cfi_startproc
	@ args = 4, pretend = 0, frame = 16
	@ frame_needed = 0, uses_anonymous_args = 0
	.loc 1 178 75 is_stmt 0 view .LVU640
	push	{r4, lr}
	.cfi_def_cfa_offset 8
	.cfi_offset 4, -8
	.cfi_offset 14, -4
	sub	sp, sp, #16
	.cfi_def_cfa_offset 24
	.loc 1 181 10 view .LVU641
	ldr	ip, [r2, #20]
	.loc 1 178 75 view .LVU642
	add	r0, sp, #16
.LVL205:
	.loc 1 178 75 view .LVU643
	stmdb	r0, {r1, r2, r3}
	.loc 1 180 10 view .LVU644
	ldr	r1, [r2, #16]
.LBB450:
.LBB451:
	.loc 3 25 61 view .LVU645
	add	r3, ip, ip, lsr #31
.LBE451:
.LBE450:
.LBB456:
.LBB457:
	add	r0, r1, r1, lsr #31
.LBE457:
.LBE456:
.LBB461:
.LBB452:
	.loc 3 25 77 view .LVU646
	cmp	r3, #0
	mov	r4, r2
.LVL206:
	.loc 3 25 77 view .LVU647
.LBE452:
.LBE461:
	.loc 1 179 2 is_stmt 1 view .LVU648
	.loc 1 180 2 view .LVU649
.LBB462:
.LBI456:
	.loc 3 25 19 view .LVU650
.LBB458:
	.loc 3 25 51 view .LVU651
	.loc 3 25 51 is_stmt 0 view .LVU652
.LBE458:
.LBE462:
	.loc 1 181 2 is_stmt 1 view .LVU653
.LBB463:
.LBI450:
	.loc 3 25 19 view .LVU654
.LBB453:
	.loc 3 25 51 view .LVU655
	.loc 3 25 51 is_stmt 0 view .LVU656
.LBE453:
.LBE463:
	.loc 1 183 2 is_stmt 1 view .LVU657
.LBB464:
.LBB454:
	.loc 3 25 77 is_stmt 0 view .LVU658
	add	r2, r3, #7
.LVL207:
	.loc 3 25 77 view .LVU659
	movge	r2, r3
.LBE454:
.LBE464:
.LBB465:
.LBB459:
	cmp	r0, #0
	add	r3, r0, #7
	movge	r3, r0
.LBE459:
.LBE465:
.LBB466:
.LBB455:
	asr	r2, r2, #3
.LBE455:
.LBE466:
.LBB467:
.LBB460:
	asr	r3, r3, #3
.LBE460:
.LBE467:
	.loc 1 183 27 view .LVU660
	sub	r1, r3, r1, lsr #31
.LVL208:
	.loc 1 183 27 view .LVU661
	ldr	r0, [sp, #24]
	sub	r2, r2, ip, lsr #31
	bl	fetchSuperChunk
.LVL209:
	.loc 1 185 2 is_stmt 1 view .LVU662
	mov	r1, r4
	.loc 1 186 1 is_stmt 0 view .LVU663
	add	sp, sp, #16
	.cfi_def_cfa_offset 8
	@ sp needed
	pop	{r4, lr}
	.cfi_restore 14
	.cfi_restore 4
	.cfi_def_cfa_offset 0
.LVL210:
	.loc 1 185 2 view .LVU664
	b	SuperChunk_SaveChunk
.LVL211:
	.loc 1 185 2 view .LVU665
	.cfi_endproc
.LFE285:
	.size	SaveManager_SaveChunk, .-SaveManager_SaveChunk
	.text
.Letext0:
	.file 4 "C:/devkitPro/devkitARM/arm-none-eabi/include/machine/_default_types.h"
	.file 5 "C:/devkitPro/devkitARM/lib/gcc/arm-none-eabi/13.2.0/include/stddef.h"
	.file 6 "C:/devkitPro/devkitARM/arm-none-eabi/include/machine/_types.h"
	.file 7 "C:/devkitPro/devkitARM/arm-none-eabi/include/sys/_types.h"
	.file 8 "C:/devkitPro/devkitARM/arm-none-eabi/include/sys/reent.h"
	.file 9 "C:/devkitPro/devkitARM/arm-none-eabi/include/sys/_stdint.h"
	.file 10 "C:/devkitPro/devkitARM/arm-none-eabi/include/sys/lock.h"
	.file 11 "C:/devkitPro/devkitARM/arm-none-eabi/include/stdio.h"
	.file 12 "C:/Users/Elias/CLionProjects/3DSCraft/include/world/Direction.h"
	.file 13 "C:/Users/Elias/CLionProjects/3DSCraft/include/blocks/Block.h"
	.file 14 "C:/Users/Elias/CLionProjects/3DSCraft/include/misc/Xorshift.h"
	.file 15 "C:/Users/Elias/CLionProjects/3DSCraft/include/rendering/VBOCache.h"
	.file 16 "C:/Users/Elias/CLionProjects/3DSCraft/include/world/Chunk.h"
	.file 17 "C:/devkitPro/libctru/include/3ds/types.h"
	.file 18 "C:/devkitPro/libctru/include/3ds/synchronization.h"
	.file 19 "C:/devkitPro/devkitARM/arm-none-eabi/include/sys/types.h"
	.file 20 "C:/Users/Elias/CLionProjects/3DSCraft/include/world/WorkQueue.h"
	.file 21 "C:/Users/Elias/CLionProjects/3DSCraft/include/world/World.h"
	.file 22 "C:/Users/Elias/CLionProjects/3DSCraft/include/inventory/ItemStack.h"
	.file 23 "C:/Users/Elias/CLionProjects/3DSCraft/include/misc/VecMath.h"
	.file 24 "C:/Users/Elias/CLionProjects/3DSCraft/include/misc/Raycast.h"
	.file 25 "C:/Users/Elias/CLionProjects/3DSCraft/include/entity/Player.h"
	.file 26 "C:/Users/Elias/CLionProjects/3DSCraft/include/world/savegame/SaveManager.h"
	.file 27 "C:/devkitPro/libctru/include/3ds/svc.h"
	.file 28 "C:/Users/Elias/CLionProjects/3DSCraft/dependencies/vec/vec.h"
	.file 29 "C:/devkitPro/devkitARM/arm-none-eabi/include/stdlib.h"
	.file 30 "C:/Users/Elias/CLionProjects/3DSCraft/include/misc/Crash.h"
	.file 31 "C:/devkitPro/devkitARM/arm-none-eabi/include/sys/unistd.h"
	.file 32 "C:/devkitPro/devkitARM/arm-none-eabi/include/string.h"
	.file 33 "C:/devkitPro/devkitARM/arm-none-eabi/include/sys/stat.h"