	.arch armv6k
	.fpu vfp
	.eabi_attribute 28, 1
	.eabi_attribute 20, 1
	.eabi_attribute 21, 1
	.eabi_attribute 23, 3
	.eabi_attribute 24, 1
	.eabi_attribute 25, 1
	.eabi_attribute 26, 1
	.eabi_attribute 30, 2
	.eabi_attribute 34, 1
	.eabi_attribute 18, 4
	.file	"SelectWorldScreen.c"
	.text
.Ltext0:
	.cfi_sections	.debug_frame
	.file 1 "C:/Users/Elias/CLionProjects/3DSCraft/source/gui/SelectWorldScreen.c"
	.section	.rodata.str1.4,"aMS",%progbits,1
	.align	2
.LC0:
	.ascii	"%s/%s\000"
	.section	.text.delete_folder,"ax",%progbits
	.align	2
	.syntax unified
	.arm
	.type	delete_folder, %function
delete_folder:
.LVL0:
.LFB359:
	.loc 1 70 45 view -0
	.cfi_startproc
	@ args = 0, pretend = 0, frame = 0
	@ frame_needed = 1, uses_anonymous_args = 0
	.loc 1 71 2 view .LVU1
	.loc 1 70 45 is_stmt 0 view .LVU2
	push	{r3, r4, r5, r6, r7, r8, r9, r10, fp, lr}
	.cfi_def_cfa_offset 40
	.cfi_offset 3, -40
	.cfi_offset 4, -36
	.cfi_offset 5, -32
	.cfi_offset 6, -28
	.cfi_offset 7, -24
	.cfi_offset 8, -20
	.cfi_offset 9, -16
	.cfi_offset 10, -12
	.cfi_offset 11, -8
	.cfi_offset 14, -4
	add	fp, sp, #36
	.cfi_def_cfa 11, 4
	.loc 1 70 45 view .LVU3
	mov	r7, r0
	.loc 1 71 13 view .LVU4
	bl	opendir
.LVL1:
	.loc 1 71 13 view .LVU5
	mov	r6, r0
	.loc 1 74 16 view .LVU6
	mov	r0, r7
.LVL2:
	.loc 1 72 2 is_stmt 1 view .LVU7
	.loc 1 74 2 view .LVU8
	.loc 1 74 16 is_stmt 0 view .LVU9
	bl	strlen
.LVL3:
	mov	r8, r0
.LVL4:
	.loc 1 76 2 is_stmt 1 view .LVU10
	.loc 1 76 9 view .LVU11
	.loc 1 76 18 is_stmt 0 view .LVU12
	mov	r0, r6
.LVL5:
	.loc 1 76 18 view .LVU13
	bl	readdir
.LVL6:
	.loc 1 76 9 discriminator 1 view .LVU14
	subs	r4, r0, #0
.LBB9:
	.loc 1 82 3 view .LVU15
	ldr	r9, .L19
.LBE9:
	.loc 1 76 9 discriminator 1 view .LVU16
	beq	.L17
.L10:
.LBB10:
	.loc 1 77 8 view .LVU17
	ldrb	r3, [r4, #5]	@ zero_extendqisi2
	.loc 1 76 33 discriminator 1 view .LVU18
	mov	r10, sp
	.loc 1 77 3 is_stmt 1 view .LVU19
	.loc 1 77 8 is_stmt 0 view .LVU20
	cmp	r3, #46
	.loc 1 77 20 view .LVU21
	add	r5, r4, #5
	.loc 1 77 8 view .LVU22
	bne	.L11
	.loc 1 77 8 view .LVU23
	ldrb	r3, [r5, #1]	@ zero_extendqisi2
	cmp	r3, #46
	bne	.L11
	ldrb	r3, [r5, #2]	@ zero_extendqisi2
	.loc 1 77 6 discriminator 1 view .LVU24
	cmp	r3, #0
	bne	.L11
.LVL7:
.L9:
	.loc 1 77 6 discriminator 1 view .LVU25
.LBE10:
	.loc 1 76 18 view .LVU26
	mov	r0, r6
.LBB11:
	mov	sp, r10
.LBE11:
	.loc 1 76 9 is_stmt 1 view .LVU27
	.loc 1 76 18 is_stmt 0 view .LVU28
	bl	readdir
.LVL8:
	.loc 1 76 9 discriminator 1 view .LVU29
	subs	r4, r0, #0
	bne	.L10
.L17:
	.loc 1 90 2 is_stmt 1 view .LVU30
	mov	r0, r6
.LVL9:
	.loc 1 90 2 is_stmt 0 view .LVU31
	bl	closedir
.LVL10:
	.loc 1 92 2 is_stmt 1 view .LVU32
	mov	r0, r7
	bl	rmdir
.LVL11:
	.loc 1 93 1 is_stmt 0 view .LVU33
	sub	sp, fp, #36
	.cfi_remember_state
	.cfi_def_cfa 13, 40
	@ sp needed
	pop	{r3, r4, r5, r6, r7, r8, r9, r10, fp, pc}
.LVL12:
.L11:
	.cfi_restore_state
.LBB12:
	.loc 1 77 40 discriminator 2 view .LVU34
	ldrb	r3, [r4, #5]	@ zero_extendqisi2
	cmp	r3, #46
	bne	.L6
	ldrb	r3, [r5, #1]	@ zero_extendqisi2
	.loc 1 77 36 discriminator 1 view .LVU35
	cmp	r3, #0
	beq	.L9
.L6:
	.loc 1 79 3 is_stmt 1 view .LVU36
	.loc 1 79 18 is_stmt 0 view .LVU37
	mov	r0, r5
.LVL13:
	.loc 1 79 18 view .LVU38
	bl	strlen
.LVL14:
	.loc 1 81 3 is_stmt 1 view .LVU39
	.loc 1 81 23 is_stmt 0 view .LVU40
	add	r0, r0, r8
.LVL15:
	.loc 1 81 8 view .LVU41
	add	r0, r0, #8
.LVL16:
	.loc 1 81 8 view .LVU42
	bic	r0, r0, #7
.LVL17:
	.loc 1 81 8 view .LVU43
	sub	sp, sp, r0
.LVL18:
	.loc 1 82 3 is_stmt 1 view .LVU44
	mov	r3, r5
	mov	r2, r7
	mov	r1, r9
	mov	r0, sp
	bl	sprintf
.LVL19:
	.loc 1 84 3 view .LVU45
	.loc 1 84 6 is_stmt 0 view .LVU46
	ldrb	r3, [r4, #4]	@ zero_extendqisi2
	.loc 1 85 4 view .LVU47
	mov	r0, sp
	.loc 1 84 6 view .LVU48
	cmp	r3, #4
	beq	.L18
	.loc 1 87 4 is_stmt 1 view .LVU49
	bl	unlink
.LVL20:
	b	.L9
.LVL21:
.L18:
	.loc 1 85 4 view .LVU50
	bl	delete_folder
.LVL22:
	.loc 1 85 4 is_stmt 0 view .LVU51
	b	.L9
.L20:
	.align	2
.L19:
	.word	.LC0
.LBE12:
	.cfi_endproc
.LFE359:
	.size	delete_folder, .-delete_folder
	.section	.rodata.str1.4
	.align	2
.LC1:
	.ascii	"sdmc:/craftus_redesigned/saves\000"
	.align	2
.LC2:
	.ascii	"sdmc:/craftus_redesigned/saves/%s/level.mp\000"
	.align	2
.LC3:
	.ascii	"name\000"
	.section	.text.SelectWorldScreen_ScanWorlds,"ax",%progbits
	.align	2
	.global	SelectWorldScreen_ScanWorlds
	.syntax unified
	.arm
	.type	SelectWorldScreen_ScanWorlds, %function
SelectWorldScreen_ScanWorlds:
.LFB358:
	.loc 1 35 37 is_stmt 1 view -0
	.cfi_startproc
	@ args = 0, pretend = 0, frame = 872
	@ frame_needed = 0, uses_anonymous_args = 0
	.loc 1 36 2 view .LVU53
	.loc 1 36 21 is_stmt 0 view .LVU54
	mov	r3, #0
	.loc 1 35 37 view .LVU55
	push	{r4, r5, r6, r7, r8, r9, lr}
	.cfi_def_cfa_offset 28
	.cfi_offset 4, -28
	.cfi_offset 5, -24
	.cfi_offset 6, -20
	.cfi_offset 7, -16
	.cfi_offset 8, -12
	.cfi_offset 9, -8
	.cfi_offset 14, -4
	.loc 1 36 21 view .LVU56
	ldr	r7, .L31
	.loc 1 38 19 view .LVU57
	ldr	r0, .L31+4
	.loc 1 35 37 view .LVU58
	sub	sp, sp, #876
	.cfi_def_cfa_offset 904
	.loc 1 36 21 view .LVU59
	str	r3, [r7, #4]
	.loc 1 38 2 is_stmt 1 view .LVU60
	.loc 1 38 19 is_stmt 0 view .LVU61
	bl	opendir
.LVL23:
	.loc 1 45 3 view .LVU62
	ldr	r6, .L31+8
	.loc 1 38 19 view .LVU63
	mov	r5, r0
.LVL24:
	.loc 1 40 2 is_stmt 1 view .LVU64
	.loc 1 42 2 view .LVU65
	.loc 1 44 2 view .LVU66
	.loc 1 44 8 is_stmt 0 view .LVU67
	b	.L23
.LVL25:
.L26:
	.loc 1 45 3 view .LVU68
	mov	r2, r4
	mov	r1, r6
	add	r0, sp, #360
.LVL26:
	.loc 1 45 3 view .LVU69
	bl	sprintf
.LVL27:
	.loc 1 46 3 is_stmt 1 view .LVU70
	.loc 1 46 7 is_stmt 0 view .LVU71
	mov	r1, #0
	add	r0, sp, #360
	bl	access
.LVL28:
	.loc 1 46 6 discriminator 1 view .LVU72
	cmn	r0, #1
	bne	.L30
.LVL29:
.L23:
	.loc 1 44 9 is_stmt 1 view .LVU73
	.loc 1 44 18 is_stmt 0 view .LVU74
	mov	r0, r5
	bl	readdir
.LVL30:
	.loc 1 45 3 is_stmt 1 view .LVU75
	.loc 1 44 9 is_stmt 0 discriminator 1 view .LVU76
	cmp	r0, #0
	.loc 1 45 70 view .LVU77
	add	r4, r0, #5
	.loc 1 44 9 discriminator 1 view .LVU78
	bne	.L26
	.loc 1 67 2 is_stmt 1 view .LVU79
	mov	r0, r5
.LVL31:
	.loc 1 67 2 is_stmt 0 view .LVU80
	bl	closedir
.LVL32:
	.loc 1 68 1 view .LVU81
	add	sp, sp, #876
	.cfi_remember_state
	.cfi_def_cfa_offset 28
	@ sp needed
	pop	{r4, r5, r6, r7, r8, r9, pc}
.LVL33:
.L30:
	.cfi_restore_state
.LBB13:
	.loc 1 47 4 is_stmt 1 view .LVU82
	.loc 1 48 4 view .LVU83
	mov	r2, #0
	add	r1, sp, #360
	add	r0, sp, #32
	.loc 1 49 24 is_stmt 0 view .LVU84
	add	r9, sp, #4
	.loc 1 48 4 view .LVU85
	bl	mpack_tree_init_file
.LVL34:
	.loc 1 49 4 is_stmt 1 view .LVU86
	.loc 1 52 4 is_stmt 0 view .LVU87
	add	r8, sp, #12
	.loc 1 49 24 view .LVU88
	mov	r0, r9
	add	r1, sp, #32
	bl	mpack_tree_root
.LVL35:
	.loc 1 51 4 is_stmt 1 view .LVU89
	.loc 1 52 4 view .LVU90
	ldm	r9, {r1, r2}
	mov	r0, r8
	ldr	r3, .L31+12
	bl	mpack_node_map_cstr
.LVL36:
	.loc 1 52 4 is_stmt 0 discriminator 1 view .LVU91
	ldm	r8, {r0, r1}
	mov	r3, #12
	add	r2, sp, #20
	bl	mpack_node_copy_utf8_cstr
.LVL37:
	.loc 1 54 4 is_stmt 1 view .LVU92
	.loc 1 54 8 is_stmt 0 view .LVU93
	add	r0, sp, #32
	bl	mpack_tree_destroy
.LVL38:
	.loc 1 58 4 is_stmt 1 view .LVU94
	.loc 1 59 4 view .LVU95
	.loc 1 54 7 is_stmt 0 discriminator 1 view .LVU96
	subs	r8, r0, #0
	bne	.L23
	.loc 1 59 4 view .LVU97
	add	r1, sp, #20
	add	r0, sp, #92
	bl	strcpy
.LVL39:
	.loc 1 60 4 is_stmt 1 view .LVU98
	.loc 1 61 4 is_stmt 0 view .LVU99
	mov	r1, r4
	add	r0, sp, #104
	.loc 1 60 20 view .LVU100
	str	r8, [sp, #88]
	.loc 1 61 4 is_stmt 1 view .LVU101
	bl	strcpy
.LVL40:
	.loc 1 63 4 view .LVU102
	.loc 1 63 6 is_stmt 0 view .LVU103
	ldr	r2, .L31+16
	mov	r3, #272
	sub	r1, r2, #4
	sub	r0, r2, #8
	bl	vec_expand_
.LVL41:
	.loc 1 63 117 discriminator 1 view .LVU104
	cmp	r0, #0
	bne	.L23
	.loc 1 63 145 discriminator 1 view .LVU105
	ldr	r3, [r7, #4]
	.loc 1 63 129 discriminator 1 view .LVU106
	ldr	r0, [r7]
	.loc 1 63 157 discriminator 1 view .LVU107
	add	ip, r3, r3, lsl #4
	mov	r2, #272
	.loc 1 63 153 discriminator 1 view .LVU108
	add	r3, r3, #1
	.loc 1 63 157 discriminator 1 view .LVU109
	add	r1, sp, #88
	add	r0, r0, ip, lsl #4
	.loc 1 63 153 discriminator 1 view .LVU110
	str	r3, [r7, #4]
	.loc 1 63 157 discriminator 1 view .LVU111
	bl	memcpy
.LVL42:
	.loc 1 55 5 is_stmt 1 view .LVU112
	b	.L23
.L32:
	.align	2
.L31:
	.word	.LANCHOR0
	.word	.LC1
	.word	.LC2
	.word	.LC3
	.word	.LANCHOR0+8
.LBE13:
	.cfi_endproc
.LFE358:
	.size	SelectWorldScreen_ScanWorlds, .-SelectWorldScreen_ScanWorlds
	.section	.text.SelectWorldScreen_Init,"ax",%progbits
	.align	2
	.global	SelectWorldScreen_Init
	.syntax unified
	.arm
	.type	SelectWorldScreen_Init, %function
SelectWorldScreen_Init:
.LVL43:
.LFB360:
	.loc 1 95 50 view -0
	.cfi_startproc
	@ args = 0, pretend = 0, frame = 0
	@ frame_needed = 0, uses_anonymous_args = 0
	@ link register save eliminated.
	.loc 1 96 2 view .LVU114
	mov	r2, #0
	ldr	r3, .L34
	str	r2, [r3]
	str	r2, [r3, #4]
	str	r2, [r3, #8]
	.loc 1 97 2 view .LVU115
	.loc 1 97 10 is_stmt 0 view .LVU116
	str	r0, [r3, #12]
	.loc 1 99 2 is_stmt 1 view .LVU117
	b	SelectWorldScreen_ScanWorlds
.LVL44:
.L35:
	.loc 1 99 2 is_stmt 0 view .LVU118
	.align	2
.L34:
	.word	.LANCHOR0
	.cfi_endproc
.LFE360:
	.size	SelectWorldScreen_Init, .-SelectWorldScreen_Init
	.section	.text.SelectWorldScreen_Deinit,"ax",%progbits
	.align	2
	.global	SelectWorldScreen_Deinit
	.syntax unified
	.arm
	.type	SelectWorldScreen_Deinit, %function
SelectWorldScreen_Deinit:
.LFB361:
	.loc 1 102 33 is_stmt 1 view -0
	.cfi_startproc
	@ args = 0, pretend = 0, frame = 0
	@ frame_needed = 0, uses_anonymous_args = 0
	.loc 1 102 35 view .LVU120
	.loc 1 102 33 is_stmt 0 view .LVU121
	push	{r4, lr}
	.cfi_def_cfa_offset 8
	.cfi_offset 4, -8
	.cfi_offset 14, -4
	.loc 1 102 51 view .LVU122
	ldr	r4, .L38
	.loc 1 102 37 view .LVU123
	ldr	r0, [r4]
	bl	free
.LVL45:
	.loc 1 102 60 discriminator 1 view .LVU124
	mov	r3, #0
	str	r3, [r4]
	str	r3, [r4, #4]
	str	r3, [r4, #8]
	.loc 1 102 104 view .LVU125
	pop	{r4, pc}
.L39:
	.align	2
.L38:
	.word	.LANCHOR0
	.cfi_endproc
.LFE361:
	.size	SelectWorldScreen_Deinit, .-SelectWorldScreen_Deinit
	.section	.rodata.str1.4
	.align	2
.LC4:
	.ascii	"%s\000"
	.align	2
.LC5:
	.ascii	"Play selected world\000"
	.align	2
.LC6:
	.ascii	"New\000"
	.align	2
.LC7:
	.ascii	"Delete\000"
	.align	2
.LC8:
	.ascii	"Back\000"
	.align	2
.LC9:
	.ascii	"Are you sure?\000"
	.align	2
.LC10:
	.ascii	"No\000"
	.align	2
.LC11:
	.ascii	"Yes\000"
	.align	2
.LC12:
	.ascii	"World type:\000"
	.align	2
.LC13:
	.ascii	"Cancel\000"
	.align	2
.LC14:
	.ascii	"Continue\000"
	.section	.text.SelectWorldScreen,"ax",%progbits
	.align	2
	.global	SelectWorldScreen
	.syntax unified
	.arm
	.type	SelectWorldScreen, %function
SelectWorldScreen:
.LVL46:
.LFB362:
	.loc 1 137 45 is_stmt 1 view -0
	.cfi_startproc
	@ args = 0, pretend = 0, frame = 280
	@ frame_needed = 0, uses_anonymous_args = 0
	.loc 1 138 2 view .LVU127
	.loc 1 137 45 is_stmt 0 view .LVU128
	mov	r3, r0
	push	{r4, r5, r6, r7, r8, r9, r10, fp, lr}
	.cfi_def_cfa_offset 36
	.cfi_offset 4, -36
	.cfi_offset 5, -32
	.cfi_offset 6, -28
	.cfi_offset 7, -24
	.cfi_offset 8, -20
	.cfi_offset 9, -16
	.cfi_offset 10, -12
	.cfi_offset 11, -8
	.cfi_offset 14, -4
	.loc 1 138 10 view .LVU129
	ldr	r4, .L85+40
	.loc 1 140 2 view .LVU130
	mov	r0, #2
.LVL47:
	.loc 1 137 45 view .LVU131
	sub	sp, sp, #308
	.cfi_def_cfa_offset 344
	.loc 1 138 10 view .LVU132
	str	r3, [r4, #12]
	.loc 1 140 2 is_stmt 1 view .LVU133
	bl	SpriteBatch_SetScale
.LVL48:
	.loc 1 142 2 view .LVU134
	mov	r0, #4
	bl	SpriteBatch_BindGuiTexture
.LVL49:
	.loc 1 143 2 view .LVU135
.LBB14:
	.loc 1 143 7 view .LVU136
	.loc 1 143 20 discriminator 1 view .LVU137
.LBE14:
	.loc 1 142 2 is_stmt 0 view .LVU138
	mov	r8, #0
.LBB19:
.LBB15:
.LBB16:
	.loc 1 146 4 discriminator 2 view .LVU139
	ldr	r10, .L85+44
	ldr	r9, .L85+48
.LVL50:
.L41:
	.loc 1 146 4 discriminator 2 view .LVU140
.LBE16:
	.loc 1 144 21 is_stmt 1 discriminator 1 view .LVU141
	.loc 1 144 12 is_stmt 0 view .LVU142
	mov	r5, #0
.LBB17:
	.loc 1 146 4 discriminator 8 view .LVU143
	mov	r6, #32
.LVL51:
.L46:
	.loc 1 145 3 is_stmt 1 view .LVU144
	.loc 1 145 25 is_stmt 0 view .LVU145
	cmp	r5, #1
	.loc 1 146 4 view .LVU146
	lsl	r1, r5, #5
	.loc 1 145 25 view .LVU147
	ble	.L42
.L80:
	.loc 1 146 4 discriminator 8 view .LVU148
	mov	r7, #0
	.loc 1 145 25 discriminator 1 view .LVU149
	ldrb	r3, [r4, #16]	@ zero_extendqisi2
	.loc 1 146 4 discriminator 8 view .LVU150
	mov	r0, r8
	.loc 1 146 4 discriminator 2 view .LVU151
	cmp	r3, r7
	moveq	ip, r10
	movne	ip, r9
	.loc 1 146 4 discriminator 8 view .LVU152
	mvneq	r2, #3
	mvnne	r2, #9
	mov	r3, #32
	str	r6, [sp, #16]
	str	r6, [sp, #12]
	str	r6, [sp]
	str	r7, [sp, #8]
	str	r7, [sp, #4]
	str	ip, [sp, #20]
	bl	SpriteBatch_PushQuadColor
.LVL52:
.LBE17:
	.loc 1 144 38 is_stmt 1 discriminator 2 view .LVU153
	.loc 1 144 21 discriminator 1 view .LVU154
	cmp	r5, #3
	beq	.L79
	.loc 1 144 21 is_stmt 0 discriminator 1 view .LVU155
	mov	r5, #3
.LVL53:
.LBB18:
	.loc 1 145 3 is_stmt 1 view .LVU156
	.loc 1 145 25 is_stmt 0 view .LVU157
	cmp	r5, #1
	.loc 1 146 4 view .LVU158
	lsl	r1, r5, #5
	.loc 1 145 25 view .LVU159
	bgt	.L80
.L42:
	.loc 1 146 4 discriminator 8 view .LVU160
	mov	r3, #32
	mov	ip, #0
	mvn	r2, #9
	mov	r0, r8
	stm	sp, {r3, ip}
	str	r9, [sp, #20]
	str	r3, [sp, #16]
	str	r3, [sp, #12]
	str	ip, [sp, #8]
	bl	SpriteBatch_PushQuadColor
.LVL54:
.LBE18:
	.loc 1 144 38 is_stmt 1 discriminator 2 view .LVU161
	add	r5, r5, #1
.LVL55:
	.loc 1 144 21 discriminator 1 view .LVU162
	.loc 1 144 21 is_stmt 0 discriminator 1 view .LVU163
	b	.L46
.LVL56:
.L79:
	.loc 1 144 21 discriminator 1 view .LVU164
.LBE15:
	.loc 1 143 37 is_stmt 1 discriminator 2 view .LVU165
	.loc 1 143 20 discriminator 1 view .LVU166
	add	r8, r8, #32
	cmp	r8, #192
	bne	.L41
.LBE19:
	.loc 1 151 2 view .LVU167
	.loc 1 151 16 is_stmt 0 view .LVU168
	ldrb	r6, [r4, #16]	@ zero_extendqisi2
	.loc 1 151 5 view .LVU169
	cmp	r6, #0
	beq	.L81
	.loc 1 191 9 is_stmt 1 view .LVU170
	.loc 1 191 12 is_stmt 0 view .LVU171
	cmp	r6, #1
	beq	.L82
	.loc 1 202 9 is_stmt 1 view .LVU172
	.loc 1 202 12 is_stmt 0 view .LVU173
	cmp	r6, #2
	beq	.L83
	.loc 1 220 1 view .LVU174
	add	sp, sp, #308
	.cfi_remember_state
	.cfi_def_cfa_offset 36
	@ sp needed
	pop	{r4, r5, r6, r7, r8, r9, r10, fp, pc}
.LVL57:
.L81:
	.cfi_restore_state
.LBB20:
	.loc 1 152 3 is_stmt 1 view .LVU175
	.loc 1 153 3 is_stmt 0 view .LVU176
	add	r1, sp, #28
	add	r0, sp, #24
	.loc 1 152 7 view .LVU177
	str	r6, [sp, #24]
	.loc 1 152 22 view .LVU178
	str	r6, [sp, #28]
	.loc 1 153 3 is_stmt 1 view .LVU179
	bl	Gui_GetCursorMovement
.LVL58:
	.loc 1 154 3 view .LVU180
	.loc 1 154 7 is_stmt 0 view .LVU181
	mov	r3, #64
	mov	r2, #160
	mov	r1, r6
	mov	r0, r6
	bl	Gui_IsCursorInside
.LVL59:
	.loc 1 154 6 discriminator 1 view .LVU182
	cmp	r0, #0
	bne	.L48
	.loc 1 155 13 view .LVU183
	vldr.32	s14, [r4, #20]
	.loc 1 159 12 view .LVU184
	vldr.32	s13, .L85
	vmul.f32	s13, s14, s13
.L49:
	.loc 1 158 3 is_stmt 1 view .LVU185
	.loc 1 158 10 is_stmt 0 view .LVU186
	vldr.32	s15, [r4, #24]	@ int
	vcvt.f32.s32	s15, s15
	.loc 1 160 51 view .LVU187
	vcmpe.f32	s13, #0
	.loc 1 158 10 view .LVU188
	vadd.f32	s15, s15, s14
	.loc 1 160 51 view .LVU189
	vmrs	APSR_nzcv, FPSCR
	.loc 1 158 10 view .LVU190
	vcvt.s32.f32	s15, s15
	.loc 1 159 12 view .LVU191
	vstr.32	s13, [r4, #20]
	.loc 1 158 10 view .LVU192
	vmov	r3, s15	@ int
	vstr.32	s15, [r4, #24]	@ int
	.loc 1 159 3 is_stmt 1 view .LVU193
	.loc 1 160 3 view .LVU194
	.loc 1 160 51 is_stmt 0 view .LVU195
	bmi	.L84
	.loc 1 160 6 discriminator 4 view .LVU196
	vldr.32	s15, .L85+4
	vcmpe.f32	s13, s15
	vmrs	APSR_nzcv, FPSCR
	bpl	.L51
.L55:
	.loc 1 160 61 is_stmt 1 discriminator 5 view .LVU197
	.loc 1 160 70 is_stmt 0 discriminator 5 view .LVU198
	mov	r2, #0
	str	r2, [r4, #20]	@ float
.L51:
	.loc 1 162 3 is_stmt 1 view .LVU199
	.loc 1 162 35 is_stmt 0 view .LVU200
	ldr	r1, [r4, #4]
.LVL60:
	.loc 1 163 3 is_stmt 1 view .LVU201
	.loc 1 163 16 is_stmt 0 view .LVU202
	rsb	r2, r1, r1, lsl #28
	.loc 1 163 6 view .LVU203
	cmp	r3, r2, lsl #4
	.loc 1 163 16 view .LVU204
	lsl	r2, r2, #4
	.loc 1 163 30 is_stmt 1 discriminator 1 view .LVU205
	.loc 1 163 37 is_stmt 0 discriminator 1 view .LVU206
	movlt	r3, r2
	strlt	r2, [r4, #24]
	.loc 1 164 3 is_stmt 1 view .LVU207
	.loc 1 164 6 is_stmt 0 view .LVU208
	cmp	r3, #0
	.loc 1 164 19 is_stmt 1 discriminator 1 view .LVU209
	.loc 1 164 26 is_stmt 0 discriminator 1 view .LVU210
	movgt	r3, #0
	strgt	r3, [r4, #24]
	.loc 1 166 3 is_stmt 1 view .LVU211
	.loc 1 167 3 view .LVU212
.LVL61:
	.loc 1 168 3 view .LVU213
	.loc 1 168 6 is_stmt 0 view .LVU214
	cmp	r1, #0
	ble	.L60
	mov	fp, #0
	mov	r7, #10
.LBB21:
	.loc 1 171 5 view .LVU215
	mov	r9, #1
.LBE21:
	.loc 1 168 42 discriminator 1 view .LVU216
	mov	r6, fp
	ldr	r10, .L85+52
	b	.L59
.LVL62:
.L63:
.LBB22:
	.loc 1 176 4 is_stmt 1 view .LVU217
	.loc 1 176 8 is_stmt 0 view .LVU218
	mov	r1, r8
	mov	r3, #14
	mov	r2, #140
	mov	r0, #10
	bl	Gui_EnteredCursorInside
.LVL63:
	.loc 1 179 4 is_stmt 1 view .LVU219
	.loc 1 176 8 is_stmt 0 view .LVU220
	mov	ip, r0
	.loc 1 179 4 view .LVU221
	mov	r8, #0
	.loc 1 176 55 discriminator 1 view .LVU222
	cmp	r5, #63
	movgt	ip, #0
	andle	ip, ip, #1
	.loc 1 179 4 view .LVU223
	mvn	lr, #-2147483648
	.loc 1 176 55 discriminator 1 view .LVU224
	cmp	ip, r8
	.loc 1 177 5 is_stmt 1 view .LVU225
	.loc 1 179 4 is_stmt 0 view .LVU226
	add	ip, sp, #36
	.loc 1 177 19 view .LVU227
	strne	r6, [r10]
	.loc 1 179 4 view .LVU228
	str	ip, [sp, #16]
	ldr	ip, .L85+56
	ldr	r3, .L85+44
	str	ip, [sp, #12]
	ldr	ip, [sp, #28]
	mvn	r2, #5
	mov	r0, #20
	mov	r1, r5
	str	r8, [sp, #8]
	str	lr, [sp, #4]
	str	r9, [sp]
	str	ip, [sp, #20]
	bl	SpriteBatch_PushText
.LVL64:
.LBE22:
	.loc 1 168 112 is_stmt 1 discriminator 3 view .LVU229
	.loc 1 168 71 is_stmt 0 discriminator 2 view .LVU230
	ldr	r3, [r4, #4]
	.loc 1 168 112 discriminator 3 view .LVU231
	add	r6, r6, #1
.LVL65:
	.loc 1 168 71 is_stmt 1 discriminator 2 view .LVU232
	cmp	r3, r6
	add	fp, fp, #272
	add	r7, r7, #16
	ble	.L60
.LVL66:
.L59:
	.loc 1 168 83 is_stmt 0 discriminator 4 view .LVU233
	ldr	r1, [r4]
	mov	r2, #272
	add	r1, r1, fp
	add	r0, sp, #32
	bl	memcpy
.LVL67:
.LBB23:
	.loc 1 169 4 is_stmt 1 view .LVU234
	.loc 1 169 8 is_stmt 0 view .LVU235
	ldr	r5, [r4, #24]
	.loc 1 170 7 view .LVU236
	ldr	r3, [r10]
	.loc 1 169 8 view .LVU237
	add	r5, r7, r5
.LVL68:
	.loc 1 170 4 is_stmt 1 view .LVU238
	.loc 1 170 7 is_stmt 0 view .LVU239
	cmp	r3, r6
	.loc 1 171 5 view .LVU240
	sub	r8, r5, #3
	.loc 1 170 7 view .LVU241
	bne	.L63
	.loc 1 171 5 is_stmt 1 view .LVU242
	ldr	r1, .L85+60
	mov	r3, #140
	str	r1, [sp, #4]
	mvn	r2, #6
	mov	r1, r8
	mov	r0, #10
	str	r9, [sp]
	bl	SpriteBatch_PushSingleColorQuad
.LVL69:
	.loc 1 172 5 view .LVU243
	mov	r0, #10
	ldr	r1, .L85+60
	mov	r3, #140
	str	r1, [sp, #4]
	mvn	r2, #6
	add	r1, r5, r0
	str	r9, [sp]
	bl	SpriteBatch_PushSingleColorQuad
.LVL70:
	.loc 1 173 5 view .LVU244
	mov	ip, #14
	ldr	r1, .L85+60
	mov	r3, #1
	str	r1, [sp, #4]
	mvn	r2, #6
	mov	r1, r8
	mov	r0, #10
	str	ip, [sp]
	bl	SpriteBatch_PushSingleColorQuad
.LVL71:
	.loc 1 174 5 view .LVU245
	mov	r2, #14
	ldr	r3, .L85+60
	mov	r1, r8
	strd	r2, [sp]
	mov	r0, #150
	mov	r3, #1
	mvn	r2, #6
	bl	SpriteBatch_PushSingleColorQuad
.LVL72:
	b	.L63
.LVL73:
.L48:
	.loc 1 174 5 is_stmt 0 view .LVU246
.LBE23:
	.loc 1 155 4 is_stmt 1 view .LVU247
	.loc 1 155 26 is_stmt 0 view .LVU248
	vldr.32	s15, [sp, #28]	@ int
	vldr.32	s12, .L85+8
	vcvt.f32.s32	s15, s15
	.loc 1 155 13 view .LVU249
	vldr.32	s14, [r4, #20]
	.loc 1 156 60 view .LVU250
	vldr.32	s13, .L85+12
	.loc 1 155 13 view .LVU251
	vmla.f32	s14, s15, s12
	.loc 1 156 4 is_stmt 1 view .LVU252
	.loc 1 156 60 is_stmt 0 view .LVU253
	vcmpe.f32	s14, s13
	vmrs	APSR_nzcv, FPSCR
	bgt	.L50
	.loc 1 158 3 is_stmt 1 view .LVU254
	.loc 1 158 10 is_stmt 0 view .LVU255
	vldr.32	s15, [r4, #24]	@ int
	vldr.32	s14, .L85+128
	vcvt.f32.s32	s15, s15
	vsub.f32	s15, s15, s14
	vcvt.s32.f32	s15, s15
	.loc 1 159 12 view .LVU256
	ldr	r3, .L85+64
	.loc 1 158 10 view .LVU257
	vstr.32	s15, [r4, #24]	@ int
	.loc 1 159 3 is_stmt 1 view .LVU258
	.loc 1 160 3 view .LVU259
	.loc 1 159 12 is_stmt 0 view .LVU260
	str	r3, [r4, #20]	@ float
	.loc 1 158 10 view .LVU261
	vmov	r3, s15	@ int
	b	.L51
.L83:
.LBE20:
	.loc 1 203 3 is_stmt 1 view .LVU262
	mov	r1, #10
	mov	r0, r7
	bl	Gui_Offset
.LVL74:
	.loc 1 204 3 view .LVU263
	vldr.32	s0, .L85+16
	bl	Gui_RelativeWidth
.LVL75:
	.loc 1 204 3 is_stmt 0 discriminator 1 view .LVU264
	mov	r1, r5
	bl	Gui_BeginRowCenter
.LVL76:
	.loc 1 205 3 is_stmt 1 view .LVU265
	ldr	ip, .L85+68
	mov	r1, #1
	mov	r3, r7
	ldr	r2, .L85+44
	ldr	r0, .L85+72
	str	ip, [sp]
	.loc 1 207 7 is_stmt 0 view .LVU266
	ldr	r5, .L85+52
.LVL77:
	.loc 1 205 3 view .LVU267
	bl	Gui_Label
.LVL78:
	.loc 1 206 3 is_stmt 1 view .LVU268
	vldr.32	s0, .L85+20
	bl	Gui_Space
.LVL79:
	.loc 1 207 3 view .LVU269
	.loc 1 207 7 is_stmt 0 view .LVU270
	ldr	r3, .L85+76
	ldrb	r2, [r5, #4]	@ zero_extendqisi2
	ldr	r1, .L85+56
	ldr	r2, [r3, r2, lsl #2]
	ldr	r0, .L85+72
	bl	Gui_Button
.LVL80:
	.loc 1 207 6 discriminator 1 view .LVU271
	cmp	r0, #0
	beq	.L67
	.loc 1 208 4 is_stmt 1 view .LVU272
	.loc 1 208 16 is_stmt 0 view .LVU273
	ldrb	r3, [r5, #4]	@ zero_extendqisi2
	add	r3, r3, #1
	uxtb	r3, r3
	.loc 1 209 4 is_stmt 1 view .LVU274
	.loc 1 209 7 is_stmt 0 view .LVU275
	cmp	r3, #2
	.loc 1 208 16 view .LVU276
	strbne	r3, [r5, #4]
	.loc 1 209 45 is_stmt 1 discriminator 1 view .LVU277
	.loc 1 209 58 is_stmt 0 discriminator 1 view .LVU278
	strbeq	r7, [r5, #4]
.L67:
	.loc 1 211 3 is_stmt 1 view .LVU279
	bl	Gui_EndRow
.LVL81:
	.loc 1 213 3 view .LVU280
	vldr.32	s0, .L85+24
	bl	Gui_RelativeHeight
.LVL82:
	.loc 1 213 3 is_stmt 0 discriminator 1 view .LVU281
	bl	Gui_VerticalSpace
.LVL83:
	.loc 1 215 3 is_stmt 1 view .LVU282
	vldr.32	s0, .L85+16
	bl	Gui_RelativeWidth
.LVL84:
	.loc 1 215 3 is_stmt 0 discriminator 1 view .LVU283
	mov	r1, #3
	bl	Gui_BeginRowCenter
.LVL85:
	.loc 1 216 3 is_stmt 1 view .LVU284
	.loc 1 216 28 is_stmt 0 view .LVU285
	ldr	r1, .L85+80
	ldr	r0, .L85+72
	bl	Gui_Button
.LVL86:
	.loc 1 217 3 view .LVU286
	vldr.32	s0, .L85+20
	.loc 1 216 26 discriminator 1 view .LVU287
	strb	r0, [r4, #34]
	.loc 1 217 3 is_stmt 1 view .LVU288
	bl	Gui_Space
.LVL87:
	.loc 1 218 3 view .LVU289
	.loc 1 218 29 is_stmt 0 view .LVU290
	ldr	r1, .L85+84
	ldr	r0, .L85+72
	bl	Gui_Button
.LVL88:
	.loc 1 218 27 discriminator 1 view .LVU291
	strb	r0, [r4, #35]
	.loc 1 220 1 view .LVU292
	add	sp, sp, #308
	.cfi_remember_state
	.cfi_def_cfa_offset 36
	@ sp needed
	pop	{r4, r5, r6, r7, r8, r9, r10, fp, pc}
.LVL89:
.L60:
	.cfi_restore_state
.LBB24:
	.loc 1 182 3 is_stmt 1 view .LVU293
	mov	r1, #75
	mov	r0, #0
	bl	Gui_Offset
.LVL90:
	.loc 1 183 3 view .LVU294
	vldr.32	s0, .L85+28
	bl	Gui_RelativeWidth
.LVL91:
	.loc 1 183 3 is_stmt 0 discriminator 1 view .LVU295
	mov	r1, #1
	bl	Gui_BeginRowCenter
.LVL92:
	.loc 1 184 3 is_stmt 1 view .LVU296
	.loc 1 184 18 is_stmt 0 view .LVU297
	ldr	r1, .L85+88
	mov	r0, #1065353216
	bl	Gui_Button
.LVL93:
	.loc 1 184 16 discriminator 1 view .LVU298
	strb	r0, [r4, #28]
	.loc 1 185 3 is_stmt 1 view .LVU299
	bl	Gui_EndRow
.LVL94:
	.loc 1 186 3 view .LVU300
	vldr.32	s0, .L85+28
	bl	Gui_RelativeWidth
.LVL95:
	.loc 1 186 3 is_stmt 0 discriminator 1 view .LVU301
	mov	r1, #2
	bl	Gui_BeginRowCenter
.LVL96:
	.loc 1 187 3 is_stmt 1 view .LVU302
	.loc 1 187 23 is_stmt 0 view .LVU303
	ldr	r1, .L85+92
	ldr	r0, .L85+96
	bl	Gui_Button
.LVL97:
	mov	r3, r0
	.loc 1 188 26 view .LVU304
	ldr	r1, .L85+100
	ldr	r0, .L85+96
	.loc 1 187 21 discriminator 1 view .LVU305
	strb	r3, [r4, #29]
	.loc 1 188 3 is_stmt 1 view .LVU306
	.loc 1 188 26 is_stmt 0 view .LVU307
	bl	Gui_Button
.LVL98:
	mov	r3, r0
	.loc 1 189 18 view .LVU308
	ldr	r1, .L85+104
	ldr	r0, .L85+96
	.loc 1 188 24 discriminator 1 view .LVU309
	strb	r3, [r4, #30]
	.loc 1 189 3 is_stmt 1 view .LVU310
	.loc 1 189 18 is_stmt 0 view .LVU311
	bl	Gui_Button
.LVL99:
	.loc 1 189 16 discriminator 1 view .LVU312
	strb	r0, [r4, #31]
	.loc 1 190 3 is_stmt 1 view .LVU313
	bl	Gui_EndRow
.LVL100:
.LBE24:
	.loc 1 220 1 is_stmt 0 view .LVU314
	add	sp, sp, #308
	.cfi_remember_state
	.cfi_def_cfa_offset 36
	@ sp needed
	pop	{r4, r5, r6, r7, r8, r9, r10, fp, pc}
.LVL101:
.L82:
	.cfi_restore_state
	.loc 1 192 3 is_stmt 1 view .LVU315
	mov	r1, #10
	mov	r0, r7
	bl	Gui_Offset
.LVL102:
	.loc 1 193 3 view .LVU316
	bl	SpriteBatch_GetWidth
.LVL103:
	.loc 1 193 3 is_stmt 0 discriminator 1 view .LVU317
	mov	r1, r6
	bl	Gui_BeginRow
.LVL104:
	.loc 1 194 3 is_stmt 1 view .LVU318
	ldr	ip, .L85+108
	mov	r3, r6
	ldr	r2, .L85+44
	str	ip, [sp]
	mov	r1, r6
	mov	r0, #0
	bl	Gui_Label
.LVL105:
	.loc 1 195 3 view .LVU319
	bl	Gui_EndRow
.LVL106:
	.loc 1 196 3 view .LVU320
	vldr.32	s0, .L85+24
	bl	Gui_RelativeHeight
.LVL107:
	.loc 1 196 3 is_stmt 0 discriminator 1 view .LVU321
	bl	Gui_VerticalSpace
.LVL108:
	.loc 1 197 3 is_stmt 1 view .LVU322
	vldr.32	s0, .L85+32
	bl	Gui_RelativeWidth
.LVL109:
	.loc 1 197 3 is_stmt 0 discriminator 1 view .LVU323
	mov	r1, r5
	bl	Gui_BeginRowCenter
.LVL110:
	.loc 1 198 3 is_stmt 1 view .LVU324
	.loc 1 198 23 is_stmt 0 view .LVU325
	ldr	r1, .L85+112
	ldr	r0, .L85+116
	bl	Gui_Button
.LVL111:
	.loc 1 199 3 view .LVU326
	vldr.32	s0, .L85+36
	.loc 1 198 21 discriminator 1 view .LVU327
	strb	r0, [r4, #32]
	.loc 1 199 3 is_stmt 1 view .LVU328
	bl	Gui_Space
.LVL112:
	.loc 1 200 3 view .LVU329
	.loc 1 200 24 is_stmt 0 view .LVU330
	ldr	r1, .L85+120
	ldr	r0, .L85+116
	bl	Gui_Button
.LVL113:
	.loc 1 200 22 discriminator 1 view .LVU331
	strb	r0, [r4, #33]
	.loc 1 201 3 is_stmt 1 view .LVU332
	.loc 1 220 1 is_stmt 0 view .LVU333
	add	sp, sp, #308
	.cfi_remember_state
	.cfi_def_cfa_offset 36
	@ sp needed
	pop	{r4, r5, r6, r7, r8, r9, r10, fp, lr}
	.cfi_restore 14
	.cfi_restore 11
	.cfi_restore 10
	.cfi_restore 9
	.cfi_restore 8
	.cfi_restore 7
	.cfi_restore 6
	.cfi_restore 5
	.cfi_restore 4
	.cfi_def_cfa_offset 0
.LVL114:
	.loc 1 201 3 view .LVU334
	b	Gui_EndRow
.LVL115:
.L86:
	.align	2
.L85:
	.word	1061158912
	.word	981668463
	.word	1056964608
	.word	-1046478848
	.word	1063675494
	.word	1036831949
	.word	1053609165
	.word	1064514355
	.word	1061997773
	.word	1045220557
	.word	.LANCHOR0
	.word	32767
	.word	12684
	.word	.LANCHOR1
	.word	.LC4
	.word	21140
	.word	-1049624576
	.word	.LC12
	.word	1055286886
	.word	.LANCHOR2
	.word	.LC13
	.word	.LC14
	.word	.LC5
	.word	.LC6
	.word	1051260355
	.word	.LC7
	.word	.LC8
	.word	.LC9
	.word	.LC10
	.word	1053609165
	.word	.LC11
	.word	1097859072
	.word	1101004800
	.word	-1165815185
	.word	1061158912
.LVL116:
.L50:
	.cfi_restore_state
.LBB25:
	.loc 1 156 163 discriminator 4 view .LVU335
	vldr.32	s13, .L85+128
	vcmpe.f32	s14, s13
	vmrs	APSR_nzcv, FPSCR
	bmi	.L52
	.loc 1 158 3 is_stmt 1 view .LVU336
	.loc 1 158 10 is_stmt 0 view .LVU337
	vldr.32	s15, [r4, #24]	@ int
	vcvt.f32.s32	s15, s15
	vadd.f32	s15, s15, s13
	vcvt.s32.f32	s15, s15
	.loc 1 159 12 view .LVU338
	ldr	r3, .L85+124
	.loc 1 158 10 view .LVU339
	vstr.32	s15, [r4, #24]	@ int
	.loc 1 159 3 is_stmt 1 view .LVU340
	.loc 1 160 3 view .LVU341
	.loc 1 159 12 is_stmt 0 view .LVU342
	str	r3, [r4, #20]	@ float
	.loc 1 158 10 view .LVU343
	vmov	r3, s15	@ int
	b	.L51
.L84:
	.loc 1 160 6 discriminator 4 view .LVU344
	vldr.32	s15, .L85+132
	vcmpe.f32	s13, s15
	vmrs	APSR_nzcv, FPSCR
	bgt	.L55
	b	.L51
.L52:
	.loc 1 159 12 view .LVU345
	vldr.32	s13, .L85+136
	vmul.f32	s13, s14, s13
	b	.L49
.LBE25:
	.cfi_endproc
.LFE362:
	.size	SelectWorldScreen, .-SelectWorldScreen
	.section	.rodata.str1.4
	.align	2
.LC15:
	.ascii	"Enter the world name\000"
	.align	2
.LC16:
	.ascii	"sdmc:/craftus_redesigned/saves/%s\000"
	.section	.text.SelectWorldScreen_Update,"ax",%progbits
	.align	2
	.global	SelectWorldScreen_Update
	.syntax unified
	.arm
	.type	SelectWorldScreen_Update, %function
SelectWorldScreen_Update:
.LVL117:
.LFB363:
	.loc 1 222 108 is_stmt 1 view -0
	.cfi_startproc
	@ args = 0, pretend = 0, frame = 512
	@ frame_needed = 0, uses_anonymous_args = 0
	.loc 1 223 2 view .LVU347
	.loc 1 222 108 is_stmt 0 view .LVU348
	push	{r4, r5, r6, r7, r8, r9, r10, fp, lr}
	.cfi_def_cfa_offset 36
	.cfi_offset 4, -36
	.cfi_offset 5, -32
	.cfi_offset 6, -28
	.cfi_offset 7, -24
	.cfi_offset 8, -20
	.cfi_offset 9, -16
	.cfi_offset 10, -12
	.cfi_offset 11, -8
	.cfi_offset 14, -4
	.loc 1 223 5 view .LVU349
	ldr	r4, .L143
	.loc 1 222 108 view .LVU350
	mov	r6, r0
	.loc 1 223 4 view .LVU351
	ldrb	ip, [r4, #31]	@ zero_extendqisi2
	.loc 1 222 108 view .LVU352
	mov	r5, r1
	.loc 1 223 4 view .LVU353
	cmp	ip, #0
	.loc 1 222 108 view .LVU354
	mov	r7, r2
	mov	r8, r3
	sub	sp, sp, #516
	.cfi_def_cfa_offset 552
	.loc 1 223 4 view .LVU355
	bne	.L138
.LVL118:
.L88:
	.loc 1 226 2 is_stmt 1 view .LVU356
	.loc 1 226 5 is_stmt 0 view .LVU357
	ldrb	r3, [r4, #29]	@ zero_extendqisi2
	cmp	r3, #0
	.loc 1 227 3 is_stmt 1 view .LVU358
	.loc 1 227 21 is_stmt 0 view .LVU359
	movne	r3, #0
	strbne	r3, [r4, #29]
	.loc 1 228 3 is_stmt 1 view .LVU360
	.loc 1 228 13 is_stmt 0 view .LVU361
	movne	r3, #2
	strbne	r3, [r4, #16]
	.loc 1 230 2 is_stmt 1 view .LVU362
	.loc 1 230 5 is_stmt 0 view .LVU363
	ldrb	r3, [r4, #35]	@ zero_extendqisi2
	cmp	r3, #0
	bne	.L139
.LVL119:
.L90:
	.loc 1 283 2 is_stmt 1 view .LVU364
	.loc 1 283 5 is_stmt 0 view .LVU365
	ldrb	r3, [r4, #28]	@ zero_extendqisi2
	cmp	r3, #0
	bne	.L140
	.loc 1 292 2 is_stmt 1 view .LVU366
	.loc 1 292 5 is_stmt 0 view .LVU367
	ldrb	r2, [r4, #30]	@ zero_extendqisi2
	cmp	r2, #0
	beq	.L102
	.loc 1 292 44 discriminator 1 view .LVU368
	ldr	r2, .L143+4
	.loc 1 292 27 discriminator 1 view .LVU369
	ldr	r2, [r2]
	cmn	r2, #1
	.loc 1 293 3 is_stmt 1 view .LVU370
	.loc 1 294 13 is_stmt 0 view .LVU371
	movne	r2, #1
	.loc 1 293 24 view .LVU372
	strbne	r3, [r4, #30]
	.loc 1 294 3 is_stmt 1 view .LVU373
	.loc 1 294 13 is_stmt 0 view .LVU374
	strbne	r2, [r4, #16]
.L102:
	.loc 1 296 2 is_stmt 1 view .LVU375
	.loc 1 296 5 is_stmt 0 view .LVU376
	ldrb	r3, [r4, #33]	@ zero_extendqisi2
	cmp	r3, #0
	bne	.L141
.LVL120:
.L103:
	.loc 1 305 2 is_stmt 1 view .LVU377
	.loc 1 305 5 is_stmt 0 view .LVU378
	ldrb	r3, [r4, #32]	@ zero_extendqisi2
	cmp	r3, #0
	.loc 1 306 3 is_stmt 1 view .LVU379
	.loc 1 306 21 is_stmt 0 view .LVU380
	movne	r3, #0
	strbne	r3, [r4, #32]
	.loc 1 307 3 is_stmt 1 view .LVU381
	.loc 1 307 13 is_stmt 0 view .LVU382
	strbne	r3, [r4, #16]
	.loc 1 309 2 is_stmt 1 view .LVU383
	.loc 1 309 5 is_stmt 0 view .LVU384
	ldrb	r3, [r4, #34]	@ zero_extendqisi2
	cmp	r3, #0
	.loc 1 310 3 is_stmt 1 view .LVU385
	.loc 1 310 26 is_stmt 0 view .LVU386
	movne	r3, #0
	strbne	r3, [r4, #34]
	.loc 1 311 3 is_stmt 1 view .LVU387
	.loc 1 311 13 is_stmt 0 view .LVU388
	strbne	r3, [r4, #16]
.L107:
	.loc 1 314 8 view .LVU389
	mov	r0, #0
	.loc 1 315 1 view .LVU390
	add	sp, sp, #516
	.cfi_remember_state
	.cfi_def_cfa_offset 36
	@ sp needed
	pop	{r4, r5, r6, r7, r8, r9, r10, fp, pc}
.LVL121:
.L140:
	.cfi_restore_state
	.loc 1 283 36 discriminator 1 view .LVU391
	ldr	r3, .L143+4
	ldr	r3, [r3]
	.loc 1 283 19 discriminator 1 view .LVU392
	cmn	r3, #1
	beq	.L102
	.loc 1 284 3 is_stmt 1 view .LVU393
	.loc 1 284 16 is_stmt 0 view .LVU394
	mov	r7, #0
	.loc 1 285 31 view .LVU395
	ldr	r1, [r4]
	add	r3, r3, r3, lsl #4
	add	r1, r1, r3, lsl #4
	.loc 1 285 3 view .LVU396
	mov	r0, r5
	add	r1, r1, #4
	.loc 1 285 31 view .LVU397
	lsl	r5, r3, #4
.LVL122:
	.loc 1 284 16 view .LVU398
	strb	r7, [r4, #28]
	.loc 1 285 3 is_stmt 1 view .LVU399
	bl	strcpy
.LVL123:
	.loc 1 286 3 view .LVU400
	.loc 1 286 36 is_stmt 0 view .LVU401
	ldr	r1, [r4]
	.loc 1 286 3 view .LVU402
	mov	r0, r6
	.loc 1 286 36 view .LVU403
	add	r1, r1, r5
	.loc 1 286 3 view .LVU404
	add	r1, r1, #16
	bl	strcpy
.LVL124:
	.loc 1 288 3 is_stmt 1 view .LVU405
	.loc 1 288 13 is_stmt 0 view .LVU406
	strb	r7, [r8]
	.loc 1 289 3 is_stmt 1 view .LVU407
	.loc 1 289 13 is_stmt 0 view .LVU408
	strb	r7, [r4, #16]
	.loc 1 290 3 is_stmt 1 view .LVU409
.L100:
.LBB26:
.LBB27:
	.loc 1 280 10 is_stmt 0 view .LVU410
	mov	r0, #1
.LBE27:
.LBE26:
	.loc 1 315 1 view .LVU411
	add	sp, sp, #516
	.cfi_remember_state
	.cfi_def_cfa_offset 36
	@ sp needed
	pop	{r4, r5, r6, r7, r8, r9, r10, fp, pc}
.LVL125:
.L139:
	.cfi_restore_state
.LBB38:
	.loc 1 231 3 is_stmt 1 view .LVU412
	.loc 1 231 27 is_stmt 0 view .LVU413
	mov	r9, #0
	.loc 1 232 14 view .LVU414
	ldr	r3, .L143+4
	.loc 1 239 3 view .LVU415
	mov	r2, #2
	.loc 1 232 14 view .LVU416
	ldrb	r3, [r3, #4]	@ zero_extendqisi2
	.loc 1 239 3 view .LVU417
	mov	r1, #3
	.loc 1 232 14 view .LVU418
	strb	r3, [r7]
	.loc 1 239 3 view .LVU419
	ldr	r0, .L143+8
	mov	r3, #12
	.loc 1 231 27 view .LVU420
	strb	r9, [r4, #35]
	.loc 1 232 3 is_stmt 1 view .LVU421
	.loc 1 235 3 view .LVU422
	.loc 1 236 3 view .LVU423
	.loc 1 239 3 view .LVU424
	bl	swkbdInit
.LVL126:
	.loc 1 240 3 view .LVU425
.LBB31:
.LBI31:
	.file 2 "C:/devkitPro/libctru/include/3ds/applets/swkbd.h"
	.loc 2 213 20 view .LVU426
.LBB32:
	.loc 2 215 2 view .LVU427
	.loc 2 215 21 is_stmt 0 view .LVU428
	mov	r3, #2
.LBE32:
.LBE31:
	.loc 1 241 3 view .LVU429
	ldr	r1, .L143+12
	ldr	r0, .L143+8
.LBB34:
.LBB33:
	.loc 2 215 21 view .LVU430
	str	r3, [r4, #44]
	.loc 2 216 2 is_stmt 1 view .LVU431
	.loc 2 216 22 is_stmt 0 view .LVU432
	str	r9, [r4, #60]
	.loc 2 217 2 is_stmt 1 view .LVU433
	.loc 2 217 20 is_stmt 0 discriminator 4 view .LVU434
	strh	r9, [r4, #72]	@ movhi
.LVL127:
	.loc 2 217 20 discriminator 4 view .LVU435
.LBE33:
.LBE34:
	.loc 1 241 3 is_stmt 1 view .LVU436
	bl	swkbdSetHintText
.LVL128:
	.loc 1 243 3 view .LVU437
	.loc 1 243 16 is_stmt 0 view .LVU438
	ldr	r1, .L143+16
	mov	r2, #12
	sub	r0, r1, #1024
	bl	swkbdInputText
.LVL129:
	mov	r7, r0
.LVL130:
	.loc 1 249 3 is_stmt 1 view .LVU439
	ldr	r1, .L143+16
	mov	r0, r5
	bl	stpcpy
.LVL131:
	.loc 1 251 6 is_stmt 0 view .LVU440
	cmp	r7, #2
	.loc 1 250 13 view .LVU441
	strb	r9, [r4, #16]
	.loc 1 250 3 is_stmt 1 view .LVU442
	.loc 1 251 3 view .LVU443
	.loc 1 251 6 is_stmt 0 view .LVU444
	bne	.L90
.LBB35:
	.loc 1 252 4 is_stmt 1 view .LVU445
.LBE35:
	.loc 1 249 3 is_stmt 0 view .LVU446
	sub	r9, r0, r5
.LBB36:
	.loc 1 252 4 view .LVU447
	mov	r1, r5
	mov	r0, r6
	add	r2, r9, #1
	bl	memcpy
.LVL132:
	.loc 1 254 4 is_stmt 1 view .LVU448
	.loc 1 256 4 view .LVU449
.LBB28:
	.loc 1 256 9 view .LVU450
	.loc 1 256 22 discriminator 1 view .LVU451
	cmp	r9, #0
	beq	.L91
	sub	r1, r6, #1
	.loc 1 260 23 is_stmt 0 view .LVU452
	mov	r7, #95
.LVL133:
	.loc 1 260 23 view .LVU453
	ldr	r5, .L143+20
.LVL134:
	.loc 1 260 23 view .LVU454
	add	lr, r1, r9
	b	.L95
.LVL135:
.L142:
	.loc 1 260 23 view .LVU455
	cmp	r3, #61
	bhi	.L93
	cmp	r2, #13
	bhi	.L94
	tst	ip, #1
	beq	.L94
.L93:
	strb	r7, [r1]
.L94:
	.loc 1 256 33 is_stmt 1 discriminator 2 view .LVU456
	.loc 1 256 22 discriminator 1 view .LVU457
	cmp	r1, lr
	beq	.L91
.L95:
	.loc 1 257 5 view .LVU458
	.loc 1 260 6 view .LVU459
	.loc 1 257 22 is_stmt 0 view .LVU460
	ldrb	r3, [r1, #1]!	@ zero_extendqisi2
	sub	r2, r3, #47
	uxtb	r2, r2
	cmp	r3, #63
	and	r0, r3, #223
	lsr	ip, r5, r2
	bls	.L142
	cmp	r0, #92
	bne	.L94
	b	.L93
.LVL136:
.L138:
	.loc 1 257 22 view .LVU461
.LBE28:
.LBE36:
.LBE38:
	.loc 1 224 3 is_stmt 1 view .LVU462
	ldr	r1, .L143+24
.LVL137:
	.loc 1 224 3 is_stmt 0 view .LVU463
	ldr	r0, [r4, #12]
.LVL138:
	.loc 1 224 3 view .LVU464
	bl	state_machine_set_current_state
.LVL139:
	.loc 1 224 3 view .LVU465
	b	.L88
.LVL140:
.L141:
.LBB39:
	.loc 1 297 3 is_stmt 1 view .LVU466
	.loc 1 297 22 is_stmt 0 view .LVU467
	mov	r5, #0
.LVL141:
	.loc 1 299 67 view .LVU468
	ldr	r3, .L143+4
	ldr	r2, [r4]
	ldr	r3, [r3]
	.loc 1 299 3 view .LVU469
	ldr	r1, .L143+28
	.loc 1 299 67 view .LVU470
	add	r3, r3, r3, lsl #4
	add	r2, r2, r3, lsl #4
	.loc 1 299 3 view .LVU471
	add	r2, r2, #16
	mov	r0, sp
	.loc 1 297 22 view .LVU472
	strb	r5, [r4, #33]
	.loc 1 298 3 is_stmt 1 view .LVU473
	.loc 1 299 3 view .LVU474
	bl	sprintf
.LVL142:
	.loc 1 300 3 view .LVU475
	mov	r0, sp
	bl	delete_folder
.LVL143:
	.loc 1 302 3 view .LVU476
	bl	SelectWorldScreen_ScanWorlds
.LVL144:
	.loc 1 303 3 view .LVU477
	.loc 1 303 13 is_stmt 0 view .LVU478
	strb	r5, [r4, #16]
	b	.L103
.LVL145:
.L91:
	.loc 1 303 13 view .LVU479
.LBE39:
.LBB40:
.LBB37:
	.loc 1 263 4 is_stmt 1 view .LVU480
.LBB29:
	.loc 1 264 5 view .LVU481
	.loc 1 265 5 view .LVU482
	.loc 1 266 4 view .LVU483
	.loc 1 267 5 view .LVU484
	.loc 1 267 19 is_stmt 0 view .LVU485
	ldr	r7, [r4, #4]
	.loc 1 267 8 view .LVU486
	cmp	r7, #0
	ble	.L96
	.loc 1 273 27 view .LVU487
	mov	r10, #95
	add	r9, r6, r9
.LVL146:
.L99:
	.loc 1 267 73 is_stmt 1 discriminator 4 view .LVU488
	ldr	r5, [r4]
	.loc 1 267 44 is_stmt 0 discriminator 1 view .LVU489
	mov	fp, #0
	add	r5, r5, #16
	b	.L97
.LVL147:
.L98:
	.loc 1 267 73 discriminator 4 view .LVU490
	cmp	fp, r7
	add	r5, r5, #272
.LVL148:
	.loc 1 267 73 discriminator 4 view .LVU491
	beq	.L96
.LVL149:
.L97:
	.loc 1 267 122 is_stmt 1 discriminator 6 view .LVU492
	.loc 1 267 127 is_stmt 0 discriminator 6 view .LVU493
	mov	r1, r5
	mov	r0, r6
	bl	strcmp
.LVL150:
	.loc 1 267 115 is_stmt 1 discriminator 3 view .LVU494
	.loc 1 267 125 is_stmt 0 discriminator 6 view .LVU495
	cmp	r0, #0
	.loc 1 267 115 discriminator 3 view .LVU496
	add	fp, fp, #1
.LVL151:
	.loc 1 267 73 is_stmt 1 discriminator 4 view .LVU497
	.loc 1 267 125 is_stmt 0 discriminator 6 view .LVU498
	bne	.L98
.LVL152:
	.loc 1 271 5 is_stmt 1 view .LVU499
	.loc 1 273 5 view .LVU500
	.loc 1 274 5 view .LVU501
	.loc 1 273 27 is_stmt 0 view .LVU502
	strh	r10, [r9], #1	@ unaligned
	.loc 1 275 5 is_stmt 1 view .LVU503
.LVL153:
	.loc 1 275 5 is_stmt 0 view .LVU504
.LBE29:
	.loc 1 263 10 is_stmt 1 view .LVU505
	.loc 1 263 4 view .LVU506
.LBB30:
	.loc 1 264 5 view .LVU507
	.loc 1 265 5 view .LVU508
	.loc 1 266 4 view .LVU509
	.loc 1 267 5 view .LVU510
	.loc 1 267 19 is_stmt 0 view .LVU511
	ldr	r7, [r4, #4]
	.loc 1 267 8 view .LVU512
	cmp	r7, #0
	bgt	.L99
.LVL154:
.L96:
	.loc 1 267 8 view .LVU513
.LBE30:
	.loc 1 278 4 is_stmt 1 view .LVU514
	.loc 1 278 14 is_stmt 0 view .LVU515
	mov	r3, #1
	strb	r3, [r8]
	.loc 1 280 4 is_stmt 1 view .LVU516
	.loc 1 280 10 is_stmt 0 view .LVU517
	b	.L100
.L144:
	.align	2
.L143:
	.word	.LANCHOR0
	.word	.LANCHOR1
	.word	.LANCHOR0+36
	.word	.LC15
	.word	.LANCHOR0+1060
	.word	10241
	.word	TitleScreen
	.word	.LC16
.LBE37:
.LBE40:
	.cfi_endproc
.LFE363:
	.size	SelectWorldScreen_Update, .-SelectWorldScreen_Update
	.section	.rodata.str1.4
	.align	2
.LC17:
	.ascii	"Smea\000"
	.align	2
.LC18:
	.ascii	"Superflat\000"
	.section	.rodata
	.align	2
	.set	.LANCHOR2,. + 0
	.type	worldGenTypesStr, %object
	.size	worldGenTypesStr, 8
worldGenTypesStr:
	.word	.LC17
	.word	.LC18
	.data
	.align	2
	.set	.LANCHOR1,. + 0
	.type	selectedWorld, %object
	.size	selectedWorld, 4
selectedWorld:
	.word	-1
	.type	worldGenType, %object
	.size	worldGenType, 1
worldGenType:
	.byte	1
	.bss
	.align	2
	.set	.LANCHOR0,. + 0
	.type	worlds, %object
	.size	worlds, 12
worlds:
	.space	12
	.type	machine, %object
	.size	machine, 4
machine:
	.space	4
	.type	menustate, %object
	.size	menustate, 1
menustate:
	.space	1
	.space	3
	.type	velocity, %object
	.size	velocity, 4
velocity:
	.space	4
	.type	scroll, %object
	.size	scroll, 4
scroll:
	.space	4
	.type	clicked_play, %object
	.size	clicked_play, 1
clicked_play:
	.space	1
	.type	clicked_new_world, %object
	.size	clicked_new_world, 1
clicked_new_world:
	.space	1
	.type	clicked_delete_world, %object
	.size	clicked_delete_world, 1
clicked_delete_world:
	.space	1
	.type	clicked_back, %object
	.size	clicked_back, 1
clicked_back:
	.space	1
	.type	canceled_deletion, %object
	.size	canceled_deletion, 1
canceled_deletion:
	.space	1
	.type	confirmed_deletion, %object
	.size	confirmed_deletion, 1
confirmed_deletion:
	.space	1
	.type	canceled_world_options, %object
	.size	canceled_world_options, 1
canceled_world_options:
	.space	1
	.type	confirmed_world_options, %object
	.size	confirmed_world_options, 1
confirmed_world_options:
	.space	1
	.type	swkbd.1, %object
	.size	swkbd.1, 1024
swkbd.1:
	.space	1024
	.type	name.0, %object
	.size	name.0, 12
name.0:
	.space	12
	.text
.Letext0:
	.file 3 "C:/Users/Elias/CLionProjects/3DSCraft/include/gui/state_machine/state_machine.h"
	.file 4 "C:/devkitPro/devkitARM/arm-none-eabi/include/machine/_default_types.h"
	.file 5 "C:/devkitPro/devkitARM/arm-none-eabi/include/sys/_stdint.h"
	.file 6 "C:/devkitPro/devkitARM/lib/gcc/arm-none-eabi/13.2.0/include/stddef.h"
	.file 7 "C:/devkitPro/devkitARM/arm-none-eabi/include/machine/_types.h"
	.file 8 "C:/devkitPro/libctru/include/3ds/types.h"
	.file 9 "C:/devkitPro/devkitARM/arm-none-eabi/include/sys/types.h"
	.file 10 "C:/Users/Elias/CLionProjects/3DSCraft/include/blocks/Block.h"
	.file 11 "C:/devkitPro/libctru/include/3ds/services/csnd.h"
	.file 12 "C:/devkitPro/libctru/include/3ds/services/ndm.h"
	.file 13 "C:/devkitPro/libctru/include/3ds/gpu/enums.h"
	.file 14 "C:/devkitPro/libctru/include/3ds/ndsp/channel.h"
	.file 15 "C:/devkitPro/libctru/include/3ds/applets/error.h"
	.file 16 "C:/Users/Elias/CLionProjects/3DSCraft/include/world/World.h"
	.file 17 "C:/Users/Elias/CLionProjects/3DSCraft/include/gui/SpriteBatch.h"
	.file 18 "C:/Users/Elias/CLionProjects/3DSCraft/include/blocks/Item.h"
	.file 19 "C:/devkitPro/devkitARM/arm-none-eabi/include/sys/iosupport.h"
	.file 20 "C:/devkitPro/devkitARM/arm-none-eabi/include/sys/dirent.h"
	.file 21 "C:/Users/Elias/CLionProjects/3DSCraft/dependencies/mpack/mpack.h"
	.file 22 "C:/devkitPro/devkitARM/arm-none-eabi/include/sys/unistd.h"
	.file 23 "C:/devkitPro/devkitARM/arm-none-eabi/include/string.h"
	.file 24 "C:/Users/Elias/CLionProjects/3DSCraft/include/gui/Gui.h"
	.file 25 "C:/devkitPro/devkitARM/arm-none-eabi/include/stdlib.h"
	.file 26 "C:/devkitPro/devkitARM/arm-none-eabi/include/dirent.h"
	.file 27 "C:/Users/Elias/CLionProjects/3DSCraft/dependencies/vec/vec.h"
	.file 28 "C:/devkitPro/devkitARM/arm-none-eabi/include/stdio.h"
	.file 29 "<built-in>"