	.arch armv6k
	.fpu vfp
	.eabi_attribute 28, 1
	.eabi_attribute 20, 1
	.eabi_attribute 21, 1
	.eabi_attribute 23, 3
	.eabi_attribute 24, 1
	.eabi_attribute 25, 1
	.eabi_attribute 26, 1
	.eabi_attribute 30, 2
	.eabi_attribute 34, 1
	.eabi_attribute 18, 4
	.file	"SmeaGen.c"
	.text
.Ltext0:
	.cfi_sections	.debug_frame
	.file 1 "C:/Users/Elias/CLionProjects/3DSCraft/source/world/worldgen/SmeaGen.c"
	.section	.text.SmeaGen_Init,"ax",%progbits
	.align	2
	.global	SmeaGen_Init
	.syntax unified
	.arm
	.type	SmeaGen_Init, %function
SmeaGen_Init:
.LVL0:
.LFB130:
	.loc 1 5 47 view -0
	.cfi_startproc
	@ args = 0, pretend = 0, frame = 0
	@ frame_needed = 0, uses_anonymous_args = 0
	@ link register save eliminated.
	.loc 1 5 49 view .LVU1
	.loc 1 5 60 is_stmt 0 view .LVU2
	str	r1, [r0]
	.loc 1 5 69 view .LVU3
	bx	lr
	.cfi_endproc
.LFE130:
	.size	SmeaGen_Init, .-SmeaGen_Init
	.section	.text.SmeaGen_Generate,"ax",%progbits
	.align	2
	.global	SmeaGen_Generate
	.syntax unified
	.arm
	.type	SmeaGen_Generate, %function
SmeaGen_Generate:
.LVL1:
.LFB131:
	.loc 1 8 70 is_stmt 1 view -0
	.cfi_startproc
	@ args = 4, pretend = 0, frame = 16
	@ frame_needed = 0, uses_anonymous_args = 0
	.loc 1 8 70 is_stmt 0 view .LVU5
	push	{r4, r5, r6, r7, r8, r9, r10, fp, lr}
	.cfi_def_cfa_offset 36
	.cfi_offset 4, -36
	.cfi_offset 5, -32
	.cfi_offset 6, -28
	.cfi_offset 7, -24
	.cfi_offset 8, -20
	.cfi_offset 9, -16
	.cfi_offset 10, -12
	.cfi_offset 11, -8
	.cfi_offset 14, -4
	vpush.64	{d8}
	.cfi_def_cfa_offset 44
	.cfi_offset 80, -44
	.cfi_offset 81, -40
.LBB19:
	.loc 1 9 11 view .LVU6
	mov	r6, #0
.LBB20:
.LBB21:
	.loc 1 16 23 view .LVU7
	vldr.32	s16, .L15
	.loc 1 16 93 discriminator 1 view .LVU8
	vldr.32	s17, .L15+4
	mov	r4, r2
.LVL2:
	.loc 1 16 93 discriminator 1 view .LVU9
.LBE21:
.LBE20:
.LBE19:
	.loc 1 9 2 is_stmt 1 view .LVU10
.LBB94:
	.loc 1 9 7 view .LVU11
	.loc 1 9 20 discriminator 1 view .LVU12
.LBB92:
.LBB88:
.LBB22:
.LBB23:
.LBB24:
	.file 2 "C:/Users/Elias/CLionProjects/3DSCraft/include/world/Chunk.h"
	.loc 2 112 47 is_stmt 0 view .LVU13
	mov	r8, #1
.LBE24:
.LBE23:
.LBE22:
.LBE88:
.LBE92:
.LBE94:
	.loc 1 8 70 view .LVU14
	sub	sp, sp, #20
	.cfi_def_cfa_offset 64
	.loc 1 8 70 view .LVU15
	add	r0, sp, #16
.LVL3:
	.loc 1 8 70 view .LVU16
	stmdb	r0, {r1, r2, r3}
	add	r9, r2, #65536
.LVL4:
.L4:
.LBB95:
.LBB93:
	.loc 1 10 21 is_stmt 1 discriminator 1 view .LVU17
	.loc 1 10 12 is_stmt 0 view .LVU18
	mov	r5, #0
	lsl	r7, r6, #4
.LVL5:
.L9:
.LBB89:
	.loc 1 11 4 is_stmt 1 view .LVU19
	.loc 1 12 4 view .LVU20
	.loc 1 14 4 view .LVU21
	.loc 1 15 4 view .LVU22
	.loc 1 16 4 view .LVU23
	.loc 1 12 41 is_stmt 0 view .LVU24
	ldr	r2, [r4, #20]
	.loc 1 11 41 view .LVU25
	ldr	r3, [r4, #16]
	.loc 1 12 25 view .LVU26
	add	r2, r5, r2, lsl #4
	.loc 1 11 25 view .LVU27
	add	r3, r6, r3, lsl #4
	.loc 1 12 25 view .LVU28
	vmov	s1, r2	@ int
	.loc 1 11 25 view .LVU29
	vmov	s0, r3	@ int
	.loc 1 12 10 view .LVU30
	vcvt.f32.s32	s1, s1
	.loc 1 11 10 view .LVU31
	vcvt.f32.s32	s0, s0
	.loc 1 16 23 view .LVU32
	vmul.f32	s1, s1, s16
	vmul.f32	s0, s0, s16
	bl	sino_2d
.LVL6:
	.loc 1 16 93 discriminator 1 view .LVU33
	vmul.f32	s0, s0, s17
	.loc 1 16 17 discriminator 1 view .LVU34
	vcvt.s32.f32	s15, s0
	vmov	lr, s15	@ int
.LBB43:
	.loc 1 19 31 discriminator 1 view .LVU35
	add	r0, lr, #61
	.loc 1 19 22 discriminator 1 view .LVU36
	cmp	r0, #0
	ldrle	r10, [r9, #668]
.LBE43:
	.loc 1 16 8 discriminator 1 view .LVU37
	add	ip, lr, #64
.LVL7:
	.loc 1 19 4 is_stmt 1 view .LVU38
.LBB44:
	.loc 1 19 9 view .LVU39
	.loc 1 19 22 discriminator 1 view .LVU40
	ble	.L6
	.loc 1 19 13 is_stmt 0 view .LVU41
	mov	r1, #0
	ldr	r10, [r9, #668]
.LVL8:
.L7:
	.loc 1 20 5 is_stmt 1 view .LVU42
.LBB40:
.LBI23:
	.loc 2 110 13 view .LVU43
.LBB37:
	.loc 2 111 2 view .LVU44
	.loc 2 111 40 is_stmt 0 view .LVU45
	asr	r3, r1, #4
.LVL9:
	.loc 2 112 2 is_stmt 1 view .LVU46
	.loc 2 112 47 is_stmt 0 view .LVU47
	add	fp, r3, r3, lsl #8
	add	r3, r3, fp, lsl #1
.LVL10:
	.loc 2 112 23 view .LVU48
	and	r2, r1, #15
.LBB25:
.LBB26:
	.loc 2 101 8 view .LVU49
	lsl	fp, r3, #4
.LBE26:
.LBE25:
	.loc 2 112 47 view .LVU50
	add	r3, r7, r3
	add	r3, r3, r2
.LBB32:
.LBB27:
	.loc 2 101 8 view .LVU51
	add	r2, r7, r2
	add	r2, fp, r2, lsl #4
.LBE27:
.LBE32:
	.loc 2 112 47 view .LVU52
	add	r3, r4, r3, lsl #4
.LBB33:
.LBB28:
	.loc 2 101 8 view .LVU53
	add	r2, r4, r2
.LBE28:
.LBE33:
	.loc 2 112 47 view .LVU54
	add	r3, r3, r5
	strb	r8, [r3, #28]
	.loc 2 113 2 is_stmt 1 view .LVU55
.LVL11:
.LBB34:
.LBI25:
	.loc 2 97 13 view .LVU56
.LBB29:
	.loc 2 98 2 view .LVU57
	.loc 2 99 2 view .LVU58
	.loc 2 100 2 view .LVU59
	.loc 2 101 2 view .LVU60
	.loc 2 101 8 is_stmt 0 view .LVU61
	add	r3, r2, r5
	add	r3, r3, #4096
	ldrb	r2, [r3, #28]	@ zero_extendqisi2
	.loc 2 102 2 view .LVU62
	add	fp, r4, fp
	.loc 2 101 8 view .LVU63
	bic	r2, r2, #15
	.loc 2 102 2 view .LVU64
	add	fp, fp, #8192
	.loc 2 101 8 view .LVU65
	strb	r2, [r3, #28]
	.loc 2 102 2 is_stmt 1 view .LVU66
	ldr	r3, [fp, #28]
.LBE29:
.LBE34:
.LBE37:
.LBE40:
	.loc 1 19 37 is_stmt 0 discriminator 3 view .LVU67
	add	r1, r1, #1
.LVL12:
.LBB41:
.LBB38:
.LBB35:
.LBB30:
	.loc 2 102 2 view .LVU68
	add	r3, r3, #1
.LBE30:
.LBE35:
.LBE38:
.LBE41:
	.loc 1 19 22 discriminator 1 view .LVU69
	cmp	r1, r0
.LBB42:
.LBB39:
.LBB36:
.LBB31:
	.loc 2 102 2 view .LVU70
	str	r3, [fp, #28]
	.loc 2 103 2 is_stmt 1 view .LVU71
.LVL13:
	.loc 2 103 2 is_stmt 0 view .LVU72
.LBE31:
.LBE36:
.LBE39:
.LBE42:
	.loc 1 19 37 is_stmt 1 discriminator 3 view .LVU73
	.loc 1 19 22 discriminator 1 view .LVU74
	bne	.L7
	add	r10, r10, #61
	add	r10, r10, lr
.LVL14:
.L6:
	.loc 1 19 22 is_stmt 0 discriminator 1 view .LVU75
.LBE44:
.LBB45:
	.loc 1 22 31 is_stmt 1 discriminator 1 view .LVU76
.LBB46:
.LBB47:
	.loc 2 112 47 is_stmt 0 view .LVU77
	mov	lr, #2
.L8:
	.loc 2 112 47 view .LVU78
.LBE47:
.LBE46:
	.loc 1 23 5 is_stmt 1 view .LVU79
.LVL15:
.LBB65:
.LBI46:
	.loc 2 110 13 view .LVU80
.LBB62:
	.loc 2 111 2 view .LVU81
	.loc 2 111 40 is_stmt 0 view .LVU82
	cmp	r0, #0
	add	r3, r0, #15
	movge	r3, r0
	.loc 2 112 23 view .LVU83
	rsbs	r2, r0, #0
	.loc 2 111 40 view .LVU84
	asr	r3, r3, #4
.LVL16:
	.loc 2 112 2 is_stmt 1 view .LVU85
	.loc 2 112 23 is_stmt 0 view .LVU86
	and	r2, r2, #15
	.loc 2 112 47 view .LVU87
	add	fp, r3, r3, lsl #8
	.loc 2 112 23 view .LVU88
	and	r1, r0, #15
	.loc 2 112 47 view .LVU89
	add	r3, r3, fp, lsl #1
.LVL17:
	.loc 2 112 23 view .LVU90
	rsbpl	r1, r2, #0
.LBB48:
.LBB49:
	.loc 2 101 8 view .LVU91
	lsl	fp, r3, #4
	add	r2, r7, r1
.LBE49:
.LBE48:
	.loc 2 112 47 view .LVU92
	add	r3, r7, r3
.LBB56:
.LBB50:
	.loc 2 101 8 view .LVU93
	add	r2, fp, r2, lsl #4
.LBE50:
.LBE56:
	.loc 2 112 47 view .LVU94
	add	r3, r3, r1
	add	r3, r4, r3, lsl #4
.LBB57:
.LBB51:
	.loc 2 101 8 view .LVU95
	add	r2, r4, r2
.LBE51:
.LBE57:
	.loc 2 112 47 view .LVU96
	add	r3, r3, r5
.LBB58:
.LBB52:
	.loc 2 101 8 view .LVU97
	add	r2, r2, r5
.LBE52:
.LBE58:
	.loc 2 112 47 view .LVU98
	strb	lr, [r3, #28]
	.loc 2 113 2 is_stmt 1 view .LVU99
.LVL18:
.LBB59:
.LBI48:
	.loc 2 97 13 view .LVU100
.LBB53:
	.loc 2 98 2 view .LVU101
	.loc 2 99 2 view .LVU102
	.loc 2 100 2 view .LVU103
	.loc 2 101 2 view .LVU104
	.loc 2 101 8 is_stmt 0 view .LVU105
	add	r2, r2, #4096
	ldrb	r3, [r2, #28]	@ zero_extendqisi2
	.loc 2 102 2 view .LVU106
	add	fp, r4, fp
	.loc 2 101 8 view .LVU107
	bic	r3, r3, #15
	.loc 2 102 2 view .LVU108
	add	fp, fp, #8192
	.loc 2 101 8 view .LVU109
	strb	r3, [r2, #28]
	.loc 2 102 2 is_stmt 1 view .LVU110
	ldr	r3, [fp, #28]
.LBE53:
.LBE59:
.LBE62:
.LBE65:
	.loc 1 22 42 is_stmt 0 discriminator 3 view .LVU111
	add	r0, r0, #1
.LVL19:
.LBB66:
.LBB63:
.LBB60:
.LBB54:
	.loc 2 102 2 view .LVU112
	add	r3, r3, #1
.LBE54:
.LBE60:
.LBE63:
.LBE66:
	.loc 1 22 31 discriminator 1 view .LVU113
	cmp	ip, r0
.LBB67:
.LBB64:
.LBB61:
.LBB55:
	.loc 2 102 2 view .LVU114
	str	r3, [fp, #28]
	.loc 2 103 2 is_stmt 1 view .LVU115
.LVL20:
	.loc 2 103 2 is_stmt 0 view .LVU116
.LBE55:
.LBE61:
.LBE64:
.LBE67:
	.loc 1 22 42 is_stmt 1 discriminator 3 view .LVU117
	.loc 1 22 31 discriminator 1 view .LVU118
	bne	.L8
.LBE45:
	.loc 1 25 4 view .LVU119
.LVL21:
.LBB68:
.LBI68:
	.loc 2 110 13 view .LVU120
.LBB69:
	.loc 2 111 2 view .LVU121
	.loc 2 111 40 is_stmt 0 view .LVU122
	cmp	ip, #0
	add	r3, ip, #15
	movge	r3, ip
	.loc 2 112 47 view .LVU123
	mov	r2, #3
	.loc 2 112 23 view .LVU124
	rsbs	r1, ip, #0
	.loc 2 111 40 view .LVU125
	asr	r3, r3, #4
.LVL22:
	.loc 2 112 2 is_stmt 1 view .LVU126
	.loc 2 112 23 is_stmt 0 view .LVU127
	and	r1, r1, #15
	.loc 2 112 47 view .LVU128
	add	r0, r3, r3, lsl #8
.LVL23:
	.loc 2 112 23 view .LVU129
	and	ip, ip, #15
.LVL24:
	.loc 2 112 47 view .LVU130
	add	r3, r3, r0, lsl #1
.LVL25:
	.loc 2 112 23 view .LVU131
	rsbpl	ip, r1, #0
.LBB70:
.LBB71:
	.loc 2 101 8 view .LVU132
	lsl	r0, r3, #4
	add	r1, r7, ip
.LBE71:
.LBE70:
	.loc 2 112 47 view .LVU133
	add	r3, r7, r3
.LBB78:
.LBB72:
	.loc 2 101 8 view .LVU134
	add	r1, r0, r1, lsl #4
.LBE72:
.LBE78:
	.loc 2 112 47 view .LVU135
	add	r3, r3, ip
	add	r3, r4, r3, lsl #4
.LBB79:
.LBB73:
	.loc 2 101 8 view .LVU136
	add	r1, r4, r1
.LBE73:
.LBE79:
	.loc 2 112 47 view .LVU137
	add	r3, r3, r5
.LBB80:
.LBB74:
	.loc 2 101 8 view .LVU138
	add	r1, r1, r5
.LBE74:
.LBE80:
	.loc 2 112 47 view .LVU139
	strb	r2, [r3, #28]
	.loc 2 113 2 is_stmt 1 view .LVU140
.LVL26:
.LBB81:
.LBI70:
	.loc 2 97 13 view .LVU141
.LBB75:
	.loc 2 98 2 view .LVU142
	.loc 2 99 2 view .LVU143
	.loc 2 100 2 view .LVU144
	.loc 2 101 2 view .LVU145
	.loc 2 101 8 is_stmt 0 view .LVU146
	add	r3, r1, #4096
	ldrb	r2, [r3, #28]	@ zero_extendqisi2
	.loc 2 102 2 view .LVU147
	add	r0, r4, r0
	.loc 2 101 8 view .LVU148
	bic	r2, r2, #15
	strb	r2, [r3, #28]
	.loc 2 102 2 is_stmt 1 view .LVU149
	add	r0, r0, #8192
	ldr	r3, [r0, #28]
.LBE75:
.LBE81:
.LBE69:
.LBE68:
.LBE89:
	.loc 1 10 30 is_stmt 0 discriminator 2 view .LVU150
	add	r5, r5, #1
.LVL27:
.LBB90:
.LBB86:
.LBB84:
.LBB82:
.LBB76:
	.loc 2 103 2 view .LVU151
	add	r10, r10, #4
	.loc 2 102 2 view .LVU152
	add	r3, r3, #1
.LBE76:
.LBE82:
.LBE84:
.LBE86:
.LBE90:
	.loc 1 10 21 discriminator 1 view .LVU153
	cmp	r5, #16
.LBB91:
.LBB87:
.LBB85:
.LBB83:
.LBB77:
	.loc 2 102 2 view .LVU154
	str	r3, [r0, #28]
	.loc 2 103 2 is_stmt 1 view .LVU155
	str	r10, [r9, #668]
.LVL28:
	.loc 2 103 2 is_stmt 0 view .LVU156
.LBE77:
.LBE83:
.LBE85:
.LBE87:
.LBE91:
	.loc 1 10 30 is_stmt 1 discriminator 2 view .LVU157
	.loc 1 10 21 discriminator 1 view .LVU158
	bne	.L9
.LBE93:
	.loc 1 9 29 discriminator 2 view .LVU159
	add	r6, r6, #1
.LVL29:
	.loc 1 9 20 discriminator 1 view .LVU160
	cmp	r6, #16
	bne	.L4
.LBE95:
	.loc 1 28 1 is_stmt 0 view .LVU161
	add	sp, sp, #20
	.cfi_def_cfa_offset 44
	@ sp needed
	vldm	sp!, {d8}
	.cfi_restore 80
	.cfi_restore 81
	.cfi_def_cfa_offset 36
	pop	{r4, r5, r6, r7, r8, r9, r10, fp, pc}
.LVL30:
.L16:
	.loc 1 28 1 view .LVU162
	.align	2
.L15:
	.word	1023410176
	.word	1090519040
	.cfi_endproc
.LFE131:
	.size	SmeaGen_Generate, .-SmeaGen_Generate
	.text
.Letext0:
	.file 3 "C:/devkitPro/devkitARM/arm-none-eabi/include/machine/_default_types.h"
	.file 4 "C:/devkitPro/devkitARM/arm-none-eabi/include/sys/_stdint.h"
	.file 5 "C:/Users/Elias/CLionProjects/3DSCraft/include/blocks/Block.h"
	.file 6 "C:/Users/Elias/CLionProjects/3DSCraft/include/misc/Xorshift.h"
	.file 7 "C:/devkitPro/devkitARM/lib/gcc/arm-none-eabi/13.2.0/include/stddef.h"
	.file 8 "C:/devkitPro/devkitARM/arm-none-eabi/include/sys/lock.h"
	.file 9 "C:/Users/Elias/CLionProjects/3DSCraft/include/rendering/VBOCache.h"
	.file 10 "C:/devkitPro/libctru/include/3ds/synchronization.h"
	.file 11 "C:/Users/Elias/CLionProjects/3DSCraft/include/world/WorkQueue.h"
	.file 12 "C:/Users/Elias/CLionProjects/3DSCraft/include/world/World.h"
	.file 13 "C:/Users/Elias/CLionProjects/3DSCraft/include/world/worldgen/SmeaGen.h"
	.file 14 "C:/Users/Elias/CLionProjects/3DSCraft/dependencies/sino/sino.h"
	.file 15 "C:/devkitPro/libctru/include/3ds/types.h"