	.arch armv6k
	.fpu vfp
	.eabi_attribute 28, 1
	.eabi_attribute 20, 1
	.eabi_attribute 21, 1
	.eabi_attribute 23, 3
	.eabi_attribute 24, 1
	.eabi_attribute 25, 1
	.eabi_attribute 26, 1
	.eabi_attribute 30, 2
	.eabi_attribute 34, 1
	.eabi_attribute 18, 4
	.file	"SpriteBatch.c"
	.text
.Ltext0:
	.cfi_sections	.debug_frame
	.file 1 "C:/Users/Elias/CLionProjects/3DSCraft/source/gui/SpriteBatch.c"
	.section	.text.compareDrawCommands,"ax",%progbits
	.align	2
	.syntax unified
	.arm
	.type	compareDrawCommands, %function
compareDrawCommands:
.LVL0:
.LFB224:
	.loc 1 235 62 view -0
	.cfi_startproc
	@ args = 0, pretend = 0, frame = 0
	@ frame_needed = 0, uses_anonymous_args = 0
	@ link register save eliminated.
	.loc 1 236 2 view .LVU1
	.loc 1 237 2 view .LVU2
	.loc 1 239 2 view .LVU3
	.loc 1 239 24 is_stmt 0 view .LVU4
	ldr	r3, [r1]
	.loc 1 239 11 view .LVU5
	ldr	r2, [r0]
	.loc 1 239 60 view .LVU6
	cmp	r2, r3
	.loc 1 239 46 discriminator 1 view .LVU7
	ldreq	r3, [r1, #4]
	ldreq	r2, [r0, #4]
	subeq	r0, r3, r2
.LVL1:
	.loc 1 239 60 discriminator 1 view .LVU8
	asreq	r0, r0, #3
	addeq	r3, r0, r0, lsl #2
	addeq	r3, r3, r3, lsl #4
	addeq	r3, r3, r3, lsl #8
	addeq	r3, r3, r3, lsl #16
	addeq	r0, r0, r3, lsl #1
	.loc 1 239 60 discriminator 2 view .LVU9
	subne	r0, r3, r2
	.loc 1 240 1 view .LVU10
	bx	lr
	.cfi_endproc
.LFE224:
	.size	compareDrawCommands, .-compareDrawCommands
	.section	.rodata.str1.4,"aMS",%progbits,1
	.align	2
.LC0:
	.ascii	"romfs:/assets/textures/font/ascii.png\000"
	.align	2
.LC1:
	.ascii	"romfs:/assets/textures/gui/widgets.png\000"
	.align	2
.LC2:
	.ascii	"romfs:/assets/textures/gui/options_background.png\000"
	.section	.text.SpriteBatch_Init,"ax",%progbits
	.align	2
	.global	SpriteBatch_Init
	.syntax unified
	.arm
	.type	SpriteBatch_Init, %function
SpriteBatch_Init:
.LVL2:
.LFB212:
	.loc 1 37 41 is_stmt 1 view -0
	.cfi_startproc
	@ args = 0, pretend = 0, frame = 256
	@ frame_needed = 0, uses_anonymous_args = 0
	.loc 1 38 2 view .LVU12
	.loc 1 37 41 is_stmt 0 view .LVU13
	push	{r4, r5, r6, lr}
	.cfi_def_cfa_offset 16
	.cfi_offset 4, -16
	.cfi_offset 5, -12
	.cfi_offset 6, -8
	.cfi_offset 14, -4
	.loc 1 38 2 view .LVU14
	mov	r5, #0
	ldr	r4, .L7+8
	.loc 1 37 41 view .LVU15
	sub	sp, sp, #256
	.cfi_def_cfa_offset 272
	.loc 1 37 41 view .LVU16
	mov	r6, r0
	.loc 1 40 18 view .LVU17
	mov	r0, #3072
.LVL3:
	.loc 1 38 2 view .LVU18
	str	r5, [r4]
	str	r5, [r4, #4]
	str	r5, [r4, #8]
	.loc 1 40 2 is_stmt 1 view .LVU19
	.loc 1 40 18 is_stmt 0 view .LVU20
	bl	linearAlloc
.LVL4:
	mov	r3, r0
	.loc 1 41 18 view .LVU21
	mov	r0, #122880
	.loc 1 40 16 discriminator 1 view .LVU22
	str	r3, [r4, #12]
	.loc 1 41 2 is_stmt 1 view .LVU23
	.loc 1 41 18 is_stmt 0 view .LVU24
	bl	linearAlloc
.LVL5:
	mov	r3, r0
	.loc 1 45 16 view .LVU25
	mov	r0, #280
	.loc 1 41 16 discriminator 1 view .LVU26
	str	r3, [r4, #16]
	.loc 1 43 2 is_stmt 1 view .LVU27
	.loc 1 45 2 view .LVU28
	.loc 1 43 14 is_stmt 0 view .LVU29
	str	r6, [r4, #20]
	.loc 1 45 16 view .LVU30
	bl	malloc
.LVL6:
	.loc 1 46 2 view .LVU31
	ldr	r1, .L7+12
	.loc 1 45 7 discriminator 1 view .LVU32
	str	r0, [r4, #24]
	.loc 1 46 2 is_stmt 1 view .LVU33
	bl	FontLoader_Init
.LVL7:
	.loc 1 47 2 view .LVU34
	add	r0, r4, #28
	ldr	r1, .L7+16
	bl	Texture_Load
.LVL8:
	.loc 1 49 2 view .LVU35
	.loc 1 50 2 view .LVU36
.LBB51:
.LBB52:
	.file 2 "C:/devkitPro/libctru/include/c3d/texture.h"
	.loc 2 96 9 is_stmt 0 view .LVU37
	add	r6, r4, #52
.LVL9:
	.loc 2 96 9 view .LVU38
.LBE52:
.LBE51:
	.loc 1 50 2 view .LVU39
	mov	r2, #256
	mov	r1, #255
	mov	r0, sp
	bl	memset
.LVL10:
	.loc 1 51 2 is_stmt 1 view .LVU40
.LBB54:
.LBI51:
	.loc 2 94 19 view .LVU41
.LBB53:
	.loc 2 96 2 view .LVU42
	.loc 2 96 9 is_stmt 0 view .LVU43
	mov	r1, r5
	mov	r3, #112
	mov	r0, r6
	ldr	r2, .L7+20
	bl	C3D_TexInitWithParams
.LVL11:
	.loc 2 96 9 view .LVU44
.LBE53:
.LBE54:
	.loc 1 52 2 is_stmt 1 view .LVU45
	mov	r3, r5
	mov	r2, r5
	mov	r1, sp
	mov	r0, r6
	bl	C3D_TexLoadImage
.LVL12:
	.loc 1 54 2 view .LVU46
.LBB55:
.LBB56:
.LBB57:
.LBB58:
.LBB59:
	.file 3 "C:/devkitPro/libctru/include/c3d/maths.h"
	.loc 3 290 2 is_stmt 0 view .LVU47
	add	r6, r4, #100
.LBE59:
.LBE58:
.LBE57:
.LBE56:
.LBE55:
	.loc 1 54 2 view .LVU48
	add	r0, r4, #76
	ldr	r1, .L7+24
	bl	Texture_Load
.LVL13:
	.loc 1 56 2 is_stmt 1 view .LVU49
.LBB66:
.LBI55:
	.loc 3 324 20 view .LVU50
	.loc 3 326 2 view .LVU51
.LBB64:
.LBI56:
	.loc 3 311 20 view .LVU52
.LBB62:
	.loc 3 313 2 view .LVU53
.LBB61:
.LBI58:
	.loc 3 288 20 view .LVU54
.LBB60:
	.loc 3 290 2 view .LVU55
	mov	r2, #64
	mov	r1, r5
	mov	r0, r6
	bl	memset
.LVL14:
	.loc 3 290 2 is_stmt 0 view .LVU56
.LBE60:
.LBE61:
	.loc 3 314 2 is_stmt 1 view .LVU57
	.loc 3 314 14 is_stmt 0 view .LVU58
	mov	r3, #1065353216
.LBE62:
.LBE64:
.LBE66:
	.loc 1 57 2 view .LVU59
	mov	r1, r5
	mov	r0, r6
	vldr.32	s0, .L7
.LBB67:
.LBB65:
.LBB63:
	.loc 3 314 14 view .LVU60
	str	r3, [r4, #112]	@ float
	.loc 3 315 2 is_stmt 1 view .LVU61
	.loc 3 315 14 is_stmt 0 view .LVU62
	str	r3, [r4, #124]	@ float
	.loc 3 316 2 is_stmt 1 view .LVU63
	.loc 3 316 14 is_stmt 0 view .LVU64
	str	r3, [r4, #136]	@ float
	.loc 3 317 2 is_stmt 1 view .LVU65
	.loc 3 317 14 is_stmt 0 view .LVU66
	str	r3, [r4, #148]	@ float
.LVL15:
	.loc 3 317 14 view .LVU67
.LBE63:
.LBE65:
.LBE67:
	.loc 1 57 2 is_stmt 1 view .LVU68
	bl	Mtx_RotateY
.LVL16:
	.loc 1 58 2 view .LVU69
	mov	r1, r5
	vldr.32	s0, .L7+4
	mov	r0, r6
	bl	Mtx_RotateX
.LVL17:
	.loc 1 59 1 is_stmt 0 view .LVU70
	add	sp, sp, #256
	.cfi_def_cfa_offset 16
	@ sp needed
	pop	{r4, r5, r6, pc}
.L8:
	.align	2
.L7:
	.word	1061752795
	.word	1057360530
	.word	.LANCHOR0
	.word	.LC0
	.word	.LC1
	.word	1048592
	.word	.LC2
	.cfi_endproc
.LFE212:
	.size	SpriteBatch_Init, .-SpriteBatch_Init
	.section	.text.SpriteBatch_Deinit,"ax",%progbits
	.align	2
	.global	SpriteBatch_Deinit
	.syntax unified
	.arm
	.type	SpriteBatch_Deinit, %function
SpriteBatch_Deinit:
.LFB213:
	.loc 1 60 27 is_stmt 1 view -0
	.cfi_startproc
	@ args = 0, pretend = 0, frame = 0
	@ frame_needed = 0, uses_anonymous_args = 0
	.loc 1 61 2 view .LVU72
	.loc 1 60 27 is_stmt 0 view .LVU73
	push	{r4, lr}
	.cfi_def_cfa_offset 8
	.cfi_offset 4, -8
	.cfi_offset 14, -4
	.loc 1 61 19 view .LVU74
	ldr	r4, .L11
	.loc 1 61 4 view .LVU75
	ldr	r0, [r4]
	bl	free
.LVL18:
	.loc 1 61 28 discriminator 1 view .LVU76
	mov	r3, #0
	.loc 1 62 2 view .LVU77
	ldr	r0, [r4, #12]
	.loc 1 61 28 discriminator 1 view .LVU78
	str	r3, [r4]
	str	r3, [r4, #4]
	str	r3, [r4, #8]
	.loc 1 62 2 is_stmt 1 view .LVU79
	bl	linearFree
.LVL19:
	.loc 1 63 2 view .LVU80
	ldr	r0, [r4, #16]
	bl	linearFree
.LVL20:
	.loc 1 65 2 view .LVU81
	ldr	r0, [r4, #24]
	add	r0, r0, #256
	bl	C3D_TexDelete
.LVL21:
	.loc 1 66 2 view .LVU82
	ldr	r0, [r4, #24]
	bl	free
.LVL22:
	.loc 1 68 2 view .LVU83
	add	r0, r4, #52
	bl	C3D_TexDelete
.LVL23:
	.loc 1 69 2 view .LVU84
	add	r0, r4, #28
	bl	C3D_TexDelete
.LVL24:
	.loc 1 70 2 view .LVU85
	add	r0, r4, #76
	.loc 1 71 1 is_stmt 0 view .LVU86
	pop	{r4, lr}
	.cfi_restore 14
	.cfi_restore 4
	.cfi_def_cfa_offset 0
	.loc 1 70 2 view .LVU87
	b	C3D_TexDelete
.LVL25:
.L12:
	.align	2
.L11:
	.word	.LANCHOR0
	.cfi_endproc
.LFE213:
	.size	SpriteBatch_Deinit, .-SpriteBatch_Deinit
	.section	.text.SpriteBatch_BindTexture,"ax",%progbits
	.align	2
	.global	SpriteBatch_BindTexture
	.syntax unified
	.arm
	.type	SpriteBatch_BindTexture, %function
SpriteBatch_BindTexture:
.LVL26:
.LFB214:
	.loc 1 73 48 is_stmt 1 view -0
	.cfi_startproc
	@ args = 0, pretend = 0, frame = 0
	@ frame_needed = 0, uses_anonymous_args = 0
	@ link register save eliminated.
	.loc 1 73 50 view .LVU89
	.loc 1 73 65 is_stmt 0 view .LVU90
	ldr	r3, .L14
	str	r0, [r3, #164]
	.loc 1 73 76 view .LVU91
	bx	lr
.L15:
	.align	2
.L14:
	.word	.LANCHOR0
	.cfi_endproc
.LFE214:
	.size	SpriteBatch_BindTexture, .-SpriteBatch_BindTexture
	.section	.text.SpriteBatch_BindGuiTexture,"ax",%progbits
	.align	2
	.global	SpriteBatch_BindGuiTexture
	.syntax unified
	.arm
	.type	SpriteBatch_BindGuiTexture, %function
SpriteBatch_BindGuiTexture:
.LVL27:
.LFB215:
	.loc 1 74 53 is_stmt 1 view -0
	.cfi_startproc
	@ args = 0, pretend = 0, frame = 0
	@ frame_needed = 0, uses_anonymous_args = 0
	@ link register save eliminated.
	.loc 1 75 2 view .LVU93
	cmp	r0, #4
	ldrls	pc, [pc, r0, asl #2]
	b	.L16
.L19:
	.word	.L23
	.word	.L22
	.word	.L21
	.word	.L20
	.word	.L18
.L18:
	.loc 1 89 4 view .LVU94
	.loc 1 89 19 is_stmt 0 view .LVU95
	ldr	r3, .L24
	add	r2, r3, #76
	str	r2, [r3, #164]
	.loc 1 90 4 is_stmt 1 view .LVU96
.L16:
	.loc 1 94 1 is_stmt 0 view .LVU97
	bx	lr
.L23:
	.loc 1 77 4 is_stmt 1 view .LVU98
	.loc 1 77 19 is_stmt 0 view .LVU99
	ldr	r3, .L24
	add	r2, r3, #52
	str	r2, [r3, #164]
	.loc 1 78 4 is_stmt 1 view .LVU100
	bx	lr
.L22:
	.loc 1 80 4 view .LVU101
	.loc 1 80 19 is_stmt 0 view .LVU102
	ldr	r2, .L24
	.loc 1 80 21 view .LVU103
	ldr	r3, [r2, #24]
	add	r3, r3, #256
	.loc 1 80 19 view .LVU104
	str	r3, [r2, #164]
	.loc 1 81 4 is_stmt 1 view .LVU105
	bx	lr
.L21:
	.loc 1 86 4 view .LVU106
	.loc 1 86 19 is_stmt 0 view .LVU107
	ldr	r3, .L24
	add	r2, r3, #168
	str	r2, [r3, #164]
	.loc 1 87 4 is_stmt 1 view .LVU108
	bx	lr
.L20:
	.loc 1 83 4 view .LVU109
	.loc 1 83 19 is_stmt 0 view .LVU110
	ldr	r3, .L24
	add	r2, r3, #28
	str	r2, [r3, #164]
	.loc 1 84 4 is_stmt 1 view .LVU111
	bx	lr
.L25:
	.align	2
.L24:
	.word	.LANCHOR0
	.cfi_endproc
.LFE215:
	.size	SpriteBatch_BindGuiTexture, .-SpriteBatch_BindGuiTexture
	.section	.text.SpriteBatch_PushSingleColorQuad,"ax",%progbits
	.align	2
	.global	SpriteBatch_PushSingleColorQuad
	.syntax unified
	.arm
	.type	SpriteBatch_PushSingleColorQuad, %function
SpriteBatch_PushSingleColorQuad:
.LVL28:
.LFB216:
	.loc 1 96 88 view -0
	.cfi_startproc
	@ args = 8, pretend = 0, frame = 0
	@ frame_needed = 0, uses_anonymous_args = 0
	.loc 1 97 2 view .LVU113
.LBB74:
.LBI74:
	.loc 1 73 6 view .LVU114
.LBB75:
	.loc 1 73 50 view .LVU115
.LBE75:
.LBE74:
	.loc 1 96 88 is_stmt 0 view .LVU116
	push	{r4, r5, r6, r7, r8, r9, r10, lr}
	.cfi_def_cfa_offset 32
	.cfi_offset 4, -32
	.cfi_offset 5, -28
	.cfi_offset 6, -24
	.cfi_offset 7, -20
	.cfi_offset 8, -16
	.cfi_offset 9, -12
	.cfi_offset 10, -8
	.cfi_offset 14, -4
.LBB78:
.LBB76:
	.loc 1 73 65 view .LVU117
	ldr	r4, .L29
.LBE76:
.LBE78:
	.loc 1 96 88 view .LVU118
	mov	r7, r2
.LBB79:
.LBB77:
	.loc 1 73 65 view .LVU119
	add	r2, r4, #52
.LVL29:
	.loc 1 73 65 view .LVU120
	str	r2, [r4, #164]
.LVL30:
	.loc 1 73 65 view .LVU121
.LBE77:
.LBE79:
	.loc 1 98 2 is_stmt 1 view .LVU122
	.loc 1 96 88 is_stmt 0 view .LVU123
	mov	r9, r0
	mov	r8, r1
	mov	r5, r3
.LBB80:
.LBB81:
	.loc 1 104 4 view .LVU124
	mov	r0, r4
.LVL31:
	.loc 1 104 4 view .LVU125
	mov	r3, #36
.LVL32:
	.loc 1 104 4 view .LVU126
	add	r2, r4, #8
	add	r1, r4, #4
.LVL33:
	.loc 1 104 4 view .LVU127
.LBE81:
.LBE80:
	.loc 1 96 88 view .LVU128
	ldrsh	r6, [sp, #36]
.LVL34:
.LBB85:
.LBI80:
	.loc 1 103 6 is_stmt 1 view .LVU129
.LBB84:
	.loc 1 104 2 view .LVU130
	.loc 1 104 4 is_stmt 0 view .LVU131
	bl	vec_expand_
.LVL35:
	.loc 1 104 119 discriminator 1 view .LVU132
	cmp	r0, #0
	popne	{r4, r5, r6, r7, r8, r9, r10, pc}
.LVL36:
.LBB82:
.LBI82:
	.loc 1 103 6 is_stmt 1 view .LVU133
.LBB83:
	.loc 1 104 161 is_stmt 0 discriminator 1 view .LVU134
	ldr	r3, .L29+4
	.loc 1 104 224 discriminator 1 view .LVU135
	add	r5, r9, r5
.LVL37:
	.loc 1 104 161 discriminator 1 view .LVU136
	ldrh	r2, [r3]
	.loc 1 104 272 discriminator 1 view .LVU137
	ldr	r3, [sp, #32]
	.loc 1 104 161 discriminator 1 view .LVU138
	smulbb	r9, r9, r2
.LVL38:
	.loc 1 104 272 discriminator 1 view .LVU139
	add	r3, r8, r3
	.loc 1 104 161 discriminator 1 view .LVU140
	smulbb	r5, r5, r2
	smulbb	r8, r8, r2
.LVL39:
	.loc 1 104 161 discriminator 1 view .LVU141
	smulbb	r3, r3, r2
	.loc 1 104 149 discriminator 1 view .LVU142
	ldr	r2, [r4, #4]
	.loc 1 104 132 discriminator 1 view .LVU143
	ldr	ip, [r4]
	.loc 1 104 138 discriminator 1 view .LVU144
	add	r1, r2, r2, lsl #3
	.loc 1 104 157 discriminator 1 view .LVU145
	add	r2, r2, #1
	str	r2, [r4, #4]
	.loc 1 104 161 discriminator 1 view .LVU146
	str	r7, [ip, r1, lsl #2]
	.loc 1 104 138 discriminator 1 view .LVU147
	add	r2, ip, r1, lsl #2
	.loc 1 104 161 discriminator 1 view .LVU148
	ldr	r1, [r4, #164]
	sxth	r9, r9
	str	r1, [r2, #4]
	ldr	r1, .L29+8
	sxth	r5, r5
	sxth	r8, r8
	sxth	r3, r3
	str	r0, [r2, #24]
	strh	r6, [r2, #32]	@ movhi
.LVL40:
	.loc 1 104 161 discriminator 1 view .LVU149
	strh	r9, [r2, #8]	@ movhi
	strh	r8, [r2, #10]	@ movhi
	strh	r5, [r2, #12]	@ movhi
	strh	r8, [r2, #14]	@ movhi
	strh	r9, [r2, #16]	@ movhi
	strh	r3, [r2, #18]	@ movhi
	strh	r5, [r2, #20]	@ movhi
	strh	r3, [r2, #22]	@ movhi
	str	r1, [r2, #28]
.LBE83:
.LBE82:
.LBE84:
.LBE85:
	.loc 1 99 1 view .LVU150
	pop	{r4, r5, r6, r7, r8, r9, r10, pc}
.L30:
	.align	2
.L29:
	.word	.LANCHOR0
	.word	.LANCHOR1
	.word	262148
	.cfi_endproc
.LFE216:
	.size	SpriteBatch_PushSingleColorQuad, .-SpriteBatch_PushSingleColorQuad
	.section	.text.SpriteBatch_PushQuad,"ax",%progbits
	.align	2
	.global	SpriteBatch_PushQuad
	.syntax unified
	.arm
	.type	SpriteBatch_PushQuad, %function
SpriteBatch_PushQuad:
.LVL41:
.LFB217:
	.loc 1 100 94 is_stmt 1 view -0
	.cfi_startproc
	@ args = 20, pretend = 0, frame = 0
	@ frame_needed = 0, uses_anonymous_args = 0
	.loc 1 101 2 view .LVU152
	.loc 1 100 94 is_stmt 0 view .LVU153
	push	{r4, r5, r6, r7, r8, lr}
	.cfi_def_cfa_offset 24
	.cfi_offset 4, -24
	.cfi_offset 5, -20
	.cfi_offset 6, -16
	.cfi_offset 7, -12
	.cfi_offset 8, -8
	.cfi_offset 14, -4
.LBB90:
.LBB91:
	.loc 1 104 4 view .LVU154
	ldr	r5, .L34
.LBE91:
.LBE90:
	.loc 1 100 94 view .LVU155
	mov	r8, r0
	mov	r6, r2
	mov	r4, r3
.LBB97:
.LBB94:
	.loc 1 104 4 view .LVU156
	mov	r0, r5
.LVL42:
	.loc 1 104 4 view .LVU157
	mov	r3, #36
.LVL43:
	.loc 1 104 4 view .LVU158
.LBE94:
.LBE97:
	.loc 1 100 94 view .LVU159
	mov	r7, r1
.LBB98:
.LBB95:
	.loc 1 104 4 view .LVU160
	add	r2, r5, #8
.LVL44:
	.loc 1 104 4 view .LVU161
.LBE95:
.LBI90:
	.loc 1 103 6 is_stmt 1 view .LVU162
.LBB96:
	.loc 1 104 2 view .LVU163
	.loc 1 104 4 is_stmt 0 view .LVU164
	add	r1, r5, #4
.LVL45:
	.loc 1 104 4 view .LVU165
	bl	vec_expand_
.LVL46:
	.loc 1 104 119 discriminator 1 view .LVU166
	cmp	r0, #0
	popne	{r4, r5, r6, r7, r8, pc}
.LVL47:
.LBB92:
.LBI92:
	.loc 1 103 6 is_stmt 1 view .LVU167
.LBB93:
	.loc 1 104 161 is_stmt 0 discriminator 1 view .LVU168
	mvn	r1, #32768
	ldr	r3, .L34+4
	.loc 1 104 224 discriminator 1 view .LVU169
	add	r4, r8, r4
.LVL48:
	.loc 1 104 161 discriminator 1 view .LVU170
	ldrh	r2, [r3]
	.loc 1 104 272 discriminator 1 view .LVU171
	ldr	r3, [sp, #24]
	.loc 1 104 161 discriminator 1 view .LVU172
	smulbb	r8, r8, r2
.LVL49:
	.loc 1 104 272 discriminator 1 view .LVU173
	add	r3, r7, r3
	.loc 1 104 161 discriminator 1 view .LVU174
	smulbb	r4, r4, r2
	smulbb	r7, r7, r2
.LVL50:
	.loc 1 104 161 discriminator 1 view .LVU175
	smulbb	r3, r3, r2
	.loc 1 104 340 discriminator 1 view .LVU176
	ldr	lr, [sp, #36]
	.loc 1 104 149 discriminator 1 view .LVU177
	ldr	r2, [r5, #4]
	.loc 1 104 340 discriminator 1 view .LVU178
	ldr	r0, [sp, #28]
	.loc 1 104 132 discriminator 1 view .LVU179
	ldr	ip, [r5]
	.loc 1 104 340 discriminator 1 view .LVU180
	add	r0, r0, lr
	.loc 1 104 138 discriminator 1 view .LVU181
	add	lr, r2, r2, lsl #3
	.loc 1 104 157 discriminator 1 view .LVU182
	add	r2, r2, #1
	str	r2, [r5, #4]
	.loc 1 104 138 discriminator 1 view .LVU183
	add	r2, ip, lr, lsl #2
	.loc 1 104 161 discriminator 1 view .LVU184
	str	r6, [ip, lr, lsl #2]
	strh	r1, [r2, #32]	@ movhi
.LVL51:
	.loc 1 104 161 discriminator 1 view .LVU185
	ldr	r1, [r5, #164]
	ldr	ip, [sp, #32]
	str	r1, [r2, #4]
	ldr	r1, [sp, #28]
	uxth	r0, r0
	uxth	r1, r1
	orr	r1, r1, ip, lsl #16
	str	r1, [r2, #24]
	.loc 1 104 349 discriminator 1 view .LVU186
	mov	r1, ip
	ldr	ip, [sp, #40]
	.loc 1 104 161 discriminator 1 view .LVU187
	sxth	r8, r8
	.loc 1 104 349 discriminator 1 view .LVU188
	add	r1, r1, ip
	.loc 1 104 161 discriminator 1 view .LVU189
	sxth	r4, r4
	sxth	r7, r7
	sxth	r3, r3
	orr	r0, r0, r1, lsl #16
	strh	r8, [r2, #8]	@ movhi
	strh	r8, [r2, #16]	@ movhi
	strh	r7, [r2, #10]	@ movhi
	strh	r7, [r2, #14]	@ movhi
	strh	r4, [r2, #12]	@ movhi
	strh	r3, [r2, #18]	@ movhi
	strh	r4, [r2, #20]	@ movhi
	strh	r3, [r2, #22]	@ movhi
	str	r0, [r2, #28]
.LBE93:
.LBE92:
.LBE96:
.LBE98:
	.loc 1 102 1 view .LVU190
	pop	{r4, r5, r6, r7, r8, pc}
.L35:
	.align	2
.L34:
	.word	.LANCHOR0
	.word	.LANCHOR1
	.cfi_endproc
.LFE217:
	.size	SpriteBatch_PushQuad, .-SpriteBatch_PushQuad
	.section	.text.SpriteBatch_PushQuadColor,"ax",%progbits
	.align	2
	.global	SpriteBatch_PushQuadColor
	.syntax unified
	.arm
	.type	SpriteBatch_PushQuadColor, %function
SpriteBatch_PushQuadColor:
.LVL52:
.LFB218:
	.loc 1 103 114 is_stmt 1 view -0
	.cfi_startproc
	@ args = 24, pretend = 0, frame = 0
	@ frame_needed = 0, uses_anonymous_args = 0
	.loc 1 104 2 view .LVU192
	.loc 1 103 114 is_stmt 0 view .LVU193
	push	{r4, r5, r6, r7, r8, r9, r10, lr}
	.cfi_def_cfa_offset 32
	.cfi_offset 4, -32
	.cfi_offset 5, -28
	.cfi_offset 6, -24
	.cfi_offset 7, -20
	.cfi_offset 8, -16
	.cfi_offset 9, -12
	.cfi_offset 10, -8
	.cfi_offset 14, -4
	.loc 1 104 4 view .LVU194
	ldr	r5, .L39
	.loc 1 103 114 view .LVU195
	mov	r9, r0
	mov	r6, r2
	mov	r4, r3
	.loc 1 104 4 view .LVU196
	mov	r0, r5
.LVL53:
	.loc 1 104 4 view .LVU197
	mov	r3, #36
.LVL54:
	.loc 1 103 114 view .LVU198
	mov	r8, r1
	.loc 1 104 4 view .LVU199
	add	r2, r5, #8
.LVL55:
	.loc 1 104 4 view .LVU200
	add	r1, r5, #4
.LVL56:
	.loc 1 103 114 view .LVU201
	ldrsh	r7, [sp, #52]
	.loc 1 104 4 view .LVU202
	bl	vec_expand_
.LVL57:
	.loc 1 104 119 discriminator 1 view .LVU203
	cmp	r0, #0
	popne	{r4, r5, r6, r7, r8, r9, r10, pc}
.LVL58:
.LBB101:
.LBI101:
	.loc 1 103 6 is_stmt 1 view .LVU204
.LBB102:
	.loc 1 104 161 is_stmt 0 discriminator 1 view .LVU205
	ldr	r3, .L39+4
	.loc 1 104 224 discriminator 1 view .LVU206
	add	r4, r9, r4
.LVL59:
	.loc 1 104 161 discriminator 1 view .LVU207
	ldrh	r2, [r3]
	.loc 1 104 272 discriminator 1 view .LVU208
	ldr	r3, [sp, #32]
	.loc 1 104 161 discriminator 1 view .LVU209
	smulbb	r9, r9, r2
.LVL60:
	.loc 1 104 272 discriminator 1 view .LVU210
	add	r3, r8, r3
	.loc 1 104 161 discriminator 1 view .LVU211
	smulbb	r4, r4, r2
	smulbb	r8, r8, r2
.LVL61:
	.loc 1 104 161 discriminator 1 view .LVU212
	smulbb	r3, r3, r2
	.loc 1 104 340 discriminator 1 view .LVU213
	ldr	r1, [sp, #36]
	.loc 1 104 149 discriminator 1 view .LVU214
	ldr	r2, [r5, #4]
	.loc 1 104 340 discriminator 1 view .LVU215
	ldr	r0, [sp, #44]
	.loc 1 104 132 discriminator 1 view .LVU216
	ldr	ip, [r5]
	.loc 1 104 340 discriminator 1 view .LVU217
	add	r0, r1, r0
	.loc 1 104 138 discriminator 1 view .LVU218
	add	r1, r2, r2, lsl #3
	.loc 1 104 157 discriminator 1 view .LVU219
	add	r2, r2, #1
	str	r2, [r5, #4]
	.loc 1 104 161 discriminator 1 view .LVU220
	str	r6, [ip, r1, lsl #2]
	.loc 1 104 138 discriminator 1 view .LVU221
	add	r2, ip, r1, lsl #2
	.loc 1 104 161 discriminator 1 view .LVU222
	ldr	r1, [r5, #164]
	ldr	ip, [sp, #40]
	str	r1, [r2, #4]
	ldr	r1, [sp, #36]
	uxth	r0, r0
	uxth	r1, r1
	orr	r1, r1, ip, lsl #16
	str	r1, [r2, #24]
	.loc 1 104 349 discriminator 1 view .LVU223
	mov	r1, ip
	ldr	ip, [sp, #48]
	.loc 1 104 161 discriminator 1 view .LVU224
	sxth	r9, r9
	.loc 1 104 349 discriminator 1 view .LVU225
	add	r1, r1, ip
	.loc 1 104 161 discriminator 1 view .LVU226
	sxth	r4, r4
	sxth	r8, r8
	sxth	r3, r3
	orr	r0, r0, r1, lsl #16
	strh	r7, [r2, #32]	@ movhi
.LVL62:
	.loc 1 104 161 discriminator 1 view .LVU227
	strh	r9, [r2, #8]	@ movhi
	strh	r9, [r2, #16]	@ movhi
	strh	r8, [r2, #10]	@ movhi
	strh	r8, [r2, #14]	@ movhi
	strh	r4, [r2, #12]	@ movhi
	strh	r3, [r2, #18]	@ movhi
	strh	r4, [r2, #20]	@ movhi
	strh	r3, [r2, #22]	@ movhi
	str	r0, [r2, #28]
.LBE102:
.LBE101:
	.loc 1 106 1 view .LVU228
	pop	{r4, r5, r6, r7, r8, r9, r10, pc}
.L40:
	.align	2
.L39:
	.word	.LANCHOR0
	.word	.LANCHOR1
	.cfi_endproc
.LFE218:
	.size	SpriteBatch_PushQuadColor, .-SpriteBatch_PushQuadColor
	.section	.text.SpriteBatch_PushIcon,"ax",%progbits
	.align	2
	.global	SpriteBatch_PushIcon
	.syntax unified
	.arm
	.type	SpriteBatch_PushIcon, %function
SpriteBatch_PushIcon:
.LVL63:
.LFB219:
	.loc 1 110 79 is_stmt 1 view -0
	.cfi_startproc
	@ args = 4, pretend = 0, frame = 648
	@ frame_needed = 0, uses_anonymous_args = 0
	.loc 1 111 2 view .LVU230
	.loc 1 112 2 view .LVU231
	.loc 1 110 79 is_stmt 0 view .LVU232
	push	{r4, r5, r6, r7, r8, r9, r10, fp, lr}
	.cfi_def_cfa_offset 36
	.cfi_offset 4, -36
	.cfi_offset 5, -32
	.cfi_offset 6, -28
	.cfi_offset 7, -24
	.cfi_offset 8, -20
	.cfi_offset 9, -16
	.cfi_offset 10, -12
	.cfi_offset 11, -8
	.cfi_offset 14, -4
	vpush.64	{d8, d9}
	.cfi_def_cfa_offset 52
	.cfi_offset 80, -52
	.cfi_offset 81, -48
	.cfi_offset 82, -44
	.cfi_offset 83, -40
	mov	lr, r1
	mov	ip, r2
	mov	r4, r0
.LBB103:
.LBB104:
.LBB105:
.LBB106:
	.loc 1 127 8 view .LVU233
	vldr.32	s16, .L54
.LBE106:
.LBE105:
.LBE104:
	.loc 1 113 11 view .LVU234
	mov	r5, #0
	vldr.32	s17, .L54+4
.LBE103:
	.loc 1 110 79 view .LVU235
	sub	sp, sp, #652
	.cfi_def_cfa_offset 704
.LBB152:
.LBB149:
.LBB145:
.LBB139:
	.loc 1 128 17 view .LVU236
	ldr	fp, .L54+12
.LBE139:
.LBE145:
.LBE149:
.LBE152:
	.loc 1 112 2 view .LVU237
	mov	r2, #576
.LVL64:
	.loc 1 112 2 view .LVU238
	ldr	r1, .L54+16
.LVL65:
	.loc 1 112 2 view .LVU239
	add	r0, sp, #72
.LVL66:
	.loc 1 110 79 view .LVU240
	str	r3, [sp, #24]
	str	r4, [sp, #12]
	str	lr, [sp, #16]
	str	ip, [sp, #20]
	ldr	r6, .L54+20
	.loc 1 112 2 view .LVU241
	bl	memcpy
.LVL67:
	.loc 1 113 2 is_stmt 1 view .LVU242
.LBB153:
	.loc 1 113 7 view .LVU243
	.loc 1 113 20 discriminator 1 view .LVU244
.LBB150:
	.loc 1 145 5 is_stmt 0 view .LVU245
	sub	r3, fp, #92
	str	r3, [sp, #28]
	add	r10, sp, #72
.LVL68:
.L43:
	.loc 1 114 3 is_stmt 1 view .LVU246
	.loc 1 114 9 is_stmt 0 view .LVU247
	sub	r4, r5, #3
	bic	r4, r4, #2
	.loc 1 114 50 discriminator 1 view .LVU248
	cmp	r5, #0
	cmpne	r4, #0
	movne	r9, #1
	moveq	r9, #0
	bne	.L48
	.loc 1 115 3 is_stmt 1 view .LVU249
	.loc 1 116 3 view .LVU250
	ldr	r8, [sp, #16]
	ldr	r4, [sp, #12]
	uxtb	r7, r5
	mov	r2, r8
	mov	r1, r7
	mov	r0, r4
	add	r3, sp, #36
	bl	Block_GetTexture
.LVL69:
	.loc 1 121 3 view .LVU251
	.loc 1 122 3 view .LVU252
.LBB146:
.LBB140:
	.loc 1 129 39 is_stmt 0 view .LVU253
	vldr.32	s18, .L54+8
.LBE140:
.LBE146:
	.loc 1 122 3 view .LVU254
	mov	r1, r8
.LBB147:
.LBB141:
	.loc 1 130 59 view .LVU255
	mov	r8, r10
.LBE141:
.LBE147:
	.loc 1 122 3 view .LVU256
	mov	r2, r7
	mov	r0, r4
	add	r3, sp, #32
	bl	Block_GetColor
.LVL70:
	.loc 1 124 3 is_stmt 1 view .LVU257
.LBB148:
	.loc 1 124 8 view .LVU258
	.loc 1 124 21 discriminator 1 view .LVU259
.LBB142:
	.loc 1 129 63 is_stmt 0 discriminator 1 view .LVU260
	ldr	r3, [sp, #20]
	add	r7, r3, #16
	.loc 1 130 64 view .LVU261
	ldr	r3, [sp, #24]
	.loc 1 129 58 discriminator 1 view .LVU262
	uxth	r7, r7
	.loc 1 130 64 view .LVU263
	add	r4, r3, #16
	.loc 1 130 59 view .LVU264
	uxth	r4, r4
.LVL71:
.L45:
	.loc 1 125 4 is_stmt 1 view .LVU265
	.loc 1 126 4 view .LVU266
	.loc 1 127 18 is_stmt 0 view .LVU267
	ldrsh	r3, [r8]
	.loc 1 128 17 view .LVU268
	vldr.32	s0, .L54+4
	.loc 1 127 18 view .LVU269
	vmov	s3, r3	@ int
	.loc 1 127 52 view .LVU270
	ldrsh	r3, [r8, #2]
	.loc 1 127 18 view .LVU271
	vcvt.f32.s32	s3, s3
	.loc 1 127 52 view .LVU272
	vmov	s2, r3	@ int
	.loc 1 127 86 view .LVU273
	ldrsh	r3, [r8, #4]
	.loc 1 127 52 view .LVU274
	vcvt.f32.s32	s2, s2
	.loc 1 127 86 view .LVU275
	vmov	s1, r3	@ int
	vcvt.f32.s32	s1, s1
	.loc 1 127 8 view .LVU276
	vsub.f32	s3, s3, s16
	vsub.f32	s2, s2, s16
	vsub.f32	s1, s1, s16
.LVL72:
.LBB107:
.LBI107:
	.loc 3 161 24 is_stmt 1 view .LVU277
	.loc 3 163 2 view .LVU278
.LBB108:
.LBI108:
	.loc 3 53 24 view .LVU279
	.loc 3 55 2 view .LVU280
	.loc 3 55 2 is_stmt 0 view .LVU281
.LBE108:
.LBE107:
	.loc 1 128 17 view .LVU282
	mov	r0, fp
	vstr.32	s17, [sp, #40]
	vstr.32	s3, [sp, #52]
.LVL73:
	.loc 1 128 4 is_stmt 1 view .LVU283
	vstr.32	s2, [sp, #48]
	vstr.32	s1, [sp, #44]
	.loc 1 128 17 is_stmt 0 view .LVU284
	bl	Mtx_MultiplyFVec3
.LVL74:
	.loc 1 129 25 view .LVU285
	ldr	r3, [r6]
	.loc 1 129 39 view .LVU286
	vmul.f32	s12, s3, s18
	.loc 1 129 25 view .LVU287
	vmov	s15, r3	@ int
	vcvt.f32.s32	s15, s15
	vmul.f32	s12, s12, s15
	.loc 1 130 40 view .LVU288
	vmul.f32	s13, s2, s18
.LBB109:
.LBB110:
	.file 4 "C:/Users/Elias/CLionProjects/3DSCraft/include/misc/NumberUtils.h"
	.loc 4 25 47 view .LVU289
	vcvt.s32.f32	s14, s12
.LBE110:
.LBE109:
	.loc 1 130 26 view .LVU290
	vmul.f32	s13, s13, s15
.LBB117:
.LBB111:
	.loc 4 25 58 view .LVU291
	vcvt.f32.s32	s10, s14
.LBE111:
.LBE117:
.LBB118:
.LBB119:
	.loc 4 25 47 view .LVU292
	vcvt.s32.f32	s15, s13
.LBE119:
.LBE118:
.LBB127:
.LBB112:
	.loc 4 25 58 view .LVU293
	vcmpe.f32	s12, s10
.LBE112:
.LBE127:
.LBB128:
.LBB120:
	vcvt.f32.s32	s11, s15
.LBE120:
.LBE128:
.LBB129:
.LBB113:
	vmrs	APSR_nzcv, FPSCR
.LBE113:
.LBE129:
.LBB130:
.LBB121:
	vcmpe.f32	s13, s11
.LBE121:
.LBE130:
.LBB131:
.LBB114:
	movmi	r2, #1
	movpl	r2, #0
	.loc 4 25 56 view .LVU294
	vmov	r0, s14	@ int
.LBE114:
.LBE131:
.LBB132:
.LBB122:
	.loc 4 25 58 view .LVU295
	vmrs	APSR_nzcv, FPSCR
.LBE122:
.LBE132:
.LBB133:
.LBB115:
	.loc 4 25 56 view .LVU296
	sub	r2, r0, r2
.LBE115:
.LBE133:
	.loc 1 130 59 view .LVU297
	smulbb	r1, r3, r4
	.loc 1 129 58 discriminator 1 view .LVU298
	smlabb	r3, r3, r7, r2
.LBB134:
.LBB123:
	.loc 4 25 56 view .LVU299
	vmov	r2, s15	@ int
.LBE123:
.LBE134:
	.loc 1 129 23 discriminator 1 view .LVU300
	strh	r3, [r8]	@ movhi
.LBB135:
.LBB124:
	.loc 4 25 58 view .LVU301
	movmi	r3, #1
	movpl	r3, #0
.LBE124:
.LBE135:
.LBE142:
	.loc 1 124 27 discriminator 3 view .LVU302
	add	r9, r9, #1
.LVL75:
.LBB143:
.LBB136:
.LBB125:
	.loc 4 25 56 view .LVU303
	sub	r3, r2, r3
.LBE125:
.LBE136:
	.loc 1 130 59 discriminator 1 view .LVU304
	sub	r3, r1, r3
.LBE143:
	.loc 1 124 21 discriminator 1 view .LVU305
	cmp	r9, #5
	add	r8, r8, #16
.LBB144:
	.loc 1 128 17 view .LVU306
	vstr.32	s0, [sp, #56]
	vstr.32	s1, [sp, #60]
	vstr.32	s2, [sp, #64]
	vstr.32	s3, [sp, #68]
	.loc 1 129 4 is_stmt 1 view .LVU307
.LVL76:
.LBB137:
.LBI109:
	.loc 4 25 19 view .LVU308
.LBB116:
	.loc 4 25 40 view .LVU309
	.loc 4 25 40 is_stmt 0 view .LVU310
.LBE116:
.LBE137:
	.loc 1 130 4 is_stmt 1 view .LVU311
.LBB138:
.LBI118:
	.loc 4 25 19 view .LVU312
.LBB126:
	.loc 4 25 40 view .LVU313
	.loc 4 25 40 is_stmt 0 view .LVU314
.LBE126:
.LBE138:
	.loc 1 130 23 discriminator 1 view .LVU315
	strh	r3, [r8, #-14]	@ movhi
.LBE144:
	.loc 1 124 27 is_stmt 1 discriminator 3 view .LVU316
.LVL77:
	.loc 1 124 21 discriminator 1 view .LVU317
	bne	.L45
.LBE148:
	.loc 1 133 3 view .LVU318
	.loc 1 136 15 is_stmt 0 view .LVU319
	ldr	r3, [r10]
	ldr	r8, [r10, #32]
	str	r3, [sp, #4]
	ldr	r3, [r10, #16]
	ldr	r9, [r10, #64]
.LVL78:
	.loc 1 134 3 is_stmt 1 view .LVU320
	.loc 1 135 3 view .LVU321
	.loc 1 136 3 view .LVU322
	.loc 1 138 3 view .LVU323
	.loc 1 136 15 is_stmt 0 view .LVU324
	str	r3, [sp, #8]
	.loc 1 138 22 view .LVU325
	bl	Block_GetTextureMap
.LVL79:
	.loc 1 140 105 view .LVU326
	ldrb	r4, [sp, #32]	@ zero_extendqisi2
	.loc 1 140 73 view .LVU327
	ldrb	r3, [sp, #33]	@ zero_extendqisi2
	.loc 1 140 105 view .LVU328
	lsr	r4, r4, #3
	.loc 1 140 73 view .LVU329
	lsr	r3, r3, #3
	.loc 1 140 105 view .LVU330
	lsl	r4, r4, #10
	.loc 1 140 11 view .LVU331
	orr	r4, r4, r3, lsl #5
	.loc 1 140 38 view .LVU332
	ldrb	r3, [sp, #34]	@ zero_extendqisi2
	.loc 1 141 5 view .LVU333
	cmp	r5, #5
	.loc 1 138 22 view .LVU334
	mov	r7, r0
.LVL80:
	.loc 1 140 3 is_stmt 1 view .LVU335
	.loc 1 140 11 is_stmt 0 view .LVU336
	orr	r4, r4, r3, lsr #3
.LVL81:
	.loc 1 141 3 is_stmt 1 view .LVU337
	.loc 1 141 5 is_stmt 0 view .LVU338
	beq	.L53
	.loc 1 142 8 is_stmt 1 view .LVU339
	.loc 1 142 10 is_stmt 0 view .LVU340
	cmp	r5, #0
	bne	.L47
	.loc 1 142 32 is_stmt 1 discriminator 1 view .LVU341
	.loc 1 142 188 is_stmt 0 discriminator 1 view .LVU342
	asr	r3, r4, #10
	add	r3, r3, r3, lsl #2
	.loc 1 142 193 discriminator 1 view .LVU343
	asr	r2, r3, #3
	.loc 1 142 69 discriminator 1 view .LVU344
	and	r3, r4, #31
	add	r3, r3, r3, lsl #2
	.loc 1 142 94 discriminator 1 view .LVU345
	asr	r4, r4, #5
.LVL82:
	.loc 1 142 126 discriminator 1 view .LVU346
	and	r4, r4, #31
	.loc 1 142 74 discriminator 1 view .LVU347
	lsr	r3, r3, #3
	orr	r3, r3, r2, lsl #10
	.loc 1 142 126 discriminator 1 view .LVU348
	add	r4, r4, r4, lsl #2
	.loc 1 142 131 discriminator 1 view .LVU349
	lsr	r4, r4, #3
	sxth	r3, r3
	.loc 1 142 40 discriminator 1 view .LVU350
	orr	r4, r3, r4, lsl #5
.LVL83:
.L47:
	.loc 1 145 3 is_stmt 1 view .LVU351
	.loc 1 145 5 is_stmt 0 view .LVU352
	ldr	r1, .L54+24
	mov	r3, #36
	ldr	r2, [sp, #28]
	sub	r0, r1, #4
.LVL84:
	.loc 1 145 5 view .LVU353
	bl	vec_expand_
.LVL85:
	.loc 1 145 120 discriminator 1 view .LVU354
	cmp	r0, #0
	bne	.L48
	.loc 1 145 162 discriminator 1 view .LVU355
	ldrsh	r2, [sp, #36]
	.loc 1 145 380 discriminator 1 view .LVU356
	ldrsh	r3, [sp, #38]
	.loc 1 145 162 discriminator 1 view .LVU357
	cmp	r2, #0
	add	r1, r2, #255
	movge	r1, r2
	.loc 1 145 380 discriminator 1 view .LVU358
	cmp	r3, #0
	add	r2, r3, #255
	movge	r2, r3
	.loc 1 145 150 discriminator 1 view .LVU359
	ldr	lr, .L54+28
	.loc 1 145 162 discriminator 1 view .LVU360
	asr	r1, r1, #8
	.loc 1 145 150 discriminator 1 view .LVU361
	ldr	r0, [lr, #4]
	.loc 1 145 133 discriminator 1 view .LVU362
	ldr	r3, [lr]
	.loc 1 145 139 discriminator 1 view .LVU363
	add	ip, r0, r0, lsl #3
	.loc 1 145 158 discriminator 1 view .LVU364
	add	r0, r0, #1
	str	r0, [lr, #4]
	.loc 1 145 162 discriminator 1 view .LVU365
	ldr	r0, [sp, #704]
	.loc 1 145 380 discriminator 1 view .LVU366
	asr	r2, r2, #8
	.loc 1 145 162 discriminator 1 view .LVU367
	str	r0, [r3, ip, lsl #2]
	ldr	r0, [sp, #4]
	.loc 1 145 139 discriminator 1 view .LVU368
	add	r3, r3, ip, lsl #2
	.loc 1 145 162 discriminator 1 view .LVU369
	str	r0, [r3, #16]
	stmib	r3, {r7, r9}
	ldr	r0, [sp, #8]
	strh	r1, [r3, #24]	@ movhi
	strh	r2, [r3, #30]	@ movhi
	.loc 1 145 402 discriminator 1 view .LVU370
	add	r1, r1, #16
	.loc 1 145 380 discriminator 1 view .LVU371
	add	r2, r2, #16
	.loc 1 145 162 discriminator 1 view .LVU372
	str	r8, [r3, #12]
	str	r0, [r3, #20]
	strh	r4, [r3, #32]	@ movhi
	strh	r1, [r3, #28]	@ movhi
	strh	r2, [r3, #26]	@ movhi
.LVL86:
.L48:
	.loc 1 114 74 is_stmt 1 discriminator 2 view .LVU373
.LBE150:
	.loc 1 113 26 discriminator 2 view .LVU374
	add	r5, r5, #1
.LVL87:
	.loc 1 113 20 discriminator 1 view .LVU375
	cmp	r5, #6
	add	r10, r10, #96
	bne	.L43
.LBE153:
	.loc 1 151 1 is_stmt 0 view .LVU376
	add	sp, sp, #652
	.cfi_remember_state
	.cfi_def_cfa_offset 52
	@ sp needed
	vldm	sp!, {d8-d9}
	.cfi_restore 82
	.cfi_restore 83
	.cfi_restore 80
	.cfi_restore 81
	.cfi_def_cfa_offset 36
	pop	{r4, r5, r6, r7, r8, r9, r10, fp, pc}
.LVL88:
.L53:
	.cfi_restore_state
.LBB154:
.LBB151:
	.loc 1 141 28 is_stmt 1 discriminator 1 view .LVU377
	.loc 1 141 184 is_stmt 0 discriminator 1 view .LVU378
	lsr	r3, r4, #10
	rsb	r3, r3, r3, lsl #3
	.loc 1 141 189 discriminator 1 view .LVU379
	asr	r2, r3, #3
	.loc 1 141 65 discriminator 1 view .LVU380
	and	r3, r4, #31
	rsb	r3, r3, r3, lsl #3
	.loc 1 141 90 discriminator 1 view .LVU381
	asr	r4, r4, #5
.LVL89:
	.loc 1 141 122 discriminator 1 view .LVU382
	and	r4, r4, #31
	.loc 1 141 70 discriminator 1 view .LVU383
	asr	r3, r3, #3
	orr	r3, r3, r2, lsl #10
	.loc 1 141 122 discriminator 1 view .LVU384
	rsb	r4, r4, r4, lsl #3
	.loc 1 141 127 discriminator 1 view .LVU385
	asr	r4, r4, #3
	sxth	r3, r3
	.loc 1 141 36 discriminator 1 view .LVU386
	orr	r4, r3, r4, lsl #5
.LVL90:
	.loc 1 141 36 discriminator 1 view .LVU387
	b	.L47
.L55:
	.align	2
.L54:
	.word	1056964608
	.word	0
	.word	1101004800
	.word	.LANCHOR0+100
	.word	cube_sides_lut
	.word	.LANCHOR1
	.word	.LANCHOR0+4
	.word	.LANCHOR0
.LBE151:
.LBE154:
	.cfi_endproc
.LFE219:
	.size	SpriteBatch_PushIcon, .-SpriteBatch_PushIcon
	.section	.text.SpriteBatch_PushTextVargs,"ax",%progbits
	.align	2
	.global	SpriteBatch_PushTextVargs
	.syntax unified
	.arm
	.type	SpriteBatch_PushTextVargs, %function
SpriteBatch_PushTextVargs:
.LVL91:
.LFB221:
	.loc 1 161 131 is_stmt 1 view -0
	.cfi_startproc
	@ args = 20, pretend = 0, frame = 288
	@ frame_needed = 0, uses_anonymous_args = 0
	.loc 1 162 2 view .LVU389
.LBB155:
.LBI155:
	.loc 1 73 6 view .LVU390
.LBB156:
	.loc 1 73 50 view .LVU391
.LBE156:
.LBE155:
	.loc 1 161 131 is_stmt 0 view .LVU392
	push	{r4, r5, r6, r7, r8, r9, r10, fp, lr}
	.cfi_def_cfa_offset 36
	.cfi_offset 4, -36
	.cfi_offset 5, -32
	.cfi_offset 6, -28
	.cfi_offset 7, -24
	.cfi_offset 8, -20
	.cfi_offset 9, -16
	.cfi_offset 10, -12
	.cfi_offset 11, -8
	.cfi_offset 14, -4
	mov	ip, r2
	mov	lr, r0
	sub	sp, sp, #316
	.cfi_def_cfa_offset 352
	.loc 1 161 131 view .LVU393
	ldrb	r2, [sp, #352]	@ zero_extendqisi2
.LVL92:
.LBB159:
.LBB157:
	.loc 1 73 65 view .LVU394
	ldr	r8, .L80
.LBE157:
.LBE159:
	.loc 1 161 131 view .LVU395
	str	r2, [sp, #40]
	.loc 1 162 2 view .LVU396
	ldr	r2, [r8, #24]
	.loc 1 161 131 view .LVU397
	str	r1, [sp, #32]
	.loc 1 162 2 view .LVU398
	add	r2, r2, #256
.LVL93:
.LBB160:
.LBB158:
	.loc 1 73 65 view .LVU399
	str	r2, [r8, #164]
.LVL94:
	.loc 1 73 65 view .LVU400
.LBE158:
.LBE160:
	.loc 1 166 2 is_stmt 1 view .LVU401
	.loc 1 167 2 view .LVU402
	ldr	r1, [sp, #364]
.LVL95:
	.loc 1 167 2 is_stmt 0 view .LVU403
	ldr	r2, [sp, #368]
	add	r0, sp, #56
.LVL96:
	.loc 1 161 131 view .LVU404
	ldr	r9, [sp, #356]
	ldr	fp, [sp, #360]
	str	lr, [sp, #28]
	str	ip, [sp, #24]
	str	r3, [sp, #36]
	.loc 1 167 2 view .LVU405
	bl	vsprintf
.LVL97:
	.loc 1 169 2 is_stmt 1 view .LVU406
	.loc 1 170 2 view .LVU407
	.loc 1 172 2 view .LVU408
	.loc 1 174 2 view .LVU409
	.loc 1 176 2 view .LVU410
	.loc 1 176 15 view .LVU411
	.loc 1 176 9 is_stmt 0 view .LVU412
	ldrb	r0, [sp, #56]	@ zero_extendqisi2
	.loc 1 176 15 view .LVU413
	cmp	r0, #0
	beq	.L67
	.loc 1 172 6 view .LVU414
	mov	r4, #0
	.loc 1 174 8 view .LVU415
	add	r6, sp, #56
.LVL98:
	.loc 1 170 6 view .LVU416
	mov	r7, r4
	.loc 1 169 6 view .LVU417
	mov	r5, r4
	str	fp, [sp, #360]
.LVL99:
	.loc 1 169 6 view .LVU418
	b	.L65
.LVL100:
.L78:
.LBB161:
	.loc 1 178 21 discriminator 1 view .LVU419
	cmp	r3, r9
	blt	.L59
	.loc 1 179 4 is_stmt 1 view .LVU420
	.loc 1 180 13 is_stmt 0 view .LVU421
	cmp	r4, r5
	movlt	r4, r5
.LVL101:
	.loc 1 179 12 view .LVU422
	add	r7, r7, #8
.LVL102:
	.loc 1 180 4 is_stmt 1 view .LVU423
	.loc 1 181 4 view .LVU424
	.loc 1 182 4 view .LVU425
.L60:
	.loc 1 182 23 discriminator 1 view .LVU426
	.loc 1 181 12 is_stmt 0 view .LVU427
	mov	r5, #0
	.loc 1 182 23 discriminator 1 view .LVU428
	sub	r3, r6, #1
.LVL103:
.L61:
	.loc 1 195 3 is_stmt 1 view .LVU429
	.loc 1 195 3 is_stmt 0 view .LVU430
.LBE161:
	.loc 1 176 15 is_stmt 1 view .LVU431
	.loc 1 176 9 is_stmt 0 view .LVU432
	ldrb	r0, [r3, #1]	@ zero_extendqisi2
	.loc 1 176 15 view .LVU433
	cmp	r0, #0
	beq	.L77
.LVL104:
.L65:
.LBB164:
	.loc 1 177 2 is_stmt 1 view .LVU434
	.loc 1 177 37 is_stmt 0 view .LVU435
	ldr	r2, [r8, #24]
	.loc 1 178 6 view .LVU436
	cmp	r0, #10
	.loc 1 177 48 view .LVU437
	ldrb	r3, [r2, r0]	@ zero_extendqisi2
	.loc 1 177 31 view .LVU438
	add	r3, r3, r5
	.loc 1 178 3 is_stmt 1 view .LVU439
	.loc 1 178 6 is_stmt 0 view .LVU440
	bne	.L78
	.loc 1 179 4 is_stmt 1 view .LVU441
	.loc 1 180 13 is_stmt 0 view .LVU442
	cmp	r4, r5
	movlt	r4, r5
.LVL105:
	.loc 1 182 7 view .LVU443
	cmp	r3, r9
	.loc 1 179 12 view .LVU444
	add	r7, r7, #8
.LVL106:
	.loc 1 180 4 is_stmt 1 view .LVU445
	.loc 1 181 4 view .LVU446
	.loc 1 182 4 view .LVU447
	.loc 1 182 7 is_stmt 0 view .LVU448
	bge	.L60
	.loc 1 195 3 view .LVU449
	mov	r3, r6
.LBE164:
	.loc 1 176 9 view .LVU450
	ldrb	r0, [r3, #1]	@ zero_extendqisi2
.LBB165:
	.loc 1 181 12 view .LVU451
	mov	r5, #0
.LVL107:
	.loc 1 195 3 is_stmt 1 view .LVU452
	.loc 1 195 3 is_stmt 0 view .LVU453
.LBE165:
	.loc 1 176 15 is_stmt 1 view .LVU454
	cmp	r0, #0
.LBB166:
	.loc 1 195 3 is_stmt 0 view .LVU455
	add	r6, r6, #1
.LVL108:
	.loc 1 195 3 view .LVU456
.LBE166:
	.loc 1 176 15 view .LVU457
	bne	.L65
.LVL109:
.L77:
	.loc 1 198 11 view .LVU458
	cmp	r5, r4
	movge	r0, r5
	movlt	r0, r4
	ldr	fp, [sp, #360]
.LVL110:
.L57:
	.loc 1 198 2 is_stmt 1 view .LVU459
	.loc 1 200 2 view .LVU460
	.loc 1 200 5 is_stmt 0 view .LVU461
	cmp	fp, #0
	.loc 1 200 20 is_stmt 1 discriminator 1 view .LVU462
	.loc 1 200 37 is_stmt 0 discriminator 1 view .LVU463
	addne	r7, r7, #8
	.loc 1 200 27 discriminator 1 view .LVU464
	strne	r7, [fp]
	.loc 1 202 2 is_stmt 1 view .LVU465
	.loc 1 203 1 is_stmt 0 view .LVU466
	add	sp, sp, #316
	.cfi_remember_state
	.cfi_def_cfa_offset 36
	@ sp needed
	pop	{r4, r5, r6, r7, r8, r9, r10, fp, pc}
.LVL111:
.L59:
	.cfi_restore_state
.LBB167:
	.loc 1 183 10 is_stmt 1 view .LVU467
	.loc 1 183 13 is_stmt 0 view .LVU468
	cmp	r0, #9
	.loc 1 195 3 view .LVU469
	add	fp, r6, #1
	.loc 1 183 13 view .LVU470
	beq	.L79
	.loc 1 186 4 is_stmt 1 view .LVU471
	.loc 1 186 7 is_stmt 0 view .LVU472
	cmp	r0, #32
	beq	.L63
.LBB162:
	.loc 1 187 5 is_stmt 1 view .LVU473
	.loc 1 188 5 is_stmt 0 view .LVU474
	ldr	r3, [sp, #36]
	.loc 1 187 9 view .LVU475
	and	r2, r0, #15
	.loc 1 188 5 view .LVU476
	str	r3, [sp, #20]
	mov	r3, #8
	.loc 1 187 32 view .LVU477
	lsr	r10, r0, #4
	.loc 1 187 9 view .LVU478
	lsl	r2, r2, #3
	.loc 1 187 32 view .LVU479
	lsl	r10, r10, #3
	.loc 1 188 5 view .LVU480
	stmib	sp, {r2, r10}
	.loc 1 187 9 view .LVU481
	str	r2, [sp, #52]
.LVL112:
	.loc 1 188 5 is_stmt 1 view .LVU482
	ldr	r2, [sp, #28]
.LVL113:
	.loc 1 188 5 is_stmt 0 view .LVU483
	str	r3, [sp, #16]
	add	r0, r2, r5
	ldr	r2, [sp, #32]
	str	r3, [sp, #12]
	add	r1, r2, r7
	str	r3, [sp]
	ldr	r2, [sp, #24]
	strd	r0, [sp, #44]
	bl	SpriteBatch_PushQuadColor
.LVL114:
	.loc 1 189 5 is_stmt 1 view .LVU484
	.loc 1 189 8 is_stmt 0 view .LVU485
	ldrd	r0, [sp, #44]
	ldr	r3, [sp, #40]
	cmp	r3, #0
	mov	r3, #8
	bne	.L64
.L76:
.LBE162:
	.loc 1 193 19 view .LVU486
	ldr	r2, [r8, #24]
.LVL115:
.L63:
	.loc 1 193 4 is_stmt 1 view .LVU487
	.loc 1 193 31 is_stmt 0 view .LVU488
	ldrb	r3, [r6]	@ zero_extendqisi2
	.loc 1 193 30 view .LVU489
	ldrb	r3, [r2, r3]	@ zero_extendqisi2
	.loc 1 193 12 view .LVU490
	add	r5, r5, r3
.LVL116:
	.loc 1 193 12 view .LVU491
	mov	r3, r6
	mov	r6, fp
.LVL117:
	.loc 1 193 12 view .LVU492
	b	.L61
.LVL118:
.L79:
	.loc 1 184 4 is_stmt 1 view .LVU493
	.loc 1 184 29 is_stmt 0 view .LVU494
	cmp	r5, #0
	add	r2, r5, #31
	movge	r2, r5
	.loc 1 184 33 view .LVU495
	bic	r2, r2, #31
	mov	r3, r6
	.loc 1 184 12 view .LVU496
	add	r5, r2, #32
.LVL119:
	.loc 1 184 12 view .LVU497
	mov	r6, fp
.LVL120:
	.loc 1 184 12 view .LVU498
	b	.L61
.LVL121:
.L64:
.LBB163:
	.loc 1 190 6 is_stmt 1 view .LVU499
	ldr	r2, [sp, #52]
	str	r10, [sp, #8]
	str	r2, [sp, #4]
	ldr	r2, .L80+4
	str	r3, [sp, #16]
	str	r2, [sp, #20]
	ldr	r2, [sp, #24]
	str	r3, [sp, #12]
	str	r3, [sp]
	add	r1, r1, #1
	add	r0, r0, #1
	sub	r2, r2, #1
	bl	SpriteBatch_PushQuadColor
.LVL122:
	b	.L76
.LVL123:
.L67:
	.loc 1 190 6 is_stmt 0 view .LVU500
.LBE163:
.LBE167:
	.loc 1 170 6 view .LVU501
	mov	r7, r0
	b	.L57
.L81:
	.align	2
.L80:
	.word	.LANCHOR0
	.word	10570
	.cfi_endproc
.LFE221:
	.size	SpriteBatch_PushTextVargs, .-SpriteBatch_PushTextVargs
	.section	.text.SpriteBatch_PushText,"ax",%progbits
	.align	2
	.global	SpriteBatch_PushText
	.syntax unified
	.arm
	.type	SpriteBatch_PushText, %function
SpriteBatch_PushText:
.LVL124:
.LFB220:
	.loc 1 153 118 is_stmt 1 view -0
	.cfi_startproc
	@ args = 16, pretend = 0, frame = 8
	@ frame_needed = 0, uses_anonymous_args = 1
	.loc 1 154 2 view .LVU503
	.loc 1 155 1 view .LVU504
	.loc 1 153 118 is_stmt 0 view .LVU505
	str	lr, [sp, #-4]!
	.cfi_def_cfa_offset 4
	.cfi_offset 14, -4
	sub	sp, sp, #36
	.cfi_def_cfa_offset 40
	.loc 1 153 118 view .LVU506
	ldrb	ip, [sp, #40]	@ zero_extendqisi2
	.loc 1 156 15 view .LVU507
	str	ip, [sp]
	.loc 1 153 118 view .LVU508
	ldr	ip, [sp, #44]
	.loc 1 156 15 view .LVU509
	str	ip, [sp, #4]
	.loc 1 153 118 view .LVU510
	ldr	ip, [sp, #48]
	.loc 1 156 15 view .LVU511
	str	ip, [sp, #8]
	.loc 1 153 118 view .LVU512
	ldr	ip, [sp, #52]
	.loc 1 156 15 view .LVU513
	str	ip, [sp, #12]
	.loc 1 155 1 view .LVU514
	add	ip, sp, #56
.LVL125:
	.loc 1 156 15 view .LVU515
	str	ip, [sp, #16]
	.loc 1 155 1 view .LVU516
	str	ip, [sp, #28]
	.loc 1 156 2 is_stmt 1 view .LVU517
	.loc 1 156 15 is_stmt 0 view .LVU518
	bl	SpriteBatch_PushTextVargs
.LVL126:
	.loc 1 157 1 is_stmt 1 view .LVU519
	.loc 1 158 2 view .LVU520
	.loc 1 159 1 is_stmt 0 view .LVU521
	add	sp, sp, #36
	.cfi_def_cfa_offset 4
	@ sp needed
	ldr	pc, [sp], #4
	.cfi_endproc
.LFE220:
	.size	SpriteBatch_PushText, .-SpriteBatch_PushText
	.section	.text.SpriteBatch_CalcTextWidthVargs,"ax",%progbits
	.align	2
	.global	SpriteBatch_CalcTextWidthVargs
	.syntax unified
	.arm
	.type	SpriteBatch_CalcTextWidthVargs, %function
SpriteBatch_CalcTextWidthVargs:
.LVL127:
.LFB223:
	.loc 1 214 68 is_stmt 1 view -0
	.cfi_startproc
	@ args = 0, pretend = 0, frame = 256
	@ frame_needed = 0, uses_anonymous_args = 0
	.loc 1 215 2 view .LVU523
	.loc 1 216 2 view .LVU524
	.loc 1 214 68 is_stmt 0 view .LVU525
	mov	r3, r0
	str	lr, [sp, #-4]!
	.cfi_def_cfa_offset 4
	.cfi_offset 14, -4
	sub	sp, sp, #260
	.cfi_def_cfa_offset 264
	.loc 1 214 68 view .LVU526
	mov	r2, r1
	.loc 1 216 2 view .LVU527
	mov	r0, sp
.LVL128:
	.loc 1 216 2 view .LVU528
	mov	r1, r3
.LVL129:
	.loc 1 216 2 view .LVU529
	bl	vsprintf
.LVL130:
	.loc 1 218 2 is_stmt 1 view .LVU530
	.loc 1 220 2 view .LVU531
	.loc 1 221 2 view .LVU532
	.loc 1 222 2 view .LVU533
	.loc 1 222 13 view .LVU534
	.loc 1 222 9 is_stmt 0 view .LVU535
	ldrb	r3, [sp]	@ zero_extendqisi2
	.loc 1 222 13 view .LVU536
	cmp	r3, #0
	beq	.L89
	.loc 1 221 6 view .LVU537
	mov	r0, #0
	.loc 1 227 18 view .LVU538
	ldr	r1, .L93
	.loc 1 218 8 view .LVU539
	mov	r2, sp
.LVL131:
	.loc 1 227 18 view .LVU540
	ldr	ip, [r1, #24]
	.loc 1 220 6 view .LVU541
	mov	r1, r0
	b	.L88
.LVL132:
.L86:
	.loc 1 227 29 view .LVU542
	ldrb	r3, [ip, r3]	@ zero_extendqisi2
	.loc 1 227 39 view .LVU543
	add	r2, r2, #1
.LVL133:
	.loc 1 227 11 view .LVU544
	add	r1, r1, r3
.LVL134:
	.loc 1 222 13 is_stmt 1 view .LVU545
	.loc 1 222 9 is_stmt 0 view .LVU546
	ldrb	r3, [r2]	@ zero_extendqisi2
	.loc 1 222 13 view .LVU547
	cmp	r3, #0
	beq	.L92
.LVL135:
.L88:
	.loc 1 223 3 is_stmt 1 view .LVU548
	.loc 1 227 4 view .LVU549
	.loc 1 223 6 is_stmt 0 view .LVU550
	cmp	r3, #10
	bne	.L86
	.loc 1 224 4 is_stmt 1 view .LVU551
	.loc 1 222 9 is_stmt 0 view .LVU552
	ldrb	r3, [r2]	@ zero_extendqisi2
	.loc 1 224 14 view .LVU553
	cmp	r0, r1
	movlt	r0, r1
.LVL136:
	.loc 1 225 4 is_stmt 1 view .LVU554
	.loc 1 222 13 is_stmt 0 view .LVU555
	cmp	r3, #0
	.loc 1 225 11 view .LVU556
	mov	r1, #0
.LVL137:
	.loc 1 222 13 is_stmt 1 view .LVU557
	bne	.L88
.L92:
	.loc 1 230 12 is_stmt 0 view .LVU558
	cmp	r0, r1
	movlt	r0, r1
.LVL138:
	.loc 1 233 1 view .LVU559
	add	sp, sp, #260
	.cfi_remember_state
	.cfi_def_cfa_offset 4
	@ sp needed
	ldr	pc, [sp], #4
.LVL139:
.L89:
	.cfi_restore_state
	.loc 1 222 13 view .LVU560
	mov	r0, r3
	.loc 1 230 2 is_stmt 1 view .LVU561
.LVL140:
	.loc 1 232 2 view .LVU562
	.loc 1 233 1 is_stmt 0 view .LVU563
	add	sp, sp, #260
	.cfi_def_cfa_offset 4
	@ sp needed
	ldr	pc, [sp], #4
.L94:
	.align	2
.L93:
	.word	.LANCHOR0
	.cfi_endproc
.LFE223:
	.size	SpriteBatch_CalcTextWidthVargs, .-SpriteBatch_CalcTextWidthVargs
	.section	.text.SpriteBatch_CalcTextWidth,"ax",%progbits
	.align	2
	.global	SpriteBatch_CalcTextWidth
	.syntax unified
	.arm
	.type	SpriteBatch_CalcTextWidth, %function
SpriteBatch_CalcTextWidth:
.LVL141:
.LFB222:
	.loc 1 205 54 is_stmt 1 view -0
	.cfi_startproc
	@ args = 4, pretend = 16, frame = 8
	@ frame_needed = 0, uses_anonymous_args = 1
	.loc 1 206 2 view .LVU565
	.loc 1 207 1 view .LVU566
	.loc 1 205 54 is_stmt 0 view .LVU567
	push	{r0, r1, r2, r3}
	.cfi_def_cfa_offset 16
	.cfi_offset 0, -16
	.cfi_offset 1, -12
	.cfi_offset 2, -8
	.cfi_offset 3, -4
	str	lr, [sp, #-4]!
	.cfi_def_cfa_offset 20
	.cfi_offset 14, -20
	sub	sp, sp, #12
	.cfi_def_cfa_offset 32
	.loc 1 207 1 view .LVU568
	add	r1, sp, #20
	.loc 1 208 15 view .LVU569
	ldr	r0, [sp, #16]
	.loc 1 207 1 view .LVU570
	str	r1, [sp, #4]
	.loc 1 208 2 is_stmt 1 view .LVU571
	.loc 1 208 15 is_stmt 0 view .LVU572
	bl	SpriteBatch_CalcTextWidthVargs
.LVL142:
	.loc 1 209 1 is_stmt 1 view .LVU573
	.loc 1 211 2 view .LVU574
	.loc 1 212 1 is_stmt 0 view .LVU575
	add	sp, sp, #12
	.cfi_def_cfa_offset 20
	@ sp needed
	ldr	lr, [sp], #4
	.cfi_restore 14
	.cfi_def_cfa_offset 16
	add	sp, sp, #16
	.cfi_restore 3
	.cfi_restore 2
	.cfi_restore 1
	.cfi_restore 0
	.cfi_def_cfa_offset 0
	bx	lr
	.cfi_endproc
.LFE222:
	.size	SpriteBatch_CalcTextWidth, .-SpriteBatch_CalcTextWidth
	.global	__aeabi_idiv
	.section	.text.SpriteBatch_GetWidth,"ax",%progbits
	.align	2
	.global	SpriteBatch_GetWidth
	.syntax unified
	.arm
	.type	SpriteBatch_GetWidth, %function
SpriteBatch_GetWidth:
.LFB225:
	.loc 1 242 28 is_stmt 1 view -0
	.cfi_startproc
	@ args = 0, pretend = 0, frame = 0
	@ frame_needed = 0, uses_anonymous_args = 0
	.loc 1 242 30 view .LVU577
	.loc 1 242 49 is_stmt 0 view .LVU578
	ldr	r2, .L99
	ldr	r3, .L99+4
	.loc 1 242 28 view .LVU579
	push	{r4, lr}
	.cfi_def_cfa_offset 8
	.cfi_offset 4, -8
	.cfi_offset 14, -4
	.loc 1 242 49 view .LVU580
	ldr	r0, [r2, #192]
	ldr	r1, [r3]
	bl	__aeabi_idiv
.LVL143:
	.loc 1 242 61 view .LVU581
	pop	{r4, pc}
.L100:
	.align	2
.L99:
	.word	.LANCHOR0
	.word	.LANCHOR1
	.cfi_endproc
.LFE225:
	.size	SpriteBatch_GetWidth, .-SpriteBatch_GetWidth
	.section	.text.SpriteBatch_GetHeight,"ax",%progbits
	.align	2
	.global	SpriteBatch_GetHeight
	.syntax unified
	.arm
	.type	SpriteBatch_GetHeight, %function
SpriteBatch_GetHeight:
.LFB226:
	.loc 1 243 29 is_stmt 1 view -0
	.cfi_startproc
	@ args = 0, pretend = 0, frame = 0
	@ frame_needed = 0, uses_anonymous_args = 0
	.loc 1 243 31 view .LVU583
	.loc 1 243 51 is_stmt 0 view .LVU584
	ldr	r2, .L103
	ldr	r3, .L103+4
	.loc 1 243 29 view .LVU585
	push	{r4, lr}
	.cfi_def_cfa_offset 8
	.cfi_offset 4, -8
	.cfi_offset 14, -4
	.loc 1 243 51 view .LVU586
	ldr	r0, [r2, #196]
	ldr	r1, [r3]
	bl	__aeabi_idiv
.LVL144:
	.loc 1 243 63 view .LVU587
	pop	{r4, pc}
.L104:
	.align	2
.L103:
	.word	.LANCHOR0
	.word	.LANCHOR1
	.cfi_endproc
.LFE226:
	.size	SpriteBatch_GetHeight, .-SpriteBatch_GetHeight
	.section	.text.SpriteBatch_SetScale,"ax",%progbits
	.align	2
	.global	SpriteBatch_SetScale
	.syntax unified
	.arm
	.type	SpriteBatch_SetScale, %function
SpriteBatch_SetScale:
.LVL145:
.LFB227:
	.loc 1 245 38 is_stmt 1 view -0
	.cfi_startproc
	@ args = 0, pretend = 0, frame = 0
	@ frame_needed = 0, uses_anonymous_args = 0
	@ link register save eliminated.
	.loc 1 245 40 view .LVU589
	.loc 1 245 49 is_stmt 0 view .LVU590
	ldr	r3, .L106
	str	r0, [r3]
	.loc 1 245 58 view .LVU591
	bx	lr
.L107:
	.align	2
.L106:
	.word	.LANCHOR1
	.cfi_endproc
.LFE227:
	.size	SpriteBatch_SetScale, .-SpriteBatch_SetScale
	.section	.text.SpriteBatch_GetScale,"ax",%progbits
	.align	2
	.global	SpriteBatch_GetScale
	.syntax unified
	.arm
	.type	SpriteBatch_GetScale, %function
SpriteBatch_GetScale:
.LFB228:
	.loc 1 246 28 is_stmt 1 view -0
	.cfi_startproc
	@ args = 0, pretend = 0, frame = 0
	@ frame_needed = 0, uses_anonymous_args = 0
	@ link register save eliminated.
	.loc 1 246 30 view .LVU593
	.loc 1 246 37 is_stmt 0 view .LVU594
	ldr	r3, .L109
	.loc 1 246 47 view .LVU595
	ldr	r0, [r3]
	bx	lr
.L110:
	.align	2
.L109:
	.word	.LANCHOR1
	.cfi_endproc
.LFE228:
	.size	SpriteBatch_GetScale, .-SpriteBatch_GetScale
	.section	.text.SpriteBatch_StartFrame,"ax",%progbits
	.align	2
	.global	SpriteBatch_StartFrame
	.syntax unified
	.arm
	.type	SpriteBatch_StartFrame, %function
SpriteBatch_StartFrame:
.LVL146:
.LFB229:
	.loc 1 248 52 is_stmt 1 view -0
	.cfi_startproc
	@ args = 0, pretend = 0, frame = 0
	@ frame_needed = 0, uses_anonymous_args = 0
	@ link register save eliminated.
	.loc 1 249 2 view .LVU597
	.loc 1 249 14 is_stmt 0 view .LVU598
	ldr	r3, .L112
	.loc 1 250 15 view .LVU599
	strd	r0, [r3, #192]
	.loc 1 251 1 view .LVU600
	bx	lr
.L113:
	.align	2
.L112:
	.word	.LANCHOR0
	.cfi_endproc
.LFE229:
	.size	SpriteBatch_StartFrame, .-SpriteBatch_StartFrame
	.section	.text.SpriteBatch_Render,"ax",%progbits
	.align	2
	.global	SpriteBatch_Render
	.syntax unified
	.arm
	.type	SpriteBatch_Render, %function
SpriteBatch_Render:
.LVL147:
.LFB230:
	.loc 1 253 45 is_stmt 1 view -0
	.cfi_startproc
	@ args = 0, pretend = 0, frame = 88
	@ frame_needed = 0, uses_anonymous_args = 0
	.loc 1 254 2 view .LVU602
	.loc 1 253 45 is_stmt 0 view .LVU603
	push	{r4, r5, r6, r7, r8, r9, r10, fp, lr}
	.cfi_def_cfa_offset 36
	.cfi_offset 4, -36
	.cfi_offset 5, -32
	.cfi_offset 6, -28
	.cfi_offset 7, -24
	.cfi_offset 8, -20
	.cfi_offset 9, -16
	.cfi_offset 10, -12
	.cfi_offset 11, -8
	.cfi_offset 14, -4
	.loc 1 254 6 view .LVU604
	ldr	r5, .L126+32
	vldr.64	d6, .L126
	vldr.32	s14, [r5, #200]
	vcvt.f64.f32	d7, s14
	vadd.f64	d7, d7, d6
	.loc 1 253 45 view .LVU605
	vpush.64	{d8, d9}
	.cfi_def_cfa_offset 52
	.cfi_offset 80, -52
	.cfi_offset 81, -48
	.cfi_offset 82, -44
	.cfi_offset 83, -40
	.loc 1 254 6 view .LVU606
	vcvt.f32.f64	s14, d7
	.loc 1 253 45 view .LVU607
	sub	sp, sp, #100
	.cfi_def_cfa_offset 152
	.loc 1 255 2 view .LVU608
	mov	r2, #36
	.loc 1 253 45 view .LVU609
	mov	r4, r0
	.loc 1 255 2 view .LVU610
	ldrd	r0, [r5]
.LVL148:
	.loc 1 255 2 view .LVU611
	ldr	r3, .L126+36
	.loc 1 254 6 view .LVU612
	vstr.32	s14, [r5, #200]
	.loc 1 255 2 is_stmt 1 view .LVU613
	bl	qsort
.LVL149:
	.loc 1 257 2 view .LVU614
	.loc 1 258 2 view .LVU615
	ldr	r3, [r5, #196]
	vldr.32	s3, .L126+16
	vmov	s15, r3	@ int
	ldr	r3, [r5, #192]
	vcvt.f32.s32	s2, s15
	vmov	s15, r3	@ int
	vldr.32	s5, .L126+20
	vldr.32	s4, .L126+24
	vcvt.f32.s32	s1, s15
	vmov.f32	s0, s3
	mov	r1, #0
	add	r0, sp, #32
	str	r3, [sp, #12]
	bl	Mtx_OrthoTilt
.LVL150:
	.loc 1 260 2 view .LVU616
	ldr	r3, [r5, #20]
.LVL151:
.LBB184:
.LBI184:
	.file 5 "C:/devkitPro/libctru/include/c3d/uniforms.h"
	.loc 5 38 20 view .LVU617
	.loc 5 40 2 view .LVU618
.LBB185:
.LBI185:
	.loc 5 30 20 view .LVU619
.LBB186:
	.loc 5 32 2 view .LVU620
	.loc 5 33 2 view .LVU621
.LBB187:
.LBI187:
	.loc 5 15 25 view .LVU622
.LBB188:
	.loc 5 17 2 view .LVU623
	.loc 5 18 2 view .LVU624
	.loc 5 18 16 discriminator 1 view .LVU625
	.loc 5 19 3 view .LVU626
	.loc 5 18 26 discriminator 3 view .LVU627
	.loc 5 18 16 discriminator 1 view .LVU628
	.loc 5 19 3 view .LVU629
	.loc 5 18 26 discriminator 3 view .LVU630
	.loc 5 18 16 discriminator 1 view .LVU631
	.loc 5 19 3 view .LVU632
	.loc 5 18 26 discriminator 3 view .LVU633
	.loc 5 18 16 discriminator 1 view .LVU634
	.loc 5 19 3 view .LVU635
	.loc 5 19 31 is_stmt 0 view .LVU636
	ldr	r2, .L126+40
	ldr	r1, .L126+44
.LBE188:
.LBE187:
	.loc 5 35 10 view .LVU637
	ldr	lr, .L126+48
.LBB190:
.LBB189:
	.loc 5 19 31 view .LVU638
	str	r1, [r2, r3]	@ unaligned
	.loc 5 18 26 is_stmt 1 discriminator 3 view .LVU639
.LVL152:
	.loc 5 18 16 discriminator 1 view .LVU640
	.loc 5 20 2 view .LVU641
	.loc 5 20 2 is_stmt 0 view .LVU642
.LBE189:
.LBE190:
	.loc 5 34 2 is_stmt 1 view .LVU643
	.loc 5 34 16 discriminator 1 view .LVU644
	.loc 5 35 10 is_stmt 0 view .LVU645
	add	lr, lr, r3, lsl #4
.LVL153:
	.loc 5 35 10 view .LVU646
	add	ip, sp, #32
.LVL154:
	.loc 5 35 10 view .LVU647
	ldmia	ip!, {r0, r1, r2, r3}
.LVL155:
	.loc 5 35 10 view .LVU648
	stmia	lr!, {r0, r1, r2, r3}
.LVL156:
	.loc 5 35 10 view .LVU649
	ldmia	ip!, {r0, r1, r2, r3}
	stmia	lr!, {r0, r1, r2, r3}
.LVL157:
	.loc 5 35 10 view .LVU650
	ldmia	ip!, {r0, r1, r2, r3}
	stmia	lr!, {r0, r1, r2, r3}
.LVL158:
	.loc 5 35 10 view .LVU651
	ldm	ip, {r0, r1, r2, r3}
	stm	lr, {r0, r1, r2, r3}
.LVL159:
	.loc 5 35 10 view .LVU652
.LBE186:
.LBE185:
.LBE184:
	.loc 1 262 2 is_stmt 1 view .LVU653
	mov	r2, #31
	mov	r1, #6
	mov	r0, #0
	bl	C3D_DepthTest
.LVL160:
	.loc 1 264 2 view .LVU654
	.loc 1 264 20 is_stmt 0 view .LVU655
	mov	r0, #0
	bl	C3D_GetTexEnv
.LVL161:
.LBB191:
.LBB192:
	.file 6 "C:/devkitPro/libctru/include/c3d/texenv.h"
	.loc 6 35 13 view .LVU656
	mov	r3, #0
	.loc 6 38 13 view .LVU657
	mvn	r2, #0
.LBE192:
.LBE191:
.LBB196:
.LBB197:
	.loc 6 80 16 view .LVU658
	ldr	r1, .L126+52
.LBE197:
.LBE196:
.LBB200:
.LBB201:
	.loc 6 56 15 view .LVU659
	ldr	ip, .L126+56
.LBE201:
.LBE200:
.LBB204:
.LBB198:
	.loc 6 80 16 view .LVU660
	str	r1, [r0, #8]
.LBE198:
.LBE204:
	.loc 1 274 16 view .LVU661
	ldr	r1, [r5, #4]
	.loc 1 269 13 view .LVU662
	add	r4, r5, r4, lsl #2
.LVL162:
	.loc 1 265 2 is_stmt 1 view .LVU663
.LBB205:
.LBI191:
	.loc 6 31 20 view .LVU664
.LBB193:
	.loc 6 33 2 view .LVU665
	.loc 6 34 2 view .LVU666
	.loc 6 35 2 view .LVU667
.LBE193:
.LBE205:
	.loc 1 274 24 is_stmt 0 view .LVU668
	cmp	r1, r3
.LBB206:
.LBB194:
	.loc 6 39 16 view .LVU669
	strd	r2, [r0, #12]
.LBE194:
.LBE206:
	.loc 1 269 13 view .LVU670
	ldr	r7, [r4, #12]
.LBB207:
.LBB202:
	.loc 6 56 15 view .LVU671
	str	ip, [r0]
.LBE202:
.LBE207:
.LBB208:
.LBB195:
	.loc 6 35 13 view .LVU672
	str	r3, [r0, #4]
	.loc 6 36 2 is_stmt 1 view .LVU673
	.loc 6 37 2 view .LVU674
	.loc 6 38 2 view .LVU675
.LVL163:
	.loc 6 38 2 is_stmt 0 view .LVU676
.LBE195:
.LBE208:
	.loc 1 266 2 is_stmt 1 view .LVU677
.LBB209:
.LBI200:
	.loc 6 49 20 view .LVU678
.LBB203:
	.loc 6 54 2 view .LVU679
	.loc 6 55 2 view .LVU680
	.loc 6 56 3 view .LVU681
	.loc 6 57 2 view .LVU682
	.loc 6 58 3 view .LVU683
	.loc 6 58 3 is_stmt 0 view .LVU684
.LBE203:
.LBE209:
	.loc 1 267 2 is_stmt 1 view .LVU685
.LBB210:
.LBI196:
	.loc 6 77 20 view .LVU686
.LBB199:
	.loc 6 79 2 view .LVU687
	.loc 6 80 3 view .LVU688
	.loc 6 81 2 view .LVU689
	.loc 6 82 3 view .LVU690
	.loc 6 82 3 is_stmt 0 view .LVU691
.LBE199:
.LBE210:
	.loc 1 269 2 is_stmt 1 view .LVU692
	.loc 1 271 2 view .LVU693
	.loc 1 273 2 view .LVU694
	.loc 1 274 2 view .LVU695
	.loc 1 274 24 view .LVU696
	ble	.L119
	.loc 1 273 9 is_stmt 0 view .LVU697
	mov	r5, r3
.LBB211:
	.loc 1 278 20 view .LVU698
	vldr.32	s19, .L126+24
	.loc 1 278 9 view .LVU699
	vldr.32	s18, .L126+28
.LBB212:
	.loc 1 287 26 view .LVU700
	mov	r10, r3
.LBE212:
	.loc 1 300 3 view .LVU701
	vldr.64	d8, .L126+8	@ int
.LVL164:
.L115:
	.loc 1 275 3 is_stmt 1 view .LVU702
	.loc 1 277 3 view .LVU703
	.loc 1 277 32 is_stmt 0 view .LVU704
	ldr	r3, .L126+32
	lsl	r4, r5, #1
	ldr	r2, [r3]
	.loc 1 277 38 view .LVU705
	add	r3, r1, r1, lsl #3
	.loc 1 277 12 view .LVU706
	add	r2, r2, r3, lsl #2
	ldr	r0, [r2, #-32]
	add	r3, r5, r5, lsl #1
	.loc 1 278 29 view .LVU707
	ldrh	ip, [r0, #10]
	.loc 1 277 12 view .LVU708
	str	r0, [sp, #16]
.LVL165:
	.loc 1 278 3 is_stmt 1 view .LVU709
	.loc 1 278 69 is_stmt 0 view .LVU710
	ldrh	r0, [r0, #8]
.LVL166:
	.loc 1 278 29 view .LVU711
	vmov	s14, ip	@ int
	.loc 1 278 69 view .LVU712
	vmov	s15, r0	@ int
	.loc 1 278 20 view .LVU713
	vcvt.f32.s32	s14, s14
	.loc 1 278 60 view .LVU714
	vcvt.f32.s32	s15, s15
	.loc 1 278 20 view .LVU715
	vdiv.f32	s10, s19, s14
	.loc 1 278 60 view .LVU716
	vdiv.f32	s11, s19, s15
	.loc 1 278 9 view .LVU717
	vmul.f32	s10, s10, s18
.LVL167:
	.loc 1 278 49 view .LVU718
	vmul.f32	s11, s11, s18
.LVL168:
	.loc 1 280 3 is_stmt 1 view .LVU719
	.loc 1 280 29 view .LVU720
	mov	r8, r5
	add	r3, r7, r3, lsl #2
	str	r7, [sp, #20]
	str	r5, [sp, #24]
	str	r4, [sp, #28]
	b	.L116
.LVL169:
.L118:
.LBB213:
	.loc 1 284 27 is_stmt 0 view .LVU721
	ldrsh	r0, [r2, #-12]
	.loc 1 281 11 view .LVU722
	ldrsh	ip, [r2, #-28]
.LVL170:
	.loc 1 284 27 view .LVU723
	vmov	s12, r0	@ int
	.loc 1 284 65 view .LVU724
	ldrsh	r0, [r2, #-10]
	.loc 1 284 27 view .LVU725
	vcvt.f32.s32	s12, s12
	.loc 1 284 65 view .LVU726
	vmov	s13, r0	@ int
	.loc 1 285 27 view .LVU727
	ldrsh	r0, [r2, #-8]
	.loc 1 284 65 view .LVU728
	vcvt.f32.s32	s13, s13
	.loc 1 285 27 view .LVU729
	vmov	s14, r0	@ int
	.loc 1 284 41 view .LVU730
	vmul.f32	s12, s12, s10
	.loc 1 285 65 view .LVU731
	ldrsh	r0, [r2, #-6]
	.loc 1 285 27 view .LVU732
	vcvt.f32.s32	s14, s14
	.loc 1 285 65 view .LVU733
	vmov	s15, r0	@ int
	.loc 1 284 79 view .LVU734
	vmul.f32	s13, s13, s11
	.loc 1 284 12 view .LVU735
	vcvt.s32.f32	s12, s12
	.loc 1 281 11 view .LVU736
	ldr	lr, .L126+32
	ldrsh	r0, [r2, #-4]
	ldr	r6, [r2, #-16]
	ldrsh	fp, [r2, #-20]
	ldrsh	r9, [r2, #-18]
	ldrsh	r4, [r2, #-24]
	ldrsh	r7, [r2, #-26]
.LVL171:
	.loc 1 285 65 view .LVU737
	vcvt.f32.s32	s15, s15
	.loc 1 281 11 view .LVU738
	str	r1, [lr, #4]
	.loc 1 285 41 view .LVU739
	vmul.f32	s14, s14, s10
	.loc 1 281 11 view .LVU740
	ldrsh	lr, [r2, #-22]
.LVL172:
	.loc 1 282 4 is_stmt 1 view .LVU741
	.loc 1 284 4 view .LVU742
	.loc 1 284 50 is_stmt 0 view .LVU743
	vcvt.s32.f32	s13, s13
	.loc 1 289 26 view .LVU744
	strh	ip, [r3, #24]	@ movhi
.LVL173:
	.loc 1 291 26 view .LVU745
	strh	ip, [r3, #36]	@ movhi
	.loc 1 284 12 view .LVU746
	vmov	ip, s12	@ int
.LVL174:
	.loc 1 288 26 view .LVU747
	strh	r4, [r3, #12]	@ movhi
	.loc 1 285 79 view .LVU748
	vmul.f32	s15, s15, s11
	.loc 1 284 12 view .LVU749
	sxth	r4, ip
.LVL175:
	.loc 1 285 12 view .LVU750
	vcvt.s32.f32	s14, s14
	.loc 1 284 50 view .LVU751
	vmov	ip, s13	@ int
	.loc 1 285 50 view .LVU752
	vcvt.s32.f32	s15, s15
	.loc 1 284 50 view .LVU753
	sxth	r5, ip
.LVL176:
	.loc 1 285 4 is_stmt 1 view .LVU754
	.loc 1 285 12 is_stmt 0 view .LVU755
	vmov	ip, s14	@ int
	.loc 1 288 26 view .LVU756
	strh	lr, [r3, #14]	@ movhi
	.loc 1 293 26 view .LVU757
	asr	lr, r6, #16
.LVL177:
	.loc 1 293 26 view .LVU758
	str	lr, [sp, #12]
	.loc 1 285 12 view .LVU759
	sxth	lr, ip
.LVL178:
	.loc 1 285 50 view .LVU760
	vmov	ip, s15	@ int
	.loc 1 287 26 view .LVU761
	str	r6, [r3]	@ unaligned
	strh	r10, [r3, #4]	@ movhi
	strh	r0, [r3, #10]	@ movhi
	.loc 1 288 26 view .LVU762
	strh	r10, [r3, #16]	@ movhi
	strh	r0, [r3, #22]	@ movhi
	.loc 1 289 26 view .LVU763
	strh	r7, [r3, #26]	@ movhi
	strh	r10, [r3, #28]	@ movhi
	strh	r0, [r3, #34]	@ movhi
	.loc 1 285 50 view .LVU764
	sxth	ip, ip
.LVL179:
	.loc 1 287 4 is_stmt 1 view .LVU765
	.loc 1 288 4 view .LVU766
	.loc 1 289 4 view .LVU767
	.loc 1 291 4 view .LVU768
	.loc 1 289 26 is_stmt 0 view .LVU769
	strh	r4, [r3, #30]	@ movhi
	.loc 1 288 26 view .LVU770
	strh	r5, [r3, #20]	@ movhi
	.loc 1 289 26 view .LVU771
	strh	r5, [r3, #32]	@ movhi
	.loc 1 287 26 view .LVU772
	strh	lr, [r3, #6]	@ movhi
	.loc 1 288 26 view .LVU773
	strh	lr, [r3, #18]	@ movhi
	.loc 1 287 26 view .LVU774
	strh	ip, [r3, #8]	@ movhi
	.loc 1 291 26 view .LVU775
	strh	r7, [r3, #38]	@ movhi
	strh	r4, [r3, #42]	@ movhi
	.loc 1 292 26 view .LVU776
	strh	r4, [r3, #54]	@ movhi
	.loc 1 293 26 view .LVU777
	ldr	r4, [sp, #12]
.LVL180:
	.loc 1 293 26 view .LVU778
.LBE213:
	.loc 1 280 29 view .LVU779
	cmp	r1, #0
	add	r3, r3, #72
.LVL181:
.LBB214:
	.loc 1 293 22 view .LVU780
	add	r8, r8, #6
.LBE214:
	.loc 1 280 29 view .LVU781
	sub	r2, r2, #36
.LBB215:
	.loc 1 291 26 view .LVU782
	strh	r5, [r3, #-28]	@ movhi
	.loc 1 292 26 view .LVU783
	strh	fp, [r3, #-24]	@ movhi
	.loc 1 291 26 view .LVU784
	strh	r10, [r3, #-32]	@ movhi
	strh	r0, [r3, #-26]	@ movhi
	.loc 1 292 4 is_stmt 1 view .LVU785
	.loc 1 292 26 is_stmt 0 view .LVU786
	strh	r9, [r3, #-22]	@ movhi
	strh	r10, [r3, #-20]	@ movhi
	strh	ip, [r3, #-16]	@ movhi
	strh	r0, [r3, #-14]	@ movhi
	.loc 1 293 4 is_stmt 1 view .LVU787
.LVL182:
	.loc 1 293 26 is_stmt 0 view .LVU788
	strh	r6, [r3, #-12]	@ movhi
	strh	r4, [r3, #-10]	@ movhi
	strh	r10, [r3, #-8]	@ movhi
	strh	lr, [r3, #-6]	@ movhi
	strh	ip, [r3, #-4]	@ movhi
	strh	r0, [r3, #-2]	@ movhi
.LVL183:
	.loc 1 293 26 view .LVU789
.LBE215:
	.loc 1 280 29 is_stmt 1 view .LVU790
	beq	.L125
.LVL184:
.L116:
.LBB216:
	.loc 1 281 4 view .LVU791
	.loc 1 281 4 is_stmt 0 view .LVU792
.LBE216:
	.loc 1 280 29 discriminator 1 view .LVU793
	ldr	r0, [r2, #-32]
	ldr	ip, [sp, #16]
.LBB217:
	.loc 1 281 34 view .LVU794
	sub	r1, r1, #1
.LBE217:
	.loc 1 280 29 discriminator 1 view .LVU795
	cmp	r0, ip
	beq	.L118
.L125:
	.loc 1 296 3 is_stmt 1 view .LVU796
	ldr	r1, [sp, #16]
	mov	r0, #0
	.loc 1 302 40 is_stmt 0 view .LVU797
	ldr	r5, [sp, #24]
	ldr	r7, [sp, #20]
	ldr	r4, [sp, #28]
	.loc 1 296 3 view .LVU798
	bl	C3D_TexBind
.LVL185:
	.loc 1 298 3 is_stmt 1 view .LVU799
	.loc 1 298 26 is_stmt 0 view .LVU800
	bl	C3D_GetBufInfo
.LVL186:
	.loc 1 302 40 view .LVU801
	sub	r6, r8, r5
	mov	r9, r8
	.loc 1 298 26 view .LVU802
	mov	r8, r0
.LVL187:
	.loc 1 299 3 is_stmt 1 view .LVU803
	bl	BufInfo_Init
.LVL188:
	.loc 1 300 3 view .LVU804
	mov	r3, #2
	.loc 1 300 39 is_stmt 0 view .LVU805
	add	r1, r4, r5
	.loc 1 300 3 view .LVU806
	add	r1, r7, r1, lsl r3
	mov	r2, #12
	mov	r0, r8
	vstr.64	d8, [sp]	@ int
	bl	BufInfo_Add
.LVL189:
	.loc 1 302 3 is_stmt 1 view .LVU807
	mov	r1, #0
	mov	r2, r6
	mov	r0, r1
	bl	C3D_DrawArrays
.LVL190:
	.loc 1 304 3 view .LVU808
	.loc 1 304 3 is_stmt 0 view .LVU809
.LBE211:
	.loc 1 274 24 is_stmt 1 view .LVU810
	.loc 1 274 16 is_stmt 0 view .LVU811
	ldr	r3, .L126+32
	ldr	r1, [r3, #4]
	.loc 1 274 24 view .LVU812
	cmp	r1, #0
.LVL191:
	.loc 1 274 24 view .LVU813
	movgt	r5, r9
	bgt	.L115
.LVL192:
.L119:
	.loc 1 306 2 is_stmt 1 view .LVU814
	mov	r2, #31
	mov	r1, #6
	mov	r0, #1
	bl	C3D_DepthTest
.LVL193:
	.loc 1 308 2 view .LVU815
	.loc 1 308 17 is_stmt 0 view .LVU816
	mov	r1, #0
	.loc 1 309 11 view .LVU817
	mov	r2, #2
	ldr	r3, .L126+60
	.loc 1 308 17 view .LVU818
	ldr	r0, .L126+32
	.loc 1 309 11 view .LVU819
	str	r2, [r3]
	.loc 1 308 17 view .LVU820
	str	r1, [r0, #164]
	.loc 1 309 2 is_stmt 1 view .LVU821
	.loc 1 310 1 is_stmt 0 view .LVU822
	add	sp, sp, #100
	.cfi_def_cfa_offset 52
	@ sp needed
	vldm	sp!, {d8-d9}
	.cfi_restore 82
	.cfi_restore 83
	.cfi_restore 80
	.cfi_restore 81
	.cfi_def_cfa_offset 36
	pop	{r4, r5, r6, r7, r8, r9, r10, fp, pc}
.L127:
	.align	3
.L126:
	.word	-209982507
	.word	1068158697
	.word	16
	.word	0
	.word	0
	.word	-1082130432
	.word	1065353216
	.word	1191181824
	.word	.LANCHOR0
	.word	compareDrawCommands
	.word	C3D_FVUnifDirty
	.word	16843009
	.word	C3D_FVUnif
	.word	65537
	.word	196611
	.word	.LANCHOR1
	.cfi_endproc
.LFE230:
	.size	SpriteBatch_Render, .-SpriteBatch_Render
	.data
	.align	2
	.set	.LANCHOR1,. + 0
	.type	guiScale, %object
	.size	guiScale, 4
guiScale:
	.word	2
	.bss
	.align	2
	.set	.LANCHOR0,. + 0
	.type	cmdList, %object
	.size	cmdList, 12
cmdList:
	.space	12
	.type	vertexList, %object
	.size	vertexList, 8
vertexList:
	.space	8
	.type	projUniform, %object
	.size	projUniform, 4
projUniform:
	.space	4
	.type	font, %object
	.size	font, 4
font:
	.space	4
	.type	widgetsTex, %object
	.size	widgetsTex, 24
widgetsTex:
	.space	24
	.type	whiteTex, %object
	.size	whiteTex, 24
whiteTex:
	.space	24
	.type	menuBackgroundTex, %object
	.size	menuBackgroundTex, 24
menuBackgroundTex:
	.space	24
	.type	iconModelMtx, %object
	.size	iconModelMtx, 64
iconModelMtx:
	.space	64
	.type	currentTexture, %object
	.size	currentTexture, 4
currentTexture:
	.space	4
	.type	iconsTex, %object
	.size	iconsTex, 24
iconsTex:
	.space	24
	.type	screenWidth, %object
	.size	screenWidth, 4
screenWidth:
	.space	4
	.type	screenHeight, %object
	.size	screenHeight, 4
screenHeight:
	.space	4
	.type	rot, %object
	.size	rot, 4
rot:
	.space	4
	.text
.Letext0:
	.file 7 "C:/devkitPro/devkitARM/arm-none-eabi/include/machine/_default_types.h"
	.file 8 "C:/devkitPro/devkitARM/lib/gcc/arm-none-eabi/13.2.0/include/stddef.h"
	.file 9 "C:/devkitPro/devkitARM/arm-none-eabi/include/sys/_stdint.h"
	.file 10 "C:/Users/Elias/CLionProjects/3DSCraft/include/world/Direction.h"
	.file 11 "C:/Users/Elias/CLionProjects/3DSCraft/include/blocks/Block.h"
	.file 12 "C:/devkitPro/devkitARM/lib/gcc/arm-none-eabi/13.2.0/include/stdarg.h"
	.file 13 "C:/devkitPro/devkitARM/arm-none-eabi/include/stdio.h"
	.file 14 "C:/devkitPro/devkitARM/arm-none-eabi/include/stdlib.h"
	.file 15 "C:/devkitPro/libctru/include/3ds/types.h"
	.file 16 "C:/devkitPro/libctru/include/3ds/gfx.h"
	.file 17 "C:/devkitPro/libctru/include/3ds/services/csnd.h"
	.file 18 "C:/devkitPro/libctru/include/3ds/services/ndm.h"
	.file 19 "C:/devkitPro/libctru/include/3ds/gpu/enums.h"
	.file 20 "C:/devkitPro/libctru/include/3ds/ndsp/channel.h"
	.file 21 "C:/devkitPro/libctru/include/3ds/applets/error.h"
	.file 22 "C:/devkitPro/libctru/include/c3d/types.h"
	.file 23 "C:/devkitPro/libctru/include/c3d/buffers.h"
	.file 24 "C:/Users/Elias/CLionProjects/3DSCraft/include/gui/SpriteBatch.h"
	.file 25 "C:/Users/Elias/CLionProjects/3DSCraft/include/gui/FontLoader.h"
	.file 26 "C:/Users/Elias/CLionProjects/3DSCraft/include/rendering/VertexFmt.h"
	.file 27 "C:/devkitPro/libctru/include/c3d/base.h"
	.file 28 "C:/devkitPro/libctru/include/c3d/effect.h"
	.file 29 "C:/Users/Elias/CLionProjects/3DSCraft/dependencies/vec/vec.h"
	.file 30 "C:/devkitPro/libctru/include/3ds/allocator/linear.h"
	.file 31 "C:/Users/Elias/CLionProjects/3DSCraft/include/rendering/TextureMap.h"
	.file 32 "C:/devkitPro/devkitARM/arm-none-eabi/include/string.h"
	.file 33 "<built-in>"