	.arch armv6k
	.fpu vfp
	.eabi_attribute 28, 1
	.eabi_attribute 20, 1
	.eabi_attribute 21, 1
	.eabi_attribute 23, 3
	.eabi_attribute 24, 1
	.eabi_attribute 25, 1
	.eabi_attribute 26, 1
	.eabi_attribute 30, 2
	.eabi_attribute 34, 1
	.eabi_attribute 18, 4
	.file	"TextureMap.c"
	.text
.Ltext0:
	.cfi_sections	.debug_frame
	.file 1 "C:/Users/Elias/CLionProjects/3DSCraft/source/rendering/TextureMap.c"
	.section	.text.hash,"ax",%progbits
	.align	2
	.global	hash
	.syntax unified
	.arm
	.type	hash, %function
hash:
.LVL0:
.LFB188:
	.loc 1 14 26 view -0
	.cfi_startproc
	@ args = 0, pretend = 0, frame = 0
	@ frame_needed = 0, uses_anonymous_args = 0
	@ link register save eliminated.
	.loc 1 15 2 view .LVU1
	.loc 1 16 2 view .LVU2
	.loc 1 17 2 view .LVU3
	.loc 1 17 9 discriminator 1 view .LVU4
	.loc 1 17 18 is_stmt 0 discriminator 1 view .LVU5
	mov	r2, r0
.LVL1:
	.loc 1 17 14 discriminator 1 view .LVU6
	ldrb	r3, [r2], #1	@ zero_extendqisi2
.LVL2:
	.loc 1 15 16 view .LVU7
	ldr	r0, .L8
	.loc 1 17 9 discriminator 1 view .LVU8
	cmp	r3, #0
	bxeq	lr
.LVL3:
.L3:
	.loc 1 17 23 is_stmt 1 discriminator 2 view .LVU9
	add	r0, r0, r0, lsl #5
.LVL4:
	.loc 1 17 28 is_stmt 0 discriminator 2 view .LVU10
	add	r0, r3, r0
.LVL5:
	.loc 1 17 9 is_stmt 1 discriminator 1 view .LVU11
	.loc 1 17 14 is_stmt 0 discriminator 1 view .LVU12
	ldrb	r3, [r2], #1	@ zero_extendqisi2
.LVL6:
	.loc 1 17 9 discriminator 1 view .LVU13
	cmp	r3, #0
	bne	.L3
	bx	lr
.L9:
	.align	2
.L8:
	.word	5381
	.cfi_endproc
.LFE188:
	.size	hash, .-hash
	.section	.text.tileImage32,"ax",%progbits
	.align	2
	.global	tileImage32
	.syntax unified
	.arm
	.type	tileImage32, %function
tileImage32:
.LVL7:
.LFB192:
	.loc 1 84 59 is_stmt 1 view -0
	.cfi_startproc
	@ args = 0, pretend = 0, frame = 0
	@ frame_needed = 0, uses_anonymous_args = 0
	.loc 1 85 2 view .LVU15
.LBB33:
	.loc 1 85 7 view .LVU16
	.loc 1 85 20 discriminator 1 view .LVU17
.LBE33:
	.loc 1 84 59 is_stmt 0 view .LVU18
	push	{r4, r5, r6, r7, r8, r9, r10, fp, lr}
	.cfi_def_cfa_offset 36
	.cfi_offset 4, -36
	.cfi_offset 5, -32
	.cfi_offset 6, -28
	.cfi_offset 7, -24
	.cfi_offset 8, -20
	.cfi_offset 9, -16
	.cfi_offset 10, -12
	.cfi_offset 11, -8
	.cfi_offset 14, -4
.LBB58:
	.loc 1 85 20 discriminator 1 view .LVU19
	subs	r9, r3, #0
	pople	{r4, r5, r6, r7, r8, r9, r10, fp, pc}
	mov	r4, r1
	.loc 1 85 11 view .LVU20
	mov	r7, #0
	mov	r1, r2
.LVL8:
	.loc 1 85 11 view .LVU21
	sub	r3, r9, #1
.LVL9:
	.loc 1 85 11 view .LVU22
	mul	r3, r2, r3
	rsb	r10, r2, r2, lsl #30
	sub	r3, r3, #-1073741823
.LBB34:
.LBB35:
.LBB36:
.LBB37:
.LBB38:
.LBB39:
	.loc 1 72 4 view .LVU23
	ldr	r6, .L18
	.loc 1 73 4 view .LVU24
	ldr	r5, .L18+4
	lsl	r10, r10, #2
	add	r8, r0, r3, lsl #2
.LVL10:
.L12:
	.loc 1 73 4 view .LVU25
.LBE39:
.LBE38:
.LBE37:
.LBE36:
.LBE35:
	.loc 1 86 21 is_stmt 1 discriminator 1 view .LVU26
	cmp	r1, #0
	ble	.L15
.LBB54:
	.loc 1 88 59 is_stmt 0 discriminator 1 view .LVU27
	mov	ip, r8
.LBE54:
	.loc 1 86 12 view .LVU28
	mov	r0, #0
.LBB55:
	.loc 1 87 8 view .LVU29
	bic	r2, r7, #7
	.loc 1 88 59 discriminator 1 view .LVU30
	mul	r2, r1, r2
.LBB51:
.LBB48:
.LBB44:
.LBB40:
	.loc 1 71 29 view .LVU31
	lsl	lr, r7, #8
	and	lr, lr, #1792
.LVL11:
.L13:
	.loc 1 71 29 view .LVU32
.LBE40:
.LBE44:
.LBE48:
.LBE51:
	.loc 1 87 4 is_stmt 1 view .LVU33
	.loc 1 88 4 view .LVU34
.LBB52:
.LBI36:
	.loc 1 78 19 view .LVU35
.LBB49:
	.loc 1 79 2 view .LVU36
.LBB45:
.LBI38:
	.loc 1 70 19 view .LVU37
.LBB41:
	.loc 1 71 2 view .LVU38
	.loc 1 71 13 is_stmt 0 view .LVU39
	and	r3, r0, #7
	.loc 1 71 6 view .LVU40
	orr	r3, r3, lr
.LVL12:
	.loc 1 72 2 is_stmt 1 view .LVU41
	.loc 1 72 9 is_stmt 0 view .LVU42
	eor	r3, r3, r3, lsl #2
.LVL13:
	.loc 1 72 4 view .LVU43
	and	r3, r3, r6
.LVL14:
	.loc 1 73 2 is_stmt 1 view .LVU44
	.loc 1 73 9 is_stmt 0 view .LVU45
	eor	r3, r3, r3, lsl #1
.LVL15:
	.loc 1 73 4 view .LVU46
	and	r3, r3, r5
.LVL16:
	.loc 1 74 2 is_stmt 1 view .LVU47
.LBE41:
.LBE45:
	.loc 1 80 27 is_stmt 0 view .LVU48
	bic	fp, r0, #7
.LBB46:
.LBB42:
	.loc 1 74 9 view .LVU49
	orr	r3, r3, r3, lsr #7
.LVL17:
	.loc 1 75 2 is_stmt 1 view .LVU50
	.loc 1 75 2 is_stmt 0 view .LVU51
.LBE42:
.LBE46:
	.loc 1 80 2 is_stmt 1 view .LVU52
	.loc 1 81 2 view .LVU53
	.loc 1 81 2 is_stmt 0 view .LVU54
.LBE49:
.LBE52:
	.loc 1 90 4 is_stmt 1 view .LVU55
	.loc 1 88 8 is_stmt 0 discriminator 1 view .LVU56
	add	fp, r2, fp, lsl #3
.LVL18:
.LBB53:
.LBB50:
.LBB47:
.LBB43:
	.loc 1 74 4 view .LVU57
	and	r3, r3, #63
.LVL19:
	.loc 1 74 4 view .LVU58
.LBE43:
.LBE47:
.LBE50:
.LBE53:
	.loc 1 88 8 discriminator 1 view .LVU59
	add	r3, fp, r3
.LBE55:
	.loc 1 86 31 discriminator 3 view .LVU60
	add	r0, r0, #1
.LVL20:
.LBB56:
	.loc 1 90 8 view .LVU61
	ldr	fp, [ip, #4]!
.LVL21:
	.loc 1 91 4 is_stmt 1 view .LVU62
.LBE56:
	.loc 1 86 21 is_stmt 0 discriminator 1 view .LVU63
	cmp	r1, r0
.LBB57:
	.loc 1 91 30 view .LVU64
	str	fp, [r4, r3, lsl #2]
.LBE57:
	.loc 1 86 31 is_stmt 1 discriminator 3 view .LVU65
.LVL22:
	.loc 1 86 21 discriminator 1 view .LVU66
	bne	.L13
.LVL23:
.L15:
	.loc 1 86 21 is_stmt 0 discriminator 1 view .LVU67
.LBE34:
	.loc 1 85 30 is_stmt 1 discriminator 2 view .LVU68
	add	r7, r7, #1
.LVL24:
	.loc 1 85 20 discriminator 1 view .LVU69
	cmp	r9, r7
	add	r8, r8, r10
	bne	.L12
	pop	{r4, r5, r6, r7, r8, r9, r10, fp, pc}
.L19:
	.align	2
.L18:
	.word	4883
	.word	5397
.LBE58:
	.cfi_endproc
.LFE192:
	.size	tileImage32, .-tileImage32
	.section	.rodata.str1.4,"aMS",%progbits,1
	.align	2
.LC1:
	.ascii	"Failed to load texture %s\012\000"
	.section	.text.Texture_Load,"ax",%progbits
	.align	2
	.global	Texture_Load
	.syntax unified
	.arm
	.type	Texture_Load, %function
Texture_Load:
.LVL25:
.LFB189:
	.loc 1 23 52 view -0
	.cfi_startproc
	@ args = 0, pretend = 0, frame = 16
	@ frame_needed = 0, uses_anonymous_args = 0
	.loc 1 24 2 view .LVU71
	.loc 1 23 52 is_stmt 0 view .LVU72
	push	{r4, r5, r6, r7, lr}
	.cfi_def_cfa_offset 20
	.cfi_offset 4, -20
	.cfi_offset 5, -16
	.cfi_offset 6, -12
	.cfi_offset 7, -8
	.cfi_offset 14, -4
	.loc 1 25 15 view .LVU73
	mov	r3, #255
	.loc 1 23 52 view .LVU74
	mov	r4, r1
	.loc 1 24 12 view .LVU75
	mov	ip, #0
	.loc 1 23 52 view .LVU76
	sub	sp, sp, #28
	.cfi_def_cfa_offset 48
	.loc 1 25 15 view .LVU77
	str	r3, [sp, #16]
	.loc 1 25 28 view .LVU78
	str	r3, [sp, #20]
	.loc 1 23 52 view .LVU79
	mov	r5, r0
	.loc 1 26 19 view .LVU80
	mov	r3, r4
	add	r2, sp, #20
	add	r1, sp, #16
.LVL26:
	.loc 1 26 19 view .LVU81
	add	r0, sp, #12
.LVL27:
	.loc 1 24 12 view .LVU82
	str	ip, [sp, #12]
	.loc 1 25 2 is_stmt 1 view .LVU83
	.loc 1 26 2 view .LVU84
	.loc 1 26 19 is_stmt 0 view .LVU85
	bl	lodepng_decode32_file
.LVL28:
	.loc 1 27 2 is_stmt 1 view .LVU86
	.loc 1 27 5 is_stmt 0 view .LVU87
	cmp	r0, #0
	bne	.L21
	.loc 1 27 17 discriminator 1 view .LVU88
	ldr	r3, [sp, #12]
	cmp	r3, #0
	beq	.L21
.LBB65:
	.loc 1 28 3 is_stmt 1 view .LVU89
	.loc 1 28 56 is_stmt 0 view .LVU90
	ldr	r0, [sp, #16]
.LVL29:
	.loc 1 28 56 view .LVU91
	ldr	r3, [sp, #20]
	mul	r0, r3, r0
	.loc 1 28 38 view .LVU92
	lsl	r0, r0, #2
	bl	linearAlloc
.LVL30:
	.loc 1 30 13 view .LVU93
	ldr	r2, [sp, #16]
	.loc 1 28 38 view .LVU94
	mov	r4, r0
.LVL31:
	.loc 1 30 3 is_stmt 1 view .LVU95
	.loc 1 30 6 is_stmt 0 view .LVU96
	cmp	r2, #63
.LBB66:
	.loc 1 31 22 discriminator 1 view .LVU97
	ldr	r6, [sp, #20]
.LBE66:
	.loc 1 30 6 view .LVU98
	bhi	.L22
.L25:
.LVL32:
.LBB68:
	.loc 1 31 22 is_stmt 1 discriminator 1 view .LVU99
	cmp	r6, #0
	beq	.L29
.LBB67:
	.loc 1 33 52 is_stmt 0 view .LVU100
	mov	lr, #0
	ldr	ip, [sp, #12]
	lsl	r0, r2, #2
.LVL33:
	.loc 1 33 52 view .LVU101
	add	ip, ip, r2, lsl #2
.LVL34:
.L24:
	.loc 1 32 23 is_stmt 1 discriminator 1 view .LVU102
	cmp	r2, #0
	subne	r3, ip, r0
	beq	.L31
.LVL35:
.L28:
	.loc 1 33 6 view .LVU103
	.loc 1 33 29 is_stmt 0 view .LVU104
	ldr	r1, [r3]
	rev	r1, r1
	.loc 1 33 27 discriminator 1 view .LVU105
	str	r1, [r3], #4
	.loc 1 32 33 is_stmt 1 discriminator 3 view .LVU106
	.loc 1 32 23 discriminator 1 view .LVU107
	cmp	ip, r3
	bne	.L28
.L31:
.LBE67:
	.loc 1 31 33 discriminator 2 view .LVU108
	add	lr, lr, #1
.LVL36:
	.loc 1 31 22 discriminator 1 view .LVU109
	cmp	lr, r6
	add	ip, ip, r0
	bne	.L24
.LVL37:
.L29:
	.loc 1 31 22 is_stmt 0 discriminator 1 view .LVU110
.LBE68:
	.loc 1 46 3 is_stmt 1 view .LVU111
.LBB69:
.LBI69:
	.file 2 "C:/devkitPro/libctru/include/c3d/texture.h"
	.loc 2 112 19 view .LVU112
.LBB70:
	.loc 2 114 2 view .LVU113
	.loc 2 115 22 is_stmt 0 view .LVU114
	uxth	r2, r2
	.loc 2 114 9 view .LVU115
	orr	r2, r2, r6, lsl #16
.LVL38:
	.loc 2 114 9 view .LVU116
	mov	r3, #2048
	mov	r1, #0
	mov	r0, r5
	bl	C3D_TexInitWithParams
.LVL39:
	.loc 2 114 9 view .LVU117
.LBE70:
.LBE69:
	.loc 1 48 3 is_stmt 1 view .LVU118
	.loc 1 48 28 is_stmt 0 discriminator 2 view .LVU119
	ldrd	r6, [sp, #16]
	.loc 1 48 6 view .LVU120
	cmp	r6, #63
	bls	.L34
	.loc 1 48 18 discriminator 2 view .LVU121
	cmp	r7, #63
	bls	.L34
.L35:
	.loc 1 50 3 is_stmt 1 view .LVU122
	.loc 1 50 53 is_stmt 0 view .LVU123
	mul	r1, r7, r6
	.loc 1 50 3 view .LVU124
	mov	r0, r4
	lsl	r1, r1, #2
	bl	GSPGPU_FlushDataCache
.LVL40:
	.loc 1 51 3 is_stmt 1 view .LVU125
	ldr	r0, [sp, #12]
	bl	free
.LVL41:
	.loc 1 53 3 view .LVU126
	.loc 1 53 13 is_stmt 0 view .LVU127
	ldr	r3, [sp, #16]
	.loc 1 53 28 discriminator 1 view .LVU128
	ldr	r2, [sp, #20]
	.loc 1 53 6 view .LVU129
	cmp	r3, #63
	bls	.L37
	.loc 1 53 18 discriminator 1 view .LVU130
	cmp	r2, #63
	bhi	.L38
.L37:
	.loc 1 54 4 is_stmt 1 view .LVU131
	.loc 1 54 72 is_stmt 0 view .LVU132
	mul	r1, r2, r3
	.loc 1 54 4 view .LVU133
	mov	ip, #8
	mov	r3, #0
	.loc 1 54 72 view .LVU134
	lsl	r1, r1, #2
	.loc 1 54 4 view .LVU135
	ldr	r2, [r5]
	mov	r0, r4
	str	r1, [sp]
	str	ip, [sp, #4]
	mov	r1, r3
	bl	C3D_SyncTextureCopy
.LVL42:
.L39:
	.loc 1 63 3 is_stmt 1 view .LVU136
	mov	r0, r4
	bl	linearFree
.LVL43:
.LBE65:
	.loc 1 67 1 is_stmt 0 view .LVU137
	add	sp, sp, #28
	.cfi_remember_state
	.cfi_def_cfa_offset 20
	@ sp needed
	pop	{r4, r5, r6, r7, pc}
.LVL44:
.L21:
	.cfi_restore_state
	.loc 1 65 3 is_stmt 1 view .LVU138
	mov	r1, r4
	ldr	r0, .L51
.LVL45:
	.loc 1 65 3 is_stmt 0 view .LVU139
	bl	Crash
.LVL46:
	.loc 1 67 1 view .LVU140
	add	sp, sp, #28
	.cfi_remember_state
	.cfi_def_cfa_offset 20
	@ sp needed
	pop	{r4, r5, r6, r7, pc}
.LVL47:
.L34:
	.cfi_restore_state
.LBB72:
	.loc 1 48 34 is_stmt 1 discriminator 3 view .LVU141
	mov	r3, r7
	mov	r2, r6
	mov	r1, r4
	ldr	r0, [sp, #12]
	bl	tileImage32
.LVL48:
	b	.L35
.LVL49:
.L22:
	.loc 1 30 18 is_stmt 0 discriminator 1 view .LVU142
	cmp	r6, #63
	bls	.L25
.LVL50:
.LBB71:
	.loc 1 36 22 is_stmt 1 discriminator 1 view .LVU143
	.loc 1 36 30 is_stmt 0 discriminator 1 view .LVU144
	mul	ip, r6, r2
	.loc 1 36 22 discriminator 1 view .LVU145
	cmp	ip, #0
	beq	.L29
	.loc 1 42 45 view .LVU146
	ldr	r1, [sp, #12]
	sub	r0, r0, #4
.LVL51:
	.loc 1 42 45 view .LVU147
	sub	r1, r1, #4
	add	ip, r1, ip, lsl #2
.LVL52:
.L32:
	.loc 1 42 5 is_stmt 1 view .LVU148
	.loc 1 42 22 is_stmt 0 view .LVU149
	ldr	r3, [r1, #4]!
	rev	r3, r3
	.loc 1 36 22 discriminator 1 view .LVU150
	cmp	r1, ip
	.loc 1 42 20 discriminator 1 view .LVU151
	str	r3, [r0, #4]!
	.loc 1 36 41 is_stmt 1 discriminator 3 view .LVU152
	.loc 1 36 22 discriminator 1 view .LVU153
	bne	.L32
	b	.L29
.L38:
	.loc 1 36 22 is_stmt 0 discriminator 1 view .LVU154
.LBE71:
	.loc 1 56 4 is_stmt 1 view .LVU155
	mov	ip, #3
	.loc 1 57 56 is_stmt 0 view .LVU156
	uxth	r3, r3
	.loc 1 57 47 view .LVU157
	orr	r3, r3, r2, lsl #16
	.loc 1 56 4 view .LVU158
	mov	r1, r3
	ldr	r2, [r5]
	mov	r0, r4
	str	ip, [sp]
	bl	C3D_SyncDisplayTransfer
.LVL53:
	b	.L39
.L52:
	.align	2
.L51:
	.word	.LC1
.LBE72:
	.cfi_endproc
.LFE189:
	.size	Texture_Load, .-Texture_Load
	.section	.text.Texture_TileImage8,"ax",%progbits
	.align	2
	.global	Texture_TileImage8
	.syntax unified
	.arm
	.type	Texture_TileImage8, %function
Texture_TileImage8:
.LVL54:
.LFB193:
	.loc 1 95 63 is_stmt 1 view -0
	.cfi_startproc
	@ args = 0, pretend = 0, frame = 0
	@ frame_needed = 0, uses_anonymous_args = 0
	.loc 1 96 2 view .LVU160
.LBB80:
	.loc 1 96 7 view .LVU161
	.loc 1 96 20 discriminator 1 view .LVU162
.LBE80:
	.loc 1 95 63 is_stmt 0 view .LVU163
	push	{r4, r5, r6, r7, r8, r9, r10, fp, lr}
	.cfi_def_cfa_offset 36
	.cfi_offset 4, -36
	.cfi_offset 5, -32
	.cfi_offset 6, -28
	.cfi_offset 7, -24
	.cfi_offset 8, -20
	.cfi_offset 9, -16
	.cfi_offset 10, -12
	.cfi_offset 11, -8
	.cfi_offset 14, -4
.LBB107:
	.loc 1 96 20 discriminator 1 view .LVU164
	subs	r10, r2, #0
	pople	{r4, r5, r6, r7, r8, r9, r10, fp, pc}
	.loc 1 96 11 view .LVU165
	mov	r9, #0
.LBB81:
.LBB82:
	.loc 1 101 25 view .LVU166
	sub	r3, r10, #1
	mul	r3, r10, r3
	mov	r5, r1
.LBB83:
.LBB84:
.LBB85:
.LBB86:
	.loc 1 72 4 view .LVU167
	ldr	r7, .L59
	add	r1, r3, r0
.LVL55:
	.loc 1 73 4 view .LVU168
	ldr	r6, .L59+4
	add	r0, r0, r10
.LVL56:
	.loc 1 73 4 view .LVU169
	add	r8, r0, r3
	rsb	r1, r1, #0
.LVL57:
.L55:
	.loc 1 73 4 view .LVU170
.LBE86:
.LBE85:
.LBE84:
.LBE83:
.LBE82:
	.loc 1 97 21 is_stmt 1 discriminator 1 view .LVU171
	mov	r4, r8
	sub	r8, r8, r10
.LBB105:
	.loc 1 99 59 is_stmt 0 discriminator 1 view .LVU172
	mov	r0, r8
	.loc 1 98 8 view .LVU173
	bic	lr, r9, #7
	.loc 1 99 59 discriminator 1 view .LVU174
	mul	lr, r10, lr
.LBB101:
.LBB97:
.LBB92:
.LBB87:
	.loc 1 71 29 view .LVU175
	lsl	ip, r9, #8
	and	ip, ip, #1792
.LVL58:
.L56:
	.loc 1 71 29 view .LVU176
	add	r2, r1, r0
.LVL59:
	.loc 1 71 29 view .LVU177
.LBE87:
.LBE92:
.LBE97:
.LBE101:
	.loc 1 98 4 is_stmt 1 view .LVU178
	.loc 1 99 4 view .LVU179
.LBB102:
.LBI83:
	.loc 1 78 19 view .LVU180
.LBB98:
	.loc 1 79 2 view .LVU181
.LBB93:
.LBI85:
	.loc 1 70 19 view .LVU182
.LBB88:
	.loc 1 71 2 view .LVU183
	.loc 1 71 6 is_stmt 0 view .LVU184
	and	r3, r2, #7
	orr	r3, r3, ip
.LVL60:
	.loc 1 72 2 is_stmt 1 view .LVU185
	.loc 1 72 9 is_stmt 0 view .LVU186
	eor	r3, r3, r3, lsl #2
.LVL61:
	.loc 1 72 4 view .LVU187
	and	r3, r3, r7
.LVL62:
	.loc 1 73 2 is_stmt 1 view .LVU188
	.loc 1 73 9 is_stmt 0 view .LVU189
	eor	r3, r3, r3, lsl #1
.LVL63:
	.loc 1 73 9 view .LVU190
.LBE88:
.LBE93:
.LBE98:
.LBE102:
	.loc 1 101 7 view .LVU191
	ldrb	fp, [r0], #1	@ zero_extendqisi2
.LBB103:
.LBB99:
.LBB94:
.LBB89:
	.loc 1 73 4 view .LVU192
	and	r3, r3, r6
.LVL64:
	.loc 1 74 2 is_stmt 1 view .LVU193
.LBE89:
.LBE94:
	.loc 1 80 15 is_stmt 0 view .LVU194
	bic	r2, r2, #7
.LVL65:
.LBB95:
.LBB90:
	.loc 1 74 9 view .LVU195
	orr	r3, r3, r3, lsr #7
.LVL66:
	.loc 1 75 2 is_stmt 1 view .LVU196
	.loc 1 75 2 is_stmt 0 view .LVU197
.LBE90:
.LBE95:
	.loc 1 80 2 is_stmt 1 view .LVU198
	.loc 1 81 2 view .LVU199
	.loc 1 81 2 is_stmt 0 view .LVU200
.LBE99:
.LBE103:
	.loc 1 101 4 is_stmt 1 view .LVU201
	.loc 1 102 4 view .LVU202
	.loc 1 102 24 is_stmt 0 view .LVU203
	add	r2, r5, r2, lsl #3
.LBB104:
.LBB100:
.LBB96:
.LBB91:
	.loc 1 74 4 view .LVU204
	and	r3, r3, #63
.LVL67:
	.loc 1 74 4 view .LVU205
.LBE91:
.LBE96:
.LBE100:
.LBE104:
	.loc 1 102 24 view .LVU206
	add	r2, r2, lr
.LBE105:
	.loc 1 97 21 discriminator 1 view .LVU207
	cmp	r4, r0
.LBB106:
	.loc 1 102 24 view .LVU208
	strb	fp, [r2, r3]
.LBE106:
	.loc 1 97 30 is_stmt 1 discriminator 3 view .LVU209
.LVL68:
	.loc 1 97 21 discriminator 1 view .LVU210
	bne	.L56
.LBE81:
	.loc 1 96 29 discriminator 2 view .LVU211
	add	r9, r9, #1
.LVL69:
	.loc 1 96 20 discriminator 1 view .LVU212
	cmp	r10, r9
	add	r1, r1, r10
.LVL70:
	.loc 1 96 20 is_stmt 0 discriminator 1 view .LVU213
	bne	.L55
	pop	{r4, r5, r6, r7, r8, r9, r10, fp, pc}
.L60:
	.align	2
.L59:
	.word	4883
	.word	5397
.LBE107:
	.cfi_endproc
.LFE193:
	.size	Texture_TileImage8, .-Texture_TileImage8
	.section	.text.downscaleImage,"ax",%progbits
	.align	2
	.global	downscaleImage
	.syntax unified
	.arm
	.type	downscaleImage, %function
downscaleImage:
.LVL71:
.LFB194:
	.loc 1 106 41 is_stmt 1 view -0
	.cfi_startproc
	@ args = 0, pretend = 0, frame = 0
	@ frame_needed = 0, uses_anonymous_args = 0
	.loc 1 107 2 view .LVU215
	.loc 1 108 2 view .LVU216
	.loc 1 108 16 discriminator 1 view .LVU217
	.loc 1 106 41 is_stmt 0 view .LVU218
	push	{r4, r5, r6, r7, r8, r9, r10, fp, lr}
	.cfi_def_cfa_offset 36
	.cfi_offset 4, -36
	.cfi_offset 5, -32
	.cfi_offset 6, -28
	.cfi_offset 7, -24
	.cfi_offset 8, -20
	.cfi_offset 9, -16
	.cfi_offset 10, -12
	.cfi_offset 11, -8
	.cfi_offset 14, -4
	.loc 1 108 16 discriminator 1 view .LVU219
	subs	r7, r1, #0
	pople	{r4, r5, r6, r7, r8, r9, r10, fp, pc}
	add	r4, r0, r7, lsl #3
	mov	r6, r0
.LBB108:
	.loc 1 112 96 view .LVU220
	mov	r0, #0
.LVL72:
	.loc 1 112 96 view .LVU221
	mov	lr, r4
.LBE108:
	.loc 1 108 9 view .LVU222
	mov	r5, r0
	lsl	r8, r7, #4
.LVL73:
.L63:
	.loc 1 109 17 is_stmt 1 discriminator 1 view .LVU223
	.loc 1 106 41 is_stmt 0 view .LVU224
	mov	r2, r4
	add	r3, r6, r0, lsl #4
	add	ip, r6, r0, lsl #2
.LVL74:
.L64:
.LBB109:
	.loc 1 110 4 is_stmt 1 view .LVU225
	.loc 1 111 4 view .LVU226
	.loc 1 112 4 view .LVU227
	.loc 1 112 28 is_stmt 0 view .LVU228
	ldrb	r1, [r3]	@ zero_extendqisi2
	.loc 1 112 52 view .LVU229
	ldrb	r10, [r3, #4]	@ zero_extendqisi2
	.loc 1 112 76 view .LVU230
	ldrb	r9, [r2]	@ zero_extendqisi2
	.loc 1 112 46 view .LVU231
	add	r1, r1, r10
	.loc 1 112 70 view .LVU232
	add	r1, r1, r9
	.loc 1 113 14 view .LVU233
	ldrb	r9, [r2, #4]	@ zero_extendqisi2
.LBE109:
	.loc 1 109 17 discriminator 1 view .LVU234
	add	r3, r3, #8
.LVL75:
.LBB110:
	.loc 1 112 105 view .LVU235
	add	r1, r1, r9
	.loc 1 113 50 view .LVU236
	asr	r1, r1, #2
	.loc 1 112 21 view .LVU237
	strb	r1, [ip]
	.loc 1 115 4 is_stmt 1 view .LVU238
	.loc 1 115 52 is_stmt 0 view .LVU239
	ldrb	r10, [r3, #-3]	@ zero_extendqisi2
	.loc 1 115 28 view .LVU240
	ldrb	r1, [r3, #-7]	@ zero_extendqisi2
	.loc 1 115 76 view .LVU241
	ldrb	r9, [r2, #1]	@ zero_extendqisi2
	.loc 1 115 46 view .LVU242
	add	r1, r1, r10
	.loc 1 115 70 view .LVU243
	add	r1, r1, r9
	.loc 1 116 14 view .LVU244
	ldrb	r9, [r2, #5]	@ zero_extendqisi2
.LBE110:
	.loc 1 109 17 discriminator 1 view .LVU245
	add	ip, ip, #4
.LVL76:
.LBB111:
	.loc 1 115 105 view .LVU246
	add	r1, r1, r9
	.loc 1 116 50 view .LVU247
	asr	r1, r1, #2
	.loc 1 115 21 view .LVU248
	strb	r1, [ip, #-3]
	.loc 1 118 4 is_stmt 1 view .LVU249
	.loc 1 118 52 is_stmt 0 view .LVU250
	ldrb	r10, [r3, #-2]	@ zero_extendqisi2
	.loc 1 118 28 view .LVU251
	ldrb	r1, [r3, #-6]	@ zero_extendqisi2
	.loc 1 118 76 view .LVU252
	ldrb	r9, [r2, #2]	@ zero_extendqisi2
	.loc 1 118 46 view .LVU253
	add	r1, r1, r10
	.loc 1 118 70 view .LVU254
	add	r1, r1, r9
	.loc 1 119 14 view .LVU255
	ldrb	r9, [r2, #6]	@ zero_extendqisi2
.LBE111:
	.loc 1 109 17 discriminator 1 view .LVU256
	add	r2, r2, #8
.LBB112:
	.loc 1 118 105 view .LVU257
	add	r1, r1, r9
	.loc 1 119 50 view .LVU258
	asr	r1, r1, #2
	.loc 1 118 21 view .LVU259
	strb	r1, [ip, #-2]
	.loc 1 121 4 is_stmt 1 view .LVU260
	.loc 1 121 28 is_stmt 0 view .LVU261
	ldrb	r1, [r3, #-5]	@ zero_extendqisi2
	.loc 1 121 52 view .LVU262
	ldrb	fp, [r3, #-1]	@ zero_extendqisi2
	.loc 1 121 76 view .LVU263
	ldrb	r10, [r2, #-5]	@ zero_extendqisi2
	.loc 1 122 14 view .LVU264
	ldrb	r9, [r2, #-1]	@ zero_extendqisi2
	.loc 1 121 46 view .LVU265
	add	r1, r1, fp
	.loc 1 121 70 view .LVU266
	add	r1, r1, r10
	.loc 1 121 105 view .LVU267
	add	r1, r1, r9
	.loc 1 122 50 view .LVU268
	asr	r1, r1, #2
.LBE112:
	.loc 1 109 17 discriminator 1 view .LVU269
	cmp	lr, r3
.LBB113:
	.loc 1 121 21 view .LVU270
	strb	r1, [ip, #-1]
.LBE113:
	.loc 1 109 26 is_stmt 1 discriminator 3 view .LVU271
	.loc 1 109 17 discriminator 1 view .LVU272
	bne	.L64
	.loc 1 108 25 discriminator 2 view .LVU273
	add	r5, r5, #1
.LVL77:
	.loc 1 108 16 discriminator 1 view .LVU274
	cmp	r7, r5
	add	r4, r4, r8
	add	r0, r0, r7
	add	lr, lr, r8
	bne	.L63
	pop	{r4, r5, r6, r7, r8, r9, r10, fp, pc}
	.cfi_endproc
.LFE194:
	.size	downscaleImage, .-downscaleImage
	.section	.rodata.str1.4
	.align	2
.LC2:
	.ascii	"Image size(%d, %d) doesn't match or ptr null(intern"
	.ascii	"al error)\012'\000"
	.align	2
.LC3:
	.ascii	"Couldn't alloc texture memory\000"
	.section	.text.Texture_MapInit,"ax",%progbits
	.align	2
	.global	Texture_MapInit
	.syntax unified
	.arm
	.type	Texture_MapInit, %function
Texture_MapInit:
.LVL78:
.LFB195:
	.loc 1 128 75 view -0
	.cfi_startproc
	@ args = 0, pretend = 0, frame = 24
	@ frame_needed = 0, uses_anonymous_args = 0
	.loc 1 129 2 view .LVU276
	.loc 1 130 2 view .LVU277
	.loc 1 134 2 view .LVU278
	.loc 1 135 2 view .LVU279
	.loc 1 137 2 view .LVU280
	.loc 1 128 75 is_stmt 0 view .LVU281
	push	{r4, r5, r6, r7, r8, r9, r10, fp, lr}
	.cfi_def_cfa_offset 36
	.cfi_offset 4, -36
	.cfi_offset 5, -32
	.cfi_offset 6, -28
	.cfi_offset 7, -24
	.cfi_offset 8, -20
	.cfi_offset 9, -16
	.cfi_offset 10, -12
	.cfi_offset 11, -8
	.cfi_offset 14, -4
	mov	r8, r0
	sub	sp, sp, #36
	.cfi_def_cfa_offset 72
	.loc 1 137 32 view .LVU282
	mov	r0, #65536
.LVL79:
	.loc 1 128 75 view .LVU283
	mov	r6, r2
	mov	r4, r1
	.loc 1 137 32 view .LVU284
	bl	linearAlloc
.LVL80:
.LBB114:
	.loc 1 138 46 discriminator 3 view .LVU285
	mov	ip, #255
.LBE114:
	.loc 1 137 32 view .LVU286
	mov	r7, r0
.LVL81:
	.loc 1 138 2 is_stmt 1 view .LVU287
.LBB115:
	.loc 1 138 7 view .LVU288
	.loc 1 138 20 discriminator 1 view .LVU289
	add	r2, r0, #261120
	sub	r3, r0, #4
	add	r2, r2, #1020
.LVL82:
.L68:
	.loc 1 138 36 discriminator 3 view .LVU290
	.loc 1 138 46 is_stmt 0 discriminator 3 view .LVU291
	str	ip, [r3, #4]!
	.loc 1 138 32 is_stmt 1 discriminator 3 view .LVU292
	.loc 1 138 20 discriminator 1 view .LVU293
	cmp	r3, r2
	bne	.L68
.LBE115:
	.loc 1 140 2 view .LVU294
.LVL83:
	.loc 1 141 2 view .LVU295
	.loc 1 141 14 is_stmt 0 view .LVU296
	ldr	r9, [r4]
.LVL84:
	.loc 1 142 2 is_stmt 1 view .LVU297
	.loc 1 143 2 view .LVU298
	.loc 1 143 58 view .LVU299
	.loc 1 143 58 is_stmt 0 discriminator 1 view .LVU300
	cmp	r9, #0
	cmpne	r6, #0
	.loc 1 140 6 view .LVU301
	movgt	r10, #0
	movgt	r5, r8
	.loc 1 130 6 view .LVU302
	strgt	r10, [sp, #12]
	.loc 1 129 6 view .LVU303
	strgt	r10, [sp, #8]
	.loc 1 143 58 discriminator 1 view .LVU304
	bgt	.L80
	b	.L81
.LVL85:
.L73:
.LBB116:
	.loc 1 167 4 is_stmt 1 view .LVU305
	ldr	r0, .L96
	bl	printf
.LVL86:
	.loc 1 169 3 is_stmt 0 view .LVU306
	ldr	r0, [sp, #20]
.LVL87:
.L79:
	.loc 1 169 3 is_stmt 1 view .LVU307
	.loc 1 170 12 is_stmt 0 view .LVU308
	add	r10, r10, #1
.LVL88:
	.loc 1 169 3 view .LVU309
	bl	free
.LVL89:
	.loc 1 170 3 is_stmt 1 view .LVU310
	.loc 1 170 3 is_stmt 0 view .LVU311
.LBE116:
	.loc 1 143 58 discriminator 1 view .LVU312
	cmp	r10, #63
	movle	r3, #1
	movgt	r3, #0
	cmp	r6, r10
	movle	r3, #0
.LBB125:
	.loc 1 170 12 view .LVU313
	ldr	r9, [r4, #4]!
.LVL90:
	.loc 1 171 3 is_stmt 1 view .LVU314
	.loc 1 171 3 is_stmt 0 view .LVU315
.LBE125:
	.loc 1 143 58 is_stmt 1 view .LVU316
	.loc 1 143 58 is_stmt 0 discriminator 1 view .LVU317
	add	r5, r5, #8
	cmp	r9, #0
	moveq	r3, #0
	andne	r3, r3, #1
	cmp	r3, #0
	beq	.L81
.LVL91:
.L80:
.LBB126:
	.loc 1 144 3 is_stmt 1 view .LVU318
	.loc 1 145 3 view .LVU319
	.loc 1 145 20 is_stmt 0 view .LVU320
	mov	r3, r9
	add	r2, sp, #28
	add	r1, sp, #24
	add	r0, sp, #20
	bl	lodepng_decode32_file
.LVL92:
	.loc 1 146 9 view .LVU321
	ldr	r1, [sp, #24]
	.loc 1 145 20 view .LVU322
	mov	r3, r0
.LVL93:
	.loc 1 146 3 is_stmt 1 view .LVU323
	.loc 1 146 6 is_stmt 0 view .LVU324
	cmp	r1, #16
	.loc 1 146 20 discriminator 1 view .LVU325
	ldr	r2, [sp, #28]
	.loc 1 146 6 view .LVU326
	bne	.L73
	.loc 1 146 15 discriminator 1 view .LVU327
	cmp	r2, #16
	bne	.L73
	.loc 1 146 70 discriminator 3 view .LVU328
	clz	r3, r3
	.loc 1 146 35 discriminator 2 view .LVU329
	ldr	r0, [sp, #20]
.LVL94:
	.loc 1 146 70 discriminator 3 view .LVU330
	lsr	r3, r3, #5
	cmp	r0, #0
	moveq	r3, #0
	cmp	r3, #0
	beq	.L73
	mov	fp, r0
.LBB117:
.LBB118:
	.loc 1 147 13 view .LVU331
	mov	lr, #0
	ldr	r3, [sp, #8]
	ldr	r2, [sp, #12]
	add	ip, r3, r2, lsl #7
	add	ip, r7, ip, lsl #2
.L74:
.LVL95:
.LBB119:
	.loc 1 148 23 is_stmt 1 discriminator 1 view .LVU332
.LBE119:
.LBE118:
.LBE117:
.LBE126:
	.loc 1 129 6 is_stmt 0 view .LVU333
	mov	r1, fp
.LBB127:
.LBB124:
.LBB121:
.LBB120:
	.loc 1 148 14 view .LVU334
	mov	r3, #0
.LVL96:
.L75:
	.loc 1 149 6 is_stmt 1 view .LVU335
	.loc 1 150 10 is_stmt 0 view .LVU336
	ldr	r2, [r1, #960]
	.loc 1 148 23 discriminator 1 view .LVU337
	sub	r1, r1, #64
	.loc 1 150 10 view .LVU338
	rev	r2, r2
	.loc 1 149 46 view .LVU339
	str	r2, [ip, r3, lsl #9]
	.loc 1 148 30 is_stmt 1 discriminator 3 view .LVU340
	add	r3, r3, #1
.LVL97:
	.loc 1 148 23 discriminator 1 view .LVU341
	cmp	r3, #16
	bne	.L75
.LBE120:
	.loc 1 147 29 discriminator 2 view .LVU342
	add	lr, lr, #1
.LVL98:
	.loc 1 147 22 discriminator 1 view .LVU343
	cmp	lr, #16
	add	fp, fp, #4
	add	ip, ip, #4
	bne	.L74
.LVL99:
	.loc 1 147 22 is_stmt 0 discriminator 1 view .LVU344
.LBE121:
.LBB122:
.LBB123:
	.loc 1 17 9 is_stmt 1 discriminator 1 view .LVU345
	.loc 1 17 14 is_stmt 0 discriminator 1 view .LVU346
	ldrb	r2, [r9], #1	@ zero_extendqisi2
.LVL100:
	.loc 1 15 16 view .LVU347
	ldr	r3, .L96+4
.LVL101:
	.loc 1 17 9 discriminator 1 view .LVU348
	cmp	r2, #0
	beq	.L77
.LVL102:
.L78:
	.loc 1 17 23 is_stmt 1 discriminator 2 view .LVU349
	add	r3, r3, r3, lsl #5
.LVL103:
	.loc 1 17 28 is_stmt 0 discriminator 2 view .LVU350
	add	r3, r2, r3
.LVL104:
	.loc 1 17 9 is_stmt 1 discriminator 1 view .LVU351
	.loc 1 17 14 is_stmt 0 discriminator 1 view .LVU352
	ldrb	r2, [r9], #1	@ zero_extendqisi2
.LVL105:
	.loc 1 17 9 discriminator 1 view .LVU353
	cmp	r2, #0
	bne	.L78
.LVL106:
.L77:
	.loc 1 18 2 is_stmt 1 view .LVU354
	.loc 1 18 2 is_stmt 0 view .LVU355
.LBE123:
.LBE122:
	.loc 1 156 12 view .LVU356
	ldr	r2, [sp, #8]
	.loc 1 155 22 discriminator 1 view .LVU357
	str	r3, [r5, #24]
	.loc 1 156 4 is_stmt 1 view .LVU358
	.loc 1 156 12 is_stmt 0 view .LVU359
	lsl	r3, r2, #8
	strh	r3, [r5, #28]	@ movhi
	.loc 1 157 4 is_stmt 1 view .LVU360
	.loc 1 161 9 is_stmt 0 view .LVU361
	add	r3, r2, #16
	str	r3, [sp, #8]
.LVL107:
	.loc 1 162 7 view .LVU362
	cmp	r3, #128
	.loc 1 157 12 view .LVU363
	ldr	r3, [sp, #12]
	lsl	r3, r3, #8
	strh	r3, [r5, #30]	@ movhi
	.loc 1 161 4 is_stmt 1 view .LVU364
.LVL108:
	.loc 1 162 4 view .LVU365
	.loc 1 162 7 is_stmt 0 view .LVU366
	bne	.L79
	.loc 1 163 5 is_stmt 1 view .LVU367
	.loc 1 163 10 is_stmt 0 view .LVU368
	ldr	r3, [sp, #12]
	add	r3, r3, #16
	str	r3, [sp, #12]
.LVL109:
	.loc 1 164 5 is_stmt 1 view .LVU369
	.loc 1 164 10 is_stmt 0 view .LVU370
	mov	r3, #0
.LVL110:
	.loc 1 164 10 view .LVU371
	str	r3, [sp, #8]
	b	.L79
.LVL111:
.L81:
	.loc 1 164 10 view .LVU372
.LBE124:
.LBE127:
	.loc 1 174 2 is_stmt 1 view .LVU373
	mov	r1, #65536
	mov	r0, r7
	bl	GSPGPU_FlushDataCache
.LVL112:
	.loc 1 175 2 view .LVU374
.LBB128:
	.loc 1 176 27 is_stmt 0 view .LVU375
	ldr	r3, .L96+8
	.loc 1 175 7 view .LVU376
	mov	r1, #0
	ldrd	r2, [r3]
	mov	r0, r8
	bl	C3D_TexInitWithParams
.LVL113:
	.loc 1 175 5 discriminator 1 view .LVU377
	cmp	r0, #0
	beq	.L94
.L70:
.LBE128:
	.loc 1 178 2 is_stmt 1 view .LVU378
.LVL114:
.LBB129:
.LBI129:
	.loc 2 157 20 view .LVU379
.LBB130:
	.loc 2 159 2 view .LVU380
	.loc 2 160 2 view .LVU381
.LBE130:
.LBE129:
	.loc 1 180 2 is_stmt 0 view .LVU382
	mov	ip, #3
.LBB133:
.LBB131:
	.loc 2 159 13 view .LVU383
	ldr	r2, [r8, #12]
.LBE131:
.LBE133:
	.loc 1 180 2 view .LVU384
	ldr	r3, .L96+12
.LBB134:
.LBB132:
	.loc 2 159 13 view .LVU385
	bic	r2, r2, #6
	.loc 2 160 13 view .LVU386
	str	r2, [r8, #12]
.LVL115:
	.loc 2 160 13 view .LVU387
.LBE132:
.LBE134:
	.loc 1 180 2 is_stmt 1 view .LVU388
	mov	r1, r3
	ldr	r2, [r8]
	mov	r0, r7
	str	ip, [sp]
	bl	C3D_SyncDisplayTransfer
.LVL116:
	.loc 1 185 2 view .LVU389
	.loc 1 186 2 view .LVU390
	.loc 1 188 2 view .LVU391
	.loc 1 188 20 is_stmt 0 view .LVU392
	mov	r0, #16384
	bl	linearAlloc
.LVL117:
	mov	r10, #2
	.loc 1 186 12 view .LVU393
	mov	r6, #16384
.LVL118:
	.loc 1 185 6 view .LVU394
	mov	r4, #64
	.loc 1 188 20 view .LVU395
	mov	r5, r0
.LVL119:
	.loc 1 190 2 is_stmt 1 view .LVU396
.LBB135:
	.loc 1 190 7 view .LVU397
	.loc 1 190 20 discriminator 1 view .LVU398
.L82:
	.loc 1 191 3 view .LVU399
	.loc 1 195 42 is_stmt 0 view .LVU400
	mul	r9, r4, r4
	.loc 1 191 3 view .LVU401
	mov	r1, r4
	mov	r0, r7
	bl	downscaleImage
.LVL120:
	.loc 1 193 3 is_stmt 1 view .LVU402
	.loc 1 195 49 is_stmt 0 view .LVU403
	lsl	fp, r9, #2
	.loc 1 193 3 view .LVU404
	mov	r3, r4
	mov	r2, r4
	mov	r1, r5
	mov	r0, r7
	bl	tileImage32
.LVL121:
	.loc 1 195 3 is_stmt 1 view .LVU405
	mov	r1, fp
	mov	r0, r5
	bl	GSPGPU_FlushDataCache
.LVL122:
	.loc 1 197 3 view .LVU406
	ldr	r1, [r8]
	mov	r2, fp
	add	r1, r1, r6, lsl #2
	mov	r0, r5
	bl	GX_RequestDma
.LVL123:
	.loc 1 198 3 view .LVU407
	.loc 1 201 8 is_stmt 0 view .LVU408
	add	r4, r4, r4, lsr #31
.LVL124:
	.loc 1 198 3 view .LVU409
	bl	gspWaitForAnyEvent
.LVL125:
	.loc 1 200 3 is_stmt 1 view .LVU410
	.loc 1 190 20 is_stmt 0 discriminator 1 view .LVU411
	cmp	r10, #1
	.loc 1 200 10 view .LVU412
	add	r6, r6, r9
.LVL126:
	.loc 1 201 3 is_stmt 1 view .LVU413
	.loc 1 201 8 is_stmt 0 view .LVU414
	asr	r4, r4, #1
.LVL127:
	.loc 1 190 37 is_stmt 1 discriminator 3 view .LVU415
	.loc 1 190 20 discriminator 1 view .LVU416
	movne	r10, #1
	bne	.L82
.L95:
.LBE135:
	.loc 1 204 2 view .LVU417
	mov	r0, r5
	bl	linearFree
.LVL128:
	.loc 1 205 2 view .LVU418
	mov	r0, r7
	.loc 1 206 1 is_stmt 0 view .LVU419
	add	sp, sp, #36
	.cfi_remember_state
	.cfi_def_cfa_offset 36
	@ sp needed
	pop	{r4, r5, r6, r7, r8, r9, r10, fp, lr}
	.cfi_restore 14
	.cfi_restore 11
	.cfi_restore 10
	.cfi_restore 9
	.cfi_restore 8
	.cfi_restore 7
	.cfi_restore 6
	.cfi_restore 5
	.cfi_restore 4
	.cfi_def_cfa_offset 0
.LVL129:
	.loc 1 205 2 view .LVU420
	b	linearFree
.LVL130:
.L94:
	.cfi_restore_state
.LBB136:
	.loc 1 177 3 is_stmt 1 view .LVU421
	ldr	r0, .L96+16
	bl	puts
.LVL131:
	b	.L70
.L97:
	.align	2
.L96:
	.word	.LC2
	.word	5381
	.word	.LANCHOR0
	.word	8388736
	.word	.LC3
.LBE136:
	.cfi_endproc
.LFE195:
	.size	Texture_MapInit, .-Texture_MapInit
	.section	.text.Texture_MapGetIcon,"ax",%progbits
	.align	2
	.global	Texture_MapGetIcon
	.syntax unified
	.arm
	.type	Texture_MapGetIcon, %function
Texture_MapGetIcon:
.LVL132:
.LFB196:
	.loc 1 208 70 view -0
	.cfi_startproc
	@ args = 0, pretend = 0, frame = 0
	@ frame_needed = 0, uses_anonymous_args = 0
	.loc 1 209 2 view .LVU423
.LBB137:
.LBI137:
	.loc 1 14 10 view .LVU424
.LBB138:
	.loc 1 15 2 view .LVU425
	.loc 1 16 2 view .LVU426
	.loc 1 17 2 view .LVU427
	.loc 1 17 9 discriminator 1 view .LVU428
	.loc 1 17 9 is_stmt 0 discriminator 1 view .LVU429
.LBE138:
.LBE137:
	.loc 1 208 70 view .LVU430
	push	{r4, lr}
	.cfi_def_cfa_offset 8
	.cfi_offset 4, -8
	.cfi_offset 14, -4
.LBB141:
.LBB139:
	.loc 1 17 14 discriminator 1 view .LVU431
	ldrb	r3, [r2], #1	@ zero_extendqisi2
.LVL133:
	.loc 1 17 14 discriminator 1 view .LVU432
.LBE139:
.LBE141:
	.loc 1 208 70 view .LVU433
	mov	r4, r0
.LBB142:
.LBB140:
	.loc 1 17 9 discriminator 1 view .LVU434
	cmp	r3, #0
	.loc 1 15 16 view .LVU435
	ldr	ip, .L109
	.loc 1 17 9 discriminator 1 view .LVU436
	beq	.L99
.LVL134:
.L100:
	.loc 1 17 23 is_stmt 1 discriminator 2 view .LVU437
	add	ip, ip, ip, lsl #5
.LVL135:
	.loc 1 17 28 is_stmt 0 discriminator 2 view .LVU438
	add	ip, r3, ip
.LVL136:
	.loc 1 17 9 is_stmt 1 discriminator 1 view .LVU439
	.loc 1 17 14 is_stmt 0 discriminator 1 view .LVU440
	ldrb	r3, [r2], #1	@ zero_extendqisi2
.LVL137:
	.loc 1 17 9 discriminator 1 view .LVU441
	cmp	r3, #0
	bne	.L100
.LVL138:
.L99:
	.loc 1 17 9 discriminator 1 view .LVU442
.LBE140:
.LBE142:
.LBB143:
	.loc 1 210 23 is_stmt 1 discriminator 1 view .LVU443
	.loc 1 210 14 is_stmt 0 view .LVU444
	mov	r3, #0
	add	lr, r1, #24
	b	.L103
.LVL139:
.L101:
	.loc 1 210 51 discriminator 2 view .LVU445
	add	r3, r3, #1
.LVL140:
	.loc 1 210 23 is_stmt 1 discriminator 1 view .LVU446
	cmp	r3, #64
	beq	.L108
.LVL141:
.L103:
	.loc 1 211 3 view .LVU447
	.loc 1 210 51 discriminator 2 view .LVU448
	.loc 1 211 6 is_stmt 0 view .LVU449
	ldr	r2, [lr, r3, lsl #3]
	cmp	r2, ip
	bne	.L101
	.loc 1 212 4 is_stmt 1 view .LVU450
	.loc 1 212 21 is_stmt 0 view .LVU451
	add	r3, r3, #3
.LVL142:
	.loc 1 212 21 view .LVU452
	add	r1, r1, r3, lsl #3
.LVL143:
	.loc 1 212 21 view .LVU453
	ldm	r1, {r0, r1}
.LVL144:
	.loc 1 212 21 view .LVU454
	stm	r4, {r0, r1}
.LBE143:
	.loc 1 216 1 view .LVU455
	mov	r0, r4
	pop	{r4, pc}
.LVL145:
.L108:
	.loc 1 215 2 is_stmt 1 view .LVU456
	.loc 1 215 9 is_stmt 0 view .LVU457
	mov	r3, #0
.LVL146:
	.loc 1 216 1 view .LVU458
	mov	r0, r4
.LVL147:
	.loc 1 215 9 view .LVU459
	str	r3, [r4]
	str	r3, [r4, #4]
	.loc 1 216 1 view .LVU460
	pop	{r4, pc}
.L110:
	.align	2
.L109:
	.word	5381
	.cfi_endproc
.LFE196:
	.size	Texture_MapGetIcon, .-Texture_MapGetIcon
	.section	.rodata
	.align	3
	.set	.LANCHOR0,. + 0
.LC0:
	.short	128
	.short	128
	.byte	2
	.byte	8
	.space	2
	.text
.Letext0:
	.file 3 "C:/devkitPro/devkitARM/arm-none-eabi/include/machine/_default_types.h"
	.file 4 "C:/devkitPro/devkitARM/arm-none-eabi/include/sys/_stdint.h"
	.file 5 "C:/devkitPro/devkitARM/lib/gcc/arm-none-eabi/13.2.0/include/stddef.h"
	.file 6 "C:/devkitPro/libctru/include/3ds/types.h"
	.file 7 "C:/devkitPro/libctru/include/3ds/services/gspgpu.h"
	.file 8 "C:/devkitPro/libctru/include/3ds/gpu/gx.h"
	.file 9 "C:/devkitPro/libctru/include/3ds/gpu/enums.h"
	.file 10 "C:/Users/Elias/CLionProjects/3DSCraft/include/rendering/TextureMap.h"
	.file 11 "C:/devkitPro/devkitARM/arm-none-eabi/include/stdio.h"
	.file 12 "C:/Users/Elias/CLionProjects/3DSCraft/include/misc/Crash.h"
	.file 13 "C:/devkitPro/libctru/include/3ds/allocator/linear.h"
	.file 14 "C:/devkitPro/libctru/include/c3d/renderqueue.h"
	.file 15 "C:/devkitPro/devkitARM/arm-none-eabi/include/stdlib.h"
	.file 16 "C:/Users/Elias/CLionProjects/3DSCraft/dependencies/lodepng/lodepng.h"
	.file 17 "<built-in>"