	.arch armv6k
	.fpu vfp
	.eabi_attribute 28, 1
	.eabi_attribute 20, 1
	.eabi_attribute 21, 1
	.eabi_attribute 23, 3
	.eabi_attribute 24, 1
	.eabi_attribute 25, 1
	.eabi_attribute 26, 1
	.eabi_attribute 30, 2
	.eabi_attribute 34, 1
	.eabi_attribute 18, 4
	.file	"World.c"
	.text
.Ltext0:
	.cfi_sections	.debug_frame
	.file 1 "C:/Users/Elias/CLionProjects/3DSCraft/source/world/World.c"
	.section	.text.World_Reset,"ax",%progbits
	.align	2
	.global	World_Reset
	.syntax unified
	.arm
	.type	World_Reset, %function
World_Reset:
.LVL0:
.LFB131:
	.loc 1 24 32 view -0
	.cfi_startproc
	@ args = 0, pretend = 0, frame = 0
	@ frame_needed = 0, uses_anonymous_args = 0
	.loc 1 25 2 view .LVU1
	.loc 1 26 2 view .LVU2
	.loc 1 24 32 is_stmt 0 view .LVU3
	push	{r3, r4, r5, r6, r7, r8, r9, r10, fp, lr}
	.cfi_def_cfa_offset 40
	.cfi_offset 3, -40
	.cfi_offset 4, -36
	.cfi_offset 5, -32
	.cfi_offset 6, -28
	.cfi_offset 7, -24
	.cfi_offset 8, -20
	.cfi_offset 9, -16
	.cfi_offset 10, -12
	.cfi_offset 11, -8
	.cfi_offset 14, -4
	.loc 1 25 27 view .LVU4
	vldr.64	d7, .L7	@ int
	.loc 1 28 32 view .LVU5
	mov	r3, #0
.LBB192:
	.loc 1 31 25 view .LVU6
	mvn	r5, #-2147483648
	ldr	r10, .L7+8
	ldr	r9, .L7+12
	ldr	r8, .L7+16
	ldr	r7, .L7+20
.LBE192:
	.loc 1 28 32 view .LVU7
	add	fp, r0, #11862016
	add	r6, fp, #57344
	.loc 1 25 27 view .LVU8
	vstr.64	d7, [r0, #32]	@ int
	.loc 1 28 2 is_stmt 1 view .LVU9
	add	r10, r0, r10
	add	r9, r0, r9
	add	r8, r0, r8
	add	r7, r0, r7
	add	r4, r0, #56
	.loc 1 28 32 is_stmt 0 view .LVU10
	str	r3, [r6, #608]
	.loc 1 30 2 is_stmt 1 view .LVU11
.LBB193:
	.loc 1 30 7 view .LVU12
.LVL1:
	.loc 1 30 23 discriminator 1 view .LVU13
.L3:
	.loc 1 31 3 view .LVU14
	.loc 1 32 3 view .LVU15
	.loc 1 33 5 is_stmt 0 view .LVU16
	mov	r3, #4
	mov	r1, r8
	mov	r2, r9
	.loc 1 31 25 view .LVU17
	str	r5, [r4]
	str	r5, [r4, #4]
	.loc 1 33 3 is_stmt 1 view .LVU18
	.loc 1 33 5 is_stmt 0 view .LVU19
	mov	r0, r7
	bl	vec_expand_
.LVL2:
	.loc 1 30 63 is_stmt 1 discriminator 2 view .LVU20
	.loc 1 30 23 discriminator 1 view .LVU21
	.loc 1 33 160 is_stmt 0 discriminator 1 view .LVU22
	cmp	r0, #0
	.loc 1 33 210 discriminator 1 view .LVU23
	ldreq	r3, [r6, #608]
	.loc 1 33 183 discriminator 1 view .LVU24
	ldreq	r1, [r6, #604]
	.loc 1 33 225 discriminator 1 view .LVU25
	sub	r2, r4, #16
	.loc 1 30 23 discriminator 1 view .LVU26
	add	r4, r4, #65536
	.loc 1 33 218 discriminator 1 view .LVU27
	addeq	r0, r3, #1
	.loc 1 30 23 discriminator 1 view .LVU28
	add	r4, r4, #684
	.loc 1 33 218 discriminator 1 view .LVU29
	streq	r0, [r6, #608]
	.loc 1 33 222 discriminator 1 view .LVU30
	streq	r2, [r1, r3, lsl #2]
	.loc 1 30 23 discriminator 1 view .LVU31
	cmp	r4, r10
	bne	.L3
.LBE193:
	.loc 1 36 2 is_stmt 1 view .LVU32
	.loc 1 36 23 is_stmt 0 discriminator 1 view .LVU33
	ldr	r3, .L7+24
	add	fp, fp, #57344
	str	r3, [fp, #620]
	.loc 1 37 1 view .LVU34
	pop	{r3, r4, r5, r6, r7, r8, r9, r10, fp, pc}
.L8:
	.align	3
.L7:
	.word	0
	.word	0
	.word	11919656
	.word	11919972
	.word	11919968
	.word	11919964
	.word	314159265
	.cfi_endproc
.LFE131:
	.size	World_Reset, .-World_Reset
	.section	.rodata.str1.4,"aMS",%progbits,1
	.align	2
.LC0:
	.ascii	"TestWelt\000"
	.section	.text.World_Init,"ax",%progbits
	.align	2
	.global	World_Init
	.syntax unified
	.arm
	.type	World_Init, %function
World_Init:
.LVL3:
.LFB130:
	.loc 1 11 53 is_stmt 1 view -0
	.cfi_startproc
	@ args = 0, pretend = 0, frame = 0
	@ frame_needed = 0, uses_anonymous_args = 0
	.loc 1 12 2 view .LVU36
	.loc 1 11 53 is_stmt 0 view .LVU37
	mov	r3, r0
	.loc 1 12 2 view .LVU38
	ldr	r2, .L11+8
	.loc 1 11 53 view .LVU39
	push	{r4, r5, lr}
	.cfi_def_cfa_offset 12
	.cfi_offset 4, -12
	.cfi_offset 5, -8
	.cfi_offset 14, -4
	.loc 1 11 53 view .LVU40
	mov	r4, r1
	.loc 1 12 2 view .LVU41
	ldmia	r2!, {r0, r1}
.LVL4:
	.loc 1 17 26 view .LVU42
	mov	lr, #1
	.loc 1 12 2 view .LVU43
	ldrb	r5, [r2]	@ zero_extendqisi2
	.loc 1 16 26 view .LVU44
	vldr.64	d7, .L11	@ int
	.loc 1 19 2 view .LVU45
	mov	r2, #0
	.loc 1 12 2 view .LVU46
	str	r1, [r3, #8]	@ unaligned
	.loc 1 19 2 view .LVU47
	ldr	ip, .L11+12
	.loc 1 14 19 view .LVU48
	add	r1, r3, #11862016
	add	r1, r1, #57344
	.loc 1 12 2 view .LVU49
	str	r0, [r3, #4]	@ unaligned
	strb	r5, [r3, #12]
	.loc 1 14 2 is_stmt 1 view .LVU50
	.loc 1 14 19 is_stmt 0 view .LVU51
	str	r4, [r1, #616]
	.loc 1 16 2 is_stmt 1 view .LVU52
	.loc 1 19 2 is_stmt 0 view .LVU53
	add	r1, r3, ip
	.loc 1 17 26 view .LVU54
	strb	lr, [r3, #24]
	.loc 1 19 2 view .LVU55
	str	r2, [r3, ip]	@ unaligned
	.loc 1 16 26 view .LVU56
	vstr.64	d7, [r3, #16]	@ int
	.loc 1 17 2 is_stmt 1 view .LVU57
	.loc 1 19 2 view .LVU58
	str	r2, [r1, #4]	@ unaligned
	str	r2, [r1, #8]	@ unaligned
	.loc 1 21 2 view .LVU59
	mov	r0, r3
	.loc 1 22 1 is_stmt 0 view .LVU60
	pop	{r4, r5, lr}
	.cfi_restore 14
	.cfi_restore 5
	.cfi_restore 4
	.cfi_def_cfa_offset 0
.LVL5:
	.loc 1 21 2 view .LVU61
	b	World_Reset
.LVL6:
.L12:
	.loc 1 21 2 view .LVU62
	.align	3
.L11:
	.word	28112000
	.word	0
	.word	.LC0
	.word	11919964
	.cfi_endproc
.LFE130:
	.size	World_Init, .-World_Init
	.section	.text.World_LoadChunk,"ax",%progbits
	.align	2
	.global	World_LoadChunk
	.syntax unified
	.arm
	.type	World_LoadChunk, %function
World_LoadChunk:
.LVL7:
.LFB132:
	.loc 1 39 52 is_stmt 1 view -0
	.cfi_startproc
	@ args = 0, pretend = 0, frame = 24
	@ frame_needed = 0, uses_anonymous_args = 0
	.loc 1 40 2 view .LVU64
.LBB205:
	.loc 1 40 7 view .LVU65
	.loc 1 40 20 discriminator 1 view .LVU66
.LBE205:
	.loc 1 39 52 is_stmt 0 view .LVU67
	push	{r4, r5, r6, r7, r8, r9, r10, lr}
	.cfi_def_cfa_offset 32
	.cfi_offset 4, -32
	.cfi_offset 5, -28
	.cfi_offset 6, -24
	.cfi_offset 7, -20
	.cfi_offset 8, -16
	.cfi_offset 9, -12
	.cfi_offset 10, -8
	.cfi_offset 14, -4
.LBB208:
	.loc 1 40 39 discriminator 1 view .LVU68
	add	r8, r0, #11862016
	add	r9, r8, #57344
.LBE208:
	.loc 1 39 52 view .LVU69
	mov	r6, r1
.LBB209:
	.loc 1 40 39 discriminator 1 view .LVU70
	ldr	r1, [r9, #608]
.LVL8:
	.loc 1 40 39 discriminator 1 view .LVU71
.LBE209:
	.loc 1 39 52 view .LVU72
	sub	sp, sp, #32
	.cfi_def_cfa_offset 64
.LBB210:
	.loc 1 40 20 discriminator 1 view .LVU73
	cmp	r1, #0
	ble	.L21
	mov	lr, r0
	ldr	r0, [r9, #604]
.LVL9:
	.loc 1 40 20 discriminator 1 view .LVU74
	mov	r7, r2
	sub	r0, r0, #4
	.loc 1 41 24 view .LVU75
	mov	ip, r0
	.loc 1 40 11 view .LVU76
	mov	r3, #0
	b	.L16
.LVL10:
.L15:
	.loc 1 40 49 discriminator 2 view .LVU77
	add	r3, r3, #1
.LVL11:
	.loc 1 40 20 is_stmt 1 discriminator 1 view .LVU78
	cmp	r3, r1
	beq	.L26
.LVL12:
.L16:
	.loc 1 41 3 view .LVU79
	.loc 1 40 49 discriminator 2 view .LVU80
	.loc 1 41 29 is_stmt 0 view .LVU81
	ldr	r4, [ip, #4]!
	.loc 1 41 6 view .LVU82
	ldr	r2, [r4, #16]
	cmp	r2, r6
	bne	.L15
	.loc 1 41 41 discriminator 1 view .LVU83
	ldr	r2, [r4, #20]
	cmp	r2, r7
	bne	.L15
.LBB206:
	.loc 1 42 4 is_stmt 1 view .LVU84
.LVL13:
	.loc 1 43 4 view .LVU85
	.loc 1 43 6 is_stmt 0 view .LVU86
	mov	ip, #1
	ldr	r2, .L27
	ldr	r1, .L27+4
	ldr	r0, .L27+8
	str	r3, [sp]
	add	r2, lr, r2
	add	r1, lr, r1
	add	r0, lr, r0
	mov	r3, #4
.LVL14:
	.loc 1 43 6 view .LVU87
	str	ip, [sp, #4]
	bl	vec_splice_
.LVL15:
	.loc 1 43 6 view .LVU88
.LBE206:
.LBE210:
	.loc 1 64 1 view .LVU89
	mov	r0, r4
.LBB211:
.LBB207:
	.loc 1 45 21 view .LVU90
	add	r1, r4, #65536
	.loc 1 43 192 discriminator 1 view .LVU91
	ldr	r2, [r9, #608]
	.loc 1 45 21 view .LVU92
	ldr	r3, [r1, #680]
	.loc 1 43 192 discriminator 1 view .LVU93
	sub	r2, r2, #1
	.loc 1 45 21 view .LVU94
	add	r3, r3, #1
	.loc 1 43 192 discriminator 1 view .LVU95
	str	r2, [r9, #608]
	.loc 1 45 4 is_stmt 1 view .LVU96
	.loc 1 45 21 is_stmt 0 view .LVU97
	str	r3, [r1, #680]
	.loc 1 46 4 is_stmt 1 view .LVU98
.LBE207:
.LBE211:
	.loc 1 64 1 is_stmt 0 view .LVU99
	add	sp, sp, #32
	.cfi_remember_state
	.cfi_def_cfa_offset 32
	@ sp needed
	pop	{r4, r5, r6, r7, r8, r9, r10, pc}
.LVL16:
.L26:
	.cfi_restore_state
.LBB212:
	.loc 1 50 11 view .LVU100
	mov	r3, #0
.LVL17:
	.loc 1 50 11 view .LVU101
	b	.L20
.LVL18:
.L17:
	.loc 1 50 49 discriminator 2 view .LVU102
	add	r3, r3, #1
.LVL19:
	.loc 1 50 20 is_stmt 1 discriminator 1 view .LVU103
	cmp	r3, r1
	beq	.L21
.LVL20:
.L20:
	.loc 1 51 3 view .LVU104
	.loc 1 50 49 discriminator 2 view .LVU105
	.loc 1 51 30 is_stmt 0 view .LVU106
	ldr	r4, [r0, #4]!
	.loc 1 51 6 view .LVU107
	ldr	r5, [r4]
	cmp	r5, #0
	bne	.L17
.LBB213:
	.loc 1 52 4 is_stmt 1 view .LVU108
.LVL21:
	.loc 1 53 4 view .LVU109
	.loc 1 53 6 is_stmt 0 view .LVU110
	mov	r10, #1
	ldr	r2, .L27
	ldr	r1, .L27+4
	ldr	r0, .L27+8
	add	r2, lr, r2
	add	r1, lr, r1
	add	r0, lr, r0
	str	r3, [sp]
	str	r10, [sp, #4]
	mov	r3, #4
.LVL22:
	.loc 1 53 6 view .LVU111
	bl	vec_splice_
.LVL23:
	.loc 1 53 192 discriminator 1 view .LVU112
	ldr	r3, [r9, #608]
.LBB214:
.LBB215:
	.file 2 "C:/Users/Elias/CLionProjects/3DSCraft/include/world/Chunk.h"
	.loc 2 71 2 view .LVU113
	mov	r1, r5
.LBE215:
.LBE214:
	.loc 1 53 192 discriminator 1 view .LVU114
	sub	r3, r3, #1
.LBB232:
.LBB226:
	.loc 2 71 2 view .LVU115
	ldr	r2, .L27+12
.LBE226:
.LBE232:
	.loc 1 53 192 discriminator 1 view .LVU116
	str	r3, [r9, #608]
	.loc 1 55 4 is_stmt 1 view .LVU117
.LVL24:
.LBB233:
.LBI214:
	.loc 2 70 13 view .LVU118
.LBB227:
	.loc 2 71 2 view .LVU119
	mov	r0, r4
	bl	memset
.LVL25:
	.loc 2 73 2 view .LVU120
	mov	r2, r4
.LBB216:
	.loc 2 77 33 is_stmt 0 view .LVU121
	mvn	r1, #0
.LBE216:
	.loc 2 74 11 view .LVU122
	strd	r6, [r4, #16]
	.loc 2 75 2 is_stmt 1 view .LVU123
.LBB217:
	.loc 2 75 7 view .LVU124
.LVL26:
	.loc 2 75 20 discriminator 1 view .LVU125
	add	r3, r4, #8192
	add	r3, r3, #32
.LVL27:
.L18:
	.loc 2 76 3 view .LVU126
	.loc 2 76 24 is_stmt 0 view .LVU127
	str	r5, [r2, #24]
	.loc 2 77 3 is_stmt 1 view .LVU128
	.loc 2 75 39 is_stmt 0 discriminator 3 view .LVU129
	add	r5, r5, #1
.LVL28:
	.loc 2 77 33 view .LVU130
	strh	r1, [r3]	@ movhi
	.loc 2 78 3 is_stmt 1 view .LVU131
	.loc 2 78 28 is_stmt 0 view .LVU132
	strb	r10, [r3, #2]
	.loc 2 75 39 is_stmt 1 discriminator 3 view .LVU133
.LVL29:
	.loc 2 75 20 discriminator 1 view .LVU134
	add	r2, r2, #8192
	add	r3, r3, #8192
	cmp	r5, #8
	add	r2, r2, #48
	add	r3, r3, #48
	bne	.L18
.LBE217:
	.loc 2 80 2 view .LVU135
.LVL30:
.LBB218:
.LBI218:
	.file 3 "C:/Users/Elias/CLionProjects/3DSCraft/include/misc/Xorshift.h"
	.loc 3 11 17 view .LVU136
.LBB219:
	.loc 3 12 2 view .LVU137
.LBE219:
.LBE218:
.LBE227:
.LBE233:
	.loc 1 56 52 is_stmt 0 view .LVU138
	mov	r2, #0
.LBB234:
.LBB228:
.LBB223:
.LBB220:
	.loc 3 12 2 view .LVU139
	ldr	r3, .L27+16
.LBE220:
.LBE223:
.LBE228:
.LBE234:
	.loc 1 56 4 view .LVU140
	add	r8, r8, #57344
.LVL31:
.LBB235:
.LBB229:
.LBB224:
.LBB221:
	.loc 3 12 2 view .LVU141
	ldr	r5, [r3]
.LVL32:
	.loc 3 12 2 view .LVU142
.LBE221:
.LBE224:
.LBE229:
.LBE235:
	.loc 1 56 4 view .LVU143
	ldr	r6, [r8, #616]
.LVL33:
.LBB236:
.LBB230:
.LBB225:
.LBB222:
	.loc 3 12 7 view .LVU144
	eor	r5, r5, r5, lsl #13
	.loc 3 13 2 is_stmt 1 view .LVU145
	.loc 3 13 7 is_stmt 0 view .LVU146
	eor	r5, r5, r5, lsr #17
	.loc 3 14 2 is_stmt 1 view .LVU147
	.loc 3 14 7 is_stmt 0 view .LVU148
	eor	r5, r5, r5, lsl #5
	str	r5, [r3]
	.loc 3 15 2 is_stmt 1 view .LVU149
.LVL34:
	.loc 3 15 2 is_stmt 0 view .LVU150
	str	r4, [sp, #12]
.LBE222:
.LBE225:
.LBE230:
.LBE236:
	.loc 1 56 52 view .LVU151
	add	r3, sp, #8
	str	r2, [sp, #8]
	str	r2, [sp, #16]
.LBB237:
.LBB238:
	.file 4 "C:/Users/Elias/CLionProjects/3DSCraft/include/world/WorkQueue.h"
	.loc 4 46 2 view .LVU152
	add	r8, r6, #20
.LVL35:
	.loc 4 46 2 view .LVU153
	add	r7, sp, #20
.LVL36:
	.loc 4 46 2 view .LVU154
	ldm	r3, {r0, r1, r2}
	.loc 4 44 2 view .LVU155
	str	r10, [r4]
	stm	r7, {r0, r1, r2}
.LBE238:
.LBE237:
.LBB240:
.LBB231:
	.loc 2 80 14 discriminator 1 view .LVU156
	str	r5, [r4, #8]
.LVL37:
	.loc 2 80 14 discriminator 1 view .LVU157
.LBE231:
.LBE240:
	.loc 1 56 4 is_stmt 1 view .LVU158
.LBB241:
.LBI237:
	.loc 4 42 13 view .LVU159
.LBB239:
	.loc 4 43 2 view .LVU160
	.loc 4 44 2 view .LVU161
	.loc 4 45 2 view .LVU162
	.loc 4 46 2 view .LVU163
	mov	r0, r8
.LVL38:
	.loc 4 46 2 is_stmt 0 view .LVU164
	bl	LightLock_Lock
.LVL39:
	.loc 4 47 2 is_stmt 1 view .LVU165
	.loc 4 47 4 is_stmt 0 view .LVU166
	mov	r3, #12
	mov	r0, r6
	add	r2, r6, #8
	add	r1, r6, #4
	bl	vec_expand_
.LVL40:
	.loc 4 47 139 discriminator 1 view .LVU167
	cmp	r0, #0
	bne	.L19
.LVL41:
	.loc 4 47 179 discriminator 1 view .LVU168
	ldr	r2, [r6, #4]
	.loc 4 47 157 discriminator 1 view .LVU169
	ldr	r3, [r6]
	.loc 4 47 191 discriminator 1 view .LVU170
	add	r1, r2, r2, lsl #1
	add	r3, r3, r1, lsl #2
	.loc 4 47 187 discriminator 1 view .LVU171
	add	r2, r2, #1
	.loc 4 47 191 discriminator 1 view .LVU172
	str	r5, [sp, #28]
	.loc 4 47 187 discriminator 1 view .LVU173
	str	r2, [r6, #4]
.LVL42:
	.loc 4 47 191 discriminator 1 view .LVU174
	ldm	r7, {r0, r1, r2}
	stm	r3, {r0, r1, r2}
.LVL43:
.L19:
	.loc 4 48 2 is_stmt 1 view .LVU175
	mov	r0, r8
	bl	LightLock_Unlock
.LVL44:
	.loc 4 50 2 view .LVU176
	add	r0, r6, #12
	bl	LightEvent_Signal
.LVL45:
	.loc 4 50 2 is_stmt 0 view .LVU177
.LBE239:
.LBE241:
	.loc 1 58 4 is_stmt 1 view .LVU178
.LBE213:
.LBE212:
	.loc 1 64 1 is_stmt 0 view .LVU179
	mov	r0, r4
.LBB243:
.LBB242:
	.loc 1 58 21 view .LVU180
	add	r2, r4, #65536
	ldr	r3, [r2, #680]
	add	r3, r3, #1
	str	r3, [r2, #680]
	.loc 1 59 4 is_stmt 1 view .LVU181
.LBE242:
.LBE243:
	.loc 1 64 1 is_stmt 0 view .LVU182
	add	sp, sp, #32
	.cfi_remember_state
	.cfi_def_cfa_offset 32
	@ sp needed
	pop	{r4, r5, r6, r7, r8, r9, r10, pc}
.LVL46:
.L21:
	.cfi_restore_state
	.loc 1 63 8 view .LVU183
	mov	r4, #0
	.loc 1 64 1 view .LVU184
	mov	r0, r4
	add	sp, sp, #32
	.cfi_def_cfa_offset 32
	@ sp needed
	pop	{r4, r5, r6, r7, r8, r9, r10, pc}
.LVL47:
.L28:
	.loc 1 64 1 view .LVU185
	.align	2
.L27:
	.word	11919972
	.word	11919968
	.word	11919964
	.word	66220
	.word	uuidGenerator
	.cfi_endproc
.LFE132:
	.size	World_LoadChunk, .-World_LoadChunk
	.section	.text.World_UnloadChunk,"ax",%progbits
	.align	2
	.global	World_UnloadChunk
	.syntax unified
	.arm
	.type	World_UnloadChunk, %function
World_UnloadChunk:
.LVL48:
.LFB133:
	.loc 1 65 52 is_stmt 1 view -0
	.cfi_startproc
	@ args = 0, pretend = 0, frame = 24
	@ frame_needed = 0, uses_anonymous_args = 0
	.loc 1 66 2 view .LVU187
	.loc 1 65 52 is_stmt 0 view .LVU188
	push	{r4, r5, r6, r7, r8, r9, r10, lr}
	.cfi_def_cfa_offset 32
	.cfi_offset 4, -32
	.cfi_offset 5, -28
	.cfi_offset 6, -24
	.cfi_offset 7, -20
	.cfi_offset 8, -16
	.cfi_offset 9, -12
	.cfi_offset 10, -8
	.cfi_offset 14, -4
	sub	sp, sp, #24
	.cfi_def_cfa_offset 56
	.loc 1 66 50 view .LVU189
	mov	r3, sp
	mov	r2, #0
	mov	ip, #1
	.loc 1 66 2 view .LVU190
	add	r7, r0, #11862016
	add	r7, r7, #57344
	ldr	r5, [r7, #616]
.LVL49:
	.loc 1 66 50 view .LVU191
	str	r2, [sp]
	str	r2, [r3, #8]
.LBB246:
.LBB247:
	.loc 4 44 2 view .LVU192
	ldr	r2, [r1]
	strb	ip, [sp]
	add	r2, r2, ip
	str	r1, [sp, #4]
	add	r8, sp, #12
	.loc 4 46 2 view .LVU193
	add	r9, r5, #20
	.loc 4 43 24 view .LVU194
	ldr	r10, [r1, #8]
	.loc 4 44 2 view .LVU195
	str	r2, [r1]
.LBE247:
.LBE246:
	.loc 1 65 52 view .LVU196
	mov	r6, r0
	mov	r4, r1
	ldm	r3, {r0, r1, r2}
.LVL50:
	.loc 1 65 52 view .LVU197
	stm	r8, {r0, r1, r2}
.LVL51:
.LBB249:
.LBI246:
	.loc 4 42 13 is_stmt 1 view .LVU198
.LBB248:
	.loc 4 43 2 view .LVU199
	.loc 4 44 2 view .LVU200
	.loc 4 45 2 view .LVU201
	.loc 4 46 2 view .LVU202
	mov	r0, r9
	bl	LightLock_Lock
.LVL52:
	.loc 4 47 2 view .LVU203
	.loc 4 47 4 is_stmt 0 view .LVU204
	mov	r3, #12
	mov	r0, r5
	add	r2, r5, #8
	add	r1, r5, #4
	bl	vec_expand_
.LVL53:
	.loc 4 47 139 discriminator 1 view .LVU205
	cmp	r0, #0
	bne	.L30
	.loc 4 47 179 discriminator 1 view .LVU206
	ldr	r2, [r5, #4]
	.loc 4 47 157 discriminator 1 view .LVU207
	ldr	r3, [r5]
	.loc 4 47 191 discriminator 1 view .LVU208
	add	r1, r2, r2, lsl #1
	add	r3, r3, r1, lsl #2
	.loc 4 47 187 discriminator 1 view .LVU209
	add	r2, r2, #1
	.loc 4 47 191 discriminator 1 view .LVU210
	str	r10, [sp, #20]
	.loc 4 47 187 discriminator 1 view .LVU211
	str	r2, [r5, #4]
.LVL54:
	.loc 4 47 191 discriminator 1 view .LVU212
	ldm	r8, {r0, r1, r2}
	stm	r3, {r0, r1, r2}
.LVL55:
.L30:
	.loc 4 48 2 is_stmt 1 view .LVU213
	mov	r0, r9
	bl	LightLock_Unlock
.LVL56:
	.loc 4 50 2 view .LVU214
	add	r0, r5, #12
	bl	LightEvent_Signal
.LVL57:
	.loc 4 50 2 is_stmt 0 view .LVU215
.LBE248:
.LBE249:
	.loc 1 67 2 is_stmt 1 view .LVU216
	.loc 1 67 4 is_stmt 0 view .LVU217
	ldr	r2, .L33
	ldr	r1, .L33+4
	ldr	r0, .L33+8
	mov	r3, #4
	add	r2, r6, r2
	add	r1, r6, r1
	add	r0, r6, r0
	bl	vec_expand_
.LVL58:
	.loc 1 67 159 discriminator 1 view .LVU218
	cmp	r0, #0
	.loc 1 67 209 discriminator 1 view .LVU219
	ldreq	r3, [r7, #608]
	.loc 1 67 182 discriminator 1 view .LVU220
	ldreq	r2, [r7, #604]
	.loc 1 67 217 discriminator 1 view .LVU221
	addeq	r1, r3, #1
	streq	r1, [r7, #608]
	.loc 1 67 221 discriminator 1 view .LVU222
	streq	r4, [r2, r3, lsl #2]
	.loc 1 68 2 is_stmt 1 view .LVU223
	.loc 1 68 19 is_stmt 0 view .LVU224
	add	r4, r4, #65536
.LVL59:
	.loc 1 68 19 view .LVU225
	ldr	r3, [r4, #680]
	sub	r3, r3, #1
	str	r3, [r4, #680]
	.loc 1 69 1 view .LVU226
	add	sp, sp, #24
	.cfi_def_cfa_offset 32
	@ sp needed
	pop	{r4, r5, r6, r7, r8, r9, r10, pc}
.LVL60:
.L34:
	.loc 1 69 1 view .LVU227
	.align	2
.L33:
	.word	11919972
	.word	11919968
	.word	11919964
	.cfi_endproc
.LFE133:
	.size	World_UnloadChunk, .-World_UnloadChunk
	.section	.text.World_GetChunk,"ax",%progbits
	.align	2
	.global	World_GetChunk
	.syntax unified
	.arm
	.type	World_GetChunk, %function
World_GetChunk:
.LVL61:
.LFB134:
	.loc 1 71 51 is_stmt 1 view -0
	.cfi_startproc
	@ args = 0, pretend = 0, frame = 0
	@ frame_needed = 0, uses_anonymous_args = 0
	.loc 1 72 2 view .LVU229
	.loc 1 73 2 view .LVU230
	.loc 1 71 51 is_stmt 0 view .LVU231
	push	{r4, r5, lr}
	.cfi_def_cfa_offset 12
	.cfi_offset 4, -12
	.cfi_offset 5, -8
	.cfi_offset 14, -4
	.loc 1 74 18 view .LVU232
	ldr	ip, [r0, #36]
	.loc 1 73 18 view .LVU233
	ldr	lr, [r0, #32]
	.loc 1 74 6 view .LVU234
	sub	r4, ip, #4
	.loc 1 73 6 view .LVU235
	sub	r5, lr, #4
.LVL62:
	.loc 1 74 2 is_stmt 1 view .LVU236
	.loc 1 75 2 view .LVU237
	.loc 1 76 2 view .LVU238
	.loc 1 77 2 view .LVU239
	.loc 1 77 5 is_stmt 0 view .LVU240
	cmp	r5, r1
	cmple	r4, r2
	.loc 1 71 51 view .LVU241
	mov	r3, r0
	.loc 1 77 5 view .LVU242
	movle	r0, #1
.LVL63:
	.loc 1 77 5 view .LVU243
	movgt	r0, #0
	popgt	{r4, r5, pc}
	.loc 1 75 6 view .LVU244
	add	lr, lr, #4
.LVL64:
	.loc 1 76 6 view .LVU245
	add	ip, ip, #4
.LVL65:
	.loc 1 77 43 discriminator 1 view .LVU246
	cmp	lr, r1
	cmpge	ip, r2
	movge	r0, #1
	movlt	r0, #0
	poplt	{r4, r5, pc}
	.loc 1 77 58 is_stmt 1 discriminator 2 view .LVU247
	.loc 1 77 85 is_stmt 0 discriminator 2 view .LVU248
	sub	r1, r1, r5
.LVL66:
	.loc 1 77 95 discriminator 2 view .LVU249
	sub	r2, r2, r4
.LVL67:
	.loc 1 77 92 discriminator 2 view .LVU250
	ldr	r0, .L40
	add	r1, r1, r1, lsl #3
	add	r1, r1, r2
	add	r0, r1, r0
	ldr	r0, [r3, r0, lsl #2]
	.loc 1 79 1 view .LVU251
	pop	{r4, r5, pc}
.L41:
	.align	2
.L40:
	.word	2979910
	.cfi_endproc
.LFE134:
	.size	World_GetChunk, .-World_GetChunk
	.section	.text.World_GetBlock,"ax",%progbits
	.align	2
	.global	World_GetBlock
	.syntax unified
	.arm
	.type	World_GetBlock, %function
World_GetBlock:
.LVL68:
.LFB135:
	.loc 1 81 57 is_stmt 1 view -0
	.cfi_startproc
	@ args = 0, pretend = 0, frame = 0
	@ frame_needed = 0, uses_anonymous_args = 0
	.loc 1 82 2 view .LVU253
	.loc 1 82 5 is_stmt 0 view .LVU254
	cmp	r2, #127
	bhi	.L44
	.loc 1 83 2 is_stmt 1 view .LVU255
.LVL69:
.LBB262:
.LBI262:
	.file 5 "C:/Users/Elias/CLionProjects/3DSCraft/include/world/World.h"
	.loc 5 51 19 view .LVU256
.LBB263:
	.loc 5 51 46 view .LVU257
	.loc 5 51 56 is_stmt 0 view .LVU258
	add	ip, r1, r1, lsr #31
.LBE263:
.LBE262:
	.loc 1 81 57 view .LVU259
	push	{r4, r5, r6, r7, r8, lr}
	.cfi_def_cfa_offset 24
	.cfi_offset 4, -24
	.cfi_offset 5, -20
	.cfi_offset 6, -16
	.cfi_offset 7, -12
	.cfi_offset 8, -8
	.cfi_offset 14, -4
.LBB268:
.LBB264:
	.loc 5 51 72 view .LVU260
	cmp	ip, #0
	mov	r6, r0
.LBE264:
.LBE268:
.LBB269:
.LBB270:
	.loc 5 51 56 view .LVU261
	add	r0, r3, r3, lsr #31
.LVL70:
	.loc 5 51 56 view .LVU262
.LBE270:
.LBE269:
.LBB274:
.LBB265:
	.loc 5 51 72 view .LVU263
	add	r5, ip, #15
	movge	r5, ip
.LBE265:
.LBE274:
.LBB275:
.LBB271:
	cmp	r0, #0
	add	ip, r0, #15
	movge	ip, r0
.LBE271:
.LBE275:
.LBB276:
.LBB277:
	.loc 1 73 18 view .LVU264
	ldr	r8, [r6, #32]
	.loc 1 74 18 view .LVU265
	ldr	r0, [r6, #36]
.LBE277:
.LBE276:
.LBB280:
.LBB266:
	.loc 5 51 72 view .LVU266
	asr	r5, r5, #4
.LBE266:
.LBE280:
.LBB281:
.LBB272:
	asr	ip, ip, #4
.LBE272:
.LBE281:
.LBB282:
.LBB278:
	.loc 1 73 6 view .LVU267
	sub	r4, r8, #4
	.loc 1 74 6 view .LVU268
	sub	r7, r0, #4
.LBE278:
.LBE282:
.LBB283:
.LBB267:
	.loc 5 51 79 view .LVU269
	sub	r5, r5, r1, lsr #31
.LVL71:
	.loc 5 51 79 view .LVU270
.LBE267:
.LBE283:
.LBB284:
.LBI269:
	.loc 5 51 19 is_stmt 1 view .LVU271
.LBB273:
	.loc 5 51 46 view .LVU272
	.loc 5 51 79 is_stmt 0 view .LVU273
	sub	ip, ip, r3, lsr #31
.LVL72:
	.loc 5 51 79 view .LVU274
.LBE273:
.LBE284:
.LBB285:
.LBI276:
	.loc 1 71 8 is_stmt 1 view .LVU275
.LBB279:
	.loc 1 72 2 view .LVU276
	.loc 1 73 2 view .LVU277
	.loc 1 74 2 view .LVU278
	.loc 1 75 2 view .LVU279
	.loc 1 76 2 view .LVU280
	.loc 1 77 2 view .LVU281
	.loc 1 77 5 is_stmt 0 view .LVU282
	cmp	r5, r4
	cmpge	ip, r7
	movge	lr, #1
	movlt	lr, #0
	blt	.L45
	.loc 1 76 6 view .LVU283
	add	r0, r0, #4
.LVL73:
	.loc 1 75 6 view .LVU284
	add	r8, r8, #4
.LVL74:
	.loc 1 77 43 discriminator 1 view .LVU285
	cmp	r5, r8
	cmple	ip, r0
	movle	r0, #1
.LVL75:
	.loc 1 77 43 discriminator 1 view .LVU286
	movgt	r0, #0
	popgt	{r4, r5, r6, r7, r8, pc}
	.loc 1 77 58 is_stmt 1 discriminator 2 view .LVU287
	.loc 1 77 85 is_stmt 0 discriminator 2 view .LVU288
	sub	r4, r5, r4
.LVL76:
	.loc 1 77 92 discriminator 2 view .LVU289
	ldr	r0, .L52
	.loc 1 77 95 discriminator 2 view .LVU290
	sub	r7, ip, r7
.LVL77:
	.loc 1 77 92 discriminator 2 view .LVU291
	add	r4, r4, r4, lsl #3
	add	r4, r4, r7
	add	r0, r4, r0
	ldr	r0, [r6, r0, lsl #2]
.LVL78:
	.loc 1 77 92 discriminator 2 view .LVU292
.LBE279:
.LBE285:
	.loc 1 84 2 is_stmt 1 view .LVU293
	.loc 1 84 5 is_stmt 0 view .LVU294
	cmp	r0, #0
	popeq	{r4, r5, r6, r7, r8, pc}
	.loc 1 84 13 is_stmt 1 discriminator 1 view .LVU295
.LVL79:
.LBB286:
.LBI286:
	.loc 5 52 19 view .LVU296
.LBB287:
	.loc 5 52 46 view .LVU297
	.loc 5 52 46 is_stmt 0 view .LVU298
.LBE287:
.LBE286:
.LBB289:
.LBI289:
	.loc 5 52 19 is_stmt 1 view .LVU299
.LBB290:
	.loc 5 52 46 view .LVU300
	.loc 5 52 46 is_stmt 0 view .LVU301
.LBE290:
.LBE289:
.LBB292:
.LBI292:
	.loc 2 106 14 is_stmt 1 view .LVU302
.LBB293:
	.loc 2 107 2 view .LVU303
.LBE293:
.LBE292:
.LBB296:
.LBB291:
	.loc 5 52 55 is_stmt 0 discriminator 1 view .LVU304
	sub	r3, r3, ip, lsl #4
.LVL80:
	.loc 5 52 55 discriminator 1 view .LVU305
.LBE291:
.LBE296:
.LBB297:
.LBB294:
	.loc 2 107 27 view .LVU306
	asr	ip, r2, #4
	.loc 2 107 67 view .LVU307
	add	lr, ip, ip, lsl #8
.LBE294:
.LBE297:
.LBB298:
.LBB288:
	.loc 5 52 55 discriminator 1 view .LVU308
	sub	r1, r1, r5, lsl #4
.LVL81:
	.loc 5 52 55 discriminator 1 view .LVU309
.LBE288:
.LBE298:
.LBB299:
.LBB295:
	.loc 2 107 67 view .LVU310
	add	ip, ip, lr, lsl #1
	.loc 2 107 47 view .LVU311
	and	r2, r2, #15
.LVL82:
	.loc 2 107 67 view .LVU312
	add	ip, ip, r1, lsl #4
	add	ip, ip, r2
	add	r0, r0, ip, lsl #4
.LVL83:
	.loc 2 107 67 view .LVU313
	add	r0, r0, r3
	ldrb	r0, [r0, #28]	@ zero_extendqisi2
.LVL84:
	.loc 2 107 67 view .LVU314
.LBE295:
.LBE299:
	.loc 1 84 20 view .LVU315
	pop	{r4, r5, r6, r7, r8, pc}
.LVL85:
.L44:
	.cfi_def_cfa_offset 0
	.cfi_restore 4
	.cfi_restore 5
	.cfi_restore 6
	.cfi_restore 7
	.cfi_restore 8
	.cfi_restore 14
	.loc 1 82 34 discriminator 1 view .LVU316
	mov	r0, #0
.LVL86:
	.loc 1 86 1 view .LVU317
	bx	lr
.LVL87:
.L45:
	.cfi_def_cfa_offset 24
	.cfi_offset 4, -24
	.cfi_offset 5, -20
	.cfi_offset 6, -16
	.cfi_offset 7, -12
	.cfi_offset 8, -8
	.cfi_offset 14, -4
	.loc 1 82 34 discriminator 1 view .LVU318
	mov	r0, lr
.LVL88:
	.loc 1 86 1 view .LVU319
	pop	{r4, r5, r6, r7, r8, pc}
.L53:
	.align	2
.L52:
	.word	2979910
	.cfi_endproc
.LFE135:
	.size	World_GetBlock, .-World_GetBlock
	.section	.text.World_SetBlock,"ax",%progbits
	.align	2
	.global	World_SetBlock
	.syntax unified
	.arm
	.type	World_SetBlock, %function
World_SetBlock:
.LVL89:
.LFB136:
	.loc 1 103 69 is_stmt 1 view -0
	.cfi_startproc
	@ args = 4, pretend = 0, frame = 8
	@ frame_needed = 0, uses_anonymous_args = 0
	.loc 1 104 2 view .LVU321
	.loc 1 103 69 is_stmt 0 view .LVU322
	push	{r4, r5, r6, r7, r8, r9, r10, fp, lr}
	.cfi_def_cfa_offset 36
	.cfi_offset 4, -36
	.cfi_offset 5, -32
	.cfi_offset 6, -28
	.cfi_offset 7, -24
	.cfi_offset 8, -20
	.cfi_offset 9, -16
	.cfi_offset 10, -12
	.cfi_offset 11, -8
	.cfi_offset 14, -4
	.loc 1 104 5 view .LVU323
	cmp	r2, #127
	.loc 1 103 69 view .LVU324
	sub	sp, sp, #12
	.cfi_def_cfa_offset 48
	.loc 1 103 69 view .LVU325
	ldrb	r10, [sp, #48]	@ zero_extendqisi2
	str	r0, [sp]
	.loc 1 104 5 view .LVU326
	bhi	.L54
	.loc 1 105 2 is_stmt 1 view .LVU327
.LVL90:
.LBB335:
.LBI335:
	.loc 5 51 19 view .LVU328
.LBB336:
	.loc 5 51 46 view .LVU329
	mov	r6, r2
	.loc 5 51 56 is_stmt 0 view .LVU330
	add	r2, r1, r1, lsr #31
.LVL91:
	.loc 5 51 72 view .LVU331
	cmp	r2, #0
	mov	r4, r3
.LBE336:
.LBE335:
.LBB340:
.LBB341:
	.loc 5 51 56 view .LVU332
	add	r3, r3, r3, lsr #31
.LVL92:
	.loc 5 51 56 view .LVU333
.LBE341:
.LBE340:
.LBB345:
.LBB337:
	.loc 5 51 72 view .LVU334
	add	r5, r2, #15
	movge	r5, r2
.LBE337:
.LBE345:
.LBB346:
.LBB342:
	cmp	r3, #0
	add	r2, r3, #15
	movge	r2, r3
.LBE342:
.LBE346:
.LBB347:
.LBB338:
	asr	r5, r5, #4
.LBE338:
.LBE347:
.LBB348:
.LBB343:
	asr	r2, r2, #4
.LBE343:
.LBE348:
.LBB349:
.LBB339:
	.loc 5 51 79 view .LVU335
	sub	r5, r5, r1, lsr #31
.LVL93:
	.loc 5 51 79 view .LVU336
.LBE339:
.LBE349:
	.loc 1 106 2 is_stmt 1 view .LVU337
.LBB350:
.LBI340:
	.loc 5 51 19 view .LVU338
.LBB344:
	.loc 5 51 46 view .LVU339
	.loc 5 51 79 is_stmt 0 view .LVU340
	sub	r9, r2, r4, lsr #31
.LVL94:
	.loc 5 51 79 view .LVU341
.LBE344:
.LBE350:
	.loc 1 107 2 is_stmt 1 view .LVU342
	mov	r8, r1
	.loc 1 107 17 is_stmt 0 view .LVU343
	mov	r2, r9
	mov	r1, r5
.LVL95:
	.loc 1 107 17 view .LVU344
	bl	World_GetChunk
.LVL96:
	.loc 1 108 2 is_stmt 1 view .LVU345
	.loc 1 108 5 is_stmt 0 view .LVU346
	subs	r7, r0, #0
	beq	.L54
.LBB351:
	.loc 1 109 3 is_stmt 1 view .LVU347
.LVL97:
.LBB352:
.LBI352:
	.loc 5 52 19 view .LVU348
.LBB353:
	.loc 5 52 46 view .LVU349
	.loc 5 52 55 is_stmt 0 discriminator 1 view .LVU350
	sub	r1, r8, r5, lsl #4
.LVL98:
	.loc 5 52 55 discriminator 1 view .LVU351
.LBE353:
.LBE352:
	.loc 1 110 3 is_stmt 1 view .LVU352
.LBB354:
.LBI354:
	.loc 5 52 19 view .LVU353
.LBB355:
	.loc 5 52 46 view .LVU354
.LBE355:
.LBE354:
.LBB357:
.LBB358:
	.loc 2 111 40 is_stmt 0 view .LVU355
	asr	r8, r6, #4
.LVL99:
	.loc 2 112 47 view .LVU356
	add	r0, r8, r8, lsl #8
.LVL100:
	.loc 2 112 47 view .LVU357
	add	r0, r8, r0, lsl #1
.LBB359:
.LBB360:
	.loc 2 101 8 view .LVU358
	lsl	fp, r0, #4
.LBE360:
.LBE359:
	.loc 2 112 23 view .LVU359
	and	r3, r6, #15
	.loc 2 112 47 view .LVU360
	add	r0, r0, r1, lsl #4
	add	r0, r0, r3
.LBB367:
.LBB361:
	.loc 2 101 8 view .LVU361
	add	r3, r3, r1, lsl #4
	add	r3, fp, r3, lsl #4
.LBE361:
.LBE367:
.LBE358:
.LBE357:
.LBB376:
.LBB356:
	.loc 5 52 55 discriminator 1 view .LVU362
	sub	r4, r4, r9, lsl #4
.LVL101:
	.loc 5 52 55 discriminator 1 view .LVU363
.LBE356:
.LBE376:
	.loc 1 111 3 is_stmt 1 view .LVU364
.LBB377:
.LBI357:
	.loc 2 110 13 view .LVU365
.LBB373:
	.loc 2 111 2 view .LVU366
	.loc 2 112 2 view .LVU367
	.loc 2 112 47 is_stmt 0 view .LVU368
	add	r0, r7, r0, lsl #4
.LBB368:
.LBB362:
	.loc 2 101 8 view .LVU369
	add	r3, r7, r3
.LBE362:
.LBE368:
	.loc 2 112 47 view .LVU370
	add	r0, r0, r4
.LBB369:
.LBB363:
	.loc 2 101 8 view .LVU371
	add	r3, r3, r4
.LBE363:
.LBE369:
	.loc 2 112 47 view .LVU372
	strb	r10, [r0, #28]
	.loc 2 113 2 is_stmt 1 view .LVU373
.LVL102:
.LBB370:
.LBI359:
	.loc 2 97 13 view .LVU374
.LBB364:
	.loc 2 98 2 view .LVU375
	.loc 2 99 2 view .LVU376
	.loc 2 100 2 view .LVU377
	.loc 2 101 2 view .LVU378
	.loc 2 101 8 is_stmt 0 view .LVU379
	add	r3, r3, #4096
	ldrb	r0, [r3, #28]	@ zero_extendqisi2
	.loc 2 103 2 view .LVU380
	add	r10, r7, #65536
.LVL103:
	.loc 2 101 8 view .LVU381
	bic	r0, r0, #15
	strb	r0, [r3, #28]
.LVL104:
	.loc 2 102 2 is_stmt 1 view .LVU382
	add	r3, r7, fp
	add	r3, r3, #8192
	ldr	r0, [r3, #28]
.LBE364:
.LBE370:
.LBE373:
.LBE377:
	.loc 1 113 6 is_stmt 0 view .LVU383
	cmp	r1, #0
.LBB378:
.LBB374:
.LBB371:
.LBB365:
	.loc 2 102 2 view .LVU384
	add	r0, r0, #1
	str	r0, [r3, #28]
	.loc 2 103 2 is_stmt 1 view .LVU385
	ldr	r0, [r10, #668]
.LBE365:
.LBE371:
	.loc 2 112 47 is_stmt 0 view .LVU386
	lsl	r3, r8, #8
.LBB372:
.LBB366:
	.loc 2 103 2 view .LVU387
	add	r0, r0, #1
	str	r0, [r10, #668]
.LVL105:
	.loc 2 103 2 view .LVU388
.LBE366:
.LBE372:
.LBE374:
.LBE378:
	.loc 1 113 3 is_stmt 1 view .LVU389
.LBB379:
.LBB375:
	.loc 2 112 47 is_stmt 0 view .LVU390
	str	r3, [sp, #4]
.LBE375:
.LBE379:
	.loc 1 113 6 view .LVU391
	beq	.L84
	.loc 1 113 159 is_stmt 1 discriminator 5 view .LVU392
	.loc 1 113 162 is_stmt 0 discriminator 5 view .LVU393
	cmp	r1, #15
	bne	.L59
.LBB380:
	.loc 1 113 175 is_stmt 1 discriminator 6 view .LVU394
	.loc 1 113 199 is_stmt 0 discriminator 6 view .LVU395
	mov	r2, r9
	ldr	r0, [sp]
	add	r1, r5, #1
.LVL106:
	.loc 1 113 199 discriminator 6 view .LVU396
	bl	World_GetChunk
.LVL107:
	.loc 1 113 238 is_stmt 1 discriminator 1 view .LVU397
	.loc 1 113 241 is_stmt 0 discriminator 1 view .LVU398
	cmp	r0, #0
	.loc 1 113 241 discriminator 1 view .LVU399
	beq	.L59
.LVL108:
.L82:
	.loc 1 113 258 is_stmt 1 discriminator 8 view .LVU400
.LBB381:
.LBI381:
	.loc 2 83 13 view .LVU401
.LBB382:
	.loc 2 84 2 view .LVU402
	.loc 2 84 42 is_stmt 0 view .LVU403
	mov	r1, #1
	add	fp, r0, fp
	add	fp, fp, #8256
	.loc 2 85 24 view .LVU404
	add	r0, r0, #65536
.LVL109:
	.loc 2 84 42 view .LVU405
	strb	r1, [fp, #4]
.LVL110:
	.loc 2 85 2 is_stmt 1 view .LVU406
	.loc 2 85 24 is_stmt 0 view .LVU407
	strb	r1, [r0, #676]
.LVL111:
.L59:
	.loc 2 85 24 view .LVU408
.LBE382:
.LBE381:
.LBE380:
	.loc 1 113 315 is_stmt 1 discriminator 10 view .LVU409
	.loc 1 113 318 is_stmt 0 discriminator 10 view .LVU410
	cmp	r4, #0
	bne	.L60
.LBB383:
	.loc 1 113 330 is_stmt 1 discriminator 11 view .LVU411
	.loc 1 113 354 is_stmt 0 discriminator 11 view .LVU412
	mov	r1, r5
	ldr	r0, [sp]
	sub	r2, r9, #1
	bl	World_GetChunk
.LVL112:
	.loc 1 113 394 is_stmt 1 discriminator 1 view .LVU413
	.loc 1 113 397 is_stmt 0 discriminator 1 view .LVU414
	cmp	r0, #0
	.loc 1 113 397 discriminator 1 view .LVU415
	beq	.L61
.LVL113:
.L83:
	.loc 1 113 397 discriminator 1 view .LVU416
.LBE383:
.LBB384:
	.loc 1 113 570 is_stmt 1 discriminator 18 view .LVU417
.LBB385:
.LBI385:
	.loc 2 83 13 view .LVU418
.LBB386:
	.loc 2 84 2 view .LVU419
	.loc 2 84 42 is_stmt 0 view .LVU420
	mov	r1, #1
	lsl	r3, r8, #8
	add	r2, r3, r8
	add	r2, r8, r2, lsl #1
	add	r2, r0, r2, lsl #4
	add	r2, r2, #8256
	.loc 2 85 24 view .LVU421
	add	r0, r0, #65536
.LVL114:
	.loc 2 84 42 view .LVU422
	strb	r1, [r2, #4]
	.loc 2 85 2 is_stmt 1 view .LVU423
	.loc 2 85 24 is_stmt 0 view .LVU424
	strb	r1, [r0, #676]
.LVL115:
.L61:
	.loc 2 85 24 view .LVU425
.LBE386:
.LBE385:
.LBE384:
	.loc 1 113 627 is_stmt 1 discriminator 20 view .LVU426
.LBB387:
.LBI387:
	.loc 5 52 19 view .LVU427
.LBB388:
	.loc 5 52 46 view .LVU428
.LBE388:
.LBE387:
	.loc 1 113 657 is_stmt 0 discriminator 21 view .LVU429
	cmp	r6, #15
.LBB390:
.LBB389:
	.loc 5 52 78 discriminator 1 view .LVU430
	lsl	r2, r8, #4
.LVL116:
	.loc 5 52 78 discriminator 1 view .LVU431
.LBE389:
.LBE390:
	.loc 1 113 657 discriminator 21 view .LVU432
	movle	r1, #0
	movgt	r1, #1
	cmp	r2, r6
	movne	r1, #0
	cmp	r1, #0
	bne	.L85
	.loc 1 113 729 is_stmt 1 discriminator 25 view .LVU433
.LVL117:
.LBB391:
.LBI391:
	.loc 5 52 19 view .LVU434
.LBB392:
	.loc 5 52 46 view .LVU435
	.loc 5 52 55 is_stmt 0 discriminator 1 view .LVU436
	sub	r2, r6, r2
.LBE392:
.LBE391:
	.loc 1 113 760 discriminator 26 view .LVU437
	cmp	r6, #111
	cmple	r2, #15
	bne	.L54
	.loc 1 113 794 is_stmt 1 discriminator 27 view .LVU438
.LVL118:
.LBB394:
.LBI394:
	.loc 2 83 13 view .LVU439
.LBB395:
	.loc 2 84 2 view .LVU440
	.loc 2 84 42 is_stmt 0 view .LVU441
	mov	r2, #1
	add	r8, r8, r2
.LVL119:
	.loc 2 84 42 view .LVU442
	add	r1, r8, r8, lsl #8
	add	r8, r8, r1, lsl r2
.LVL120:
	.loc 2 84 42 view .LVU443
	add	r7, r7, r8, lsl #4
.LVL121:
	.loc 2 84 42 view .LVU444
	add	r7, r7, #8256
	strb	r2, [r7, #4]
	.loc 2 85 2 is_stmt 1 view .LVU445
	.loc 2 85 24 is_stmt 0 view .LVU446
	strb	r2, [r10, #676]
.LVL122:
.L54:
	.loc 2 85 24 view .LVU447
.LBE395:
.LBE394:
.LBE351:
	.loc 1 115 1 view .LVU448
	add	sp, sp, #12
	.cfi_remember_state
	.cfi_def_cfa_offset 36
	@ sp needed
	pop	{r4, r5, r6, r7, r8, r9, r10, fp, pc}
.LVL123:
.L84:
	.cfi_restore_state
.LBB401:
.LBB396:
	.loc 1 113 18 is_stmt 1 discriminator 1 view .LVU449
	.loc 1 113 42 is_stmt 0 discriminator 1 view .LVU450
	mov	r2, r9
	ldr	r0, [sp]
	sub	r1, r5, #1
.LVL124:
	.loc 1 113 42 discriminator 1 view .LVU451
	bl	World_GetChunk
.LVL125:
	.loc 1 113 82 is_stmt 1 discriminator 1 view .LVU452
	.loc 1 113 85 is_stmt 0 discriminator 1 view .LVU453
	cmp	r0, #0
	.loc 1 113 85 discriminator 1 view .LVU454
	bne	.L82
	b	.L59
.LVL126:
.L60:
	.loc 1 113 85 discriminator 1 view .LVU455
.LBE396:
	.loc 1 113 471 is_stmt 1 discriminator 15 view .LVU456
	.loc 1 113 474 is_stmt 0 discriminator 15 view .LVU457
	cmp	r4, #15
	bne	.L61
.LBB397:
	.loc 1 113 487 is_stmt 1 discriminator 16 view .LVU458
	.loc 1 113 511 is_stmt 0 discriminator 16 view .LVU459
	mov	r1, r5
	ldr	r0, [sp]
	add	r2, r9, #1
	bl	World_GetChunk
.LVL127:
	.loc 1 113 550 is_stmt 1 discriminator 1 view .LVU460
	.loc 1 113 553 is_stmt 0 discriminator 1 view .LVU461
	cmp	r0, #0
	.loc 1 113 553 discriminator 1 view .LVU462
	bne	.L83
	b	.L61
.LVL128:
.L85:
	.loc 1 113 553 discriminator 1 view .LVU463
.LBE397:
	.loc 1 113 679 is_stmt 1 discriminator 23 view .LVU464
.LBB398:
.LBI398:
	.loc 2 83 13 view .LVU465
.LBB399:
	.loc 2 84 2 view .LVU466
	.loc 2 84 42 is_stmt 0 view .LVU467
	mov	r1, #1
	sub	r8, r8, #1
.LVL129:
	.loc 2 84 42 view .LVU468
	add	r2, r8, r8, lsl #8
	add	r8, r8, r2, lsl r1
.LVL130:
	.loc 2 84 42 view .LVU469
	add	r2, r7, r8, lsl #4
	add	r2, r2, #8256
	strb	r1, [r2, #4]
	.loc 2 85 2 is_stmt 1 view .LVU470
	.loc 2 85 24 is_stmt 0 view .LVU471
	strb	r1, [r10, #676]
.LVL131:
	.loc 2 85 24 view .LVU472
.LBE399:
.LBE398:
	.loc 1 113 729 is_stmt 1 discriminator 25 view .LVU473
.LBB400:
	.loc 5 52 19 view .LVU474
.LBB393:
	.loc 5 52 46 view .LVU475
	.loc 5 52 46 is_stmt 0 view .LVU476
	b	.L54
.LBE393:
.LBE400:
.LBE401:
	.cfi_endproc
.LFE136:
	.size	World_SetBlock, .-World_SetBlock
	.section	.text.World_SetBlockAndMeta,"ax",%progbits
	.align	2
	.global	World_SetBlockAndMeta
	.syntax unified
	.arm
	.type	World_SetBlockAndMeta, %function
World_SetBlockAndMeta:
.LVL132:
.LFB137:
	.loc 1 117 94 is_stmt 1 view -0
	.cfi_startproc
	@ args = 8, pretend = 0, frame = 8
	@ frame_needed = 0, uses_anonymous_args = 0
	.loc 1 118 2 view .LVU478
	.loc 1 117 94 is_stmt 0 view .LVU479
	push	{r4, r5, r6, r7, r8, r9, r10, fp, lr}
	.cfi_def_cfa_offset 36
	.cfi_offset 4, -36
	.cfi_offset 5, -32
	.cfi_offset 6, -28
	.cfi_offset 7, -24
	.cfi_offset 8, -20
	.cfi_offset 9, -16
	.cfi_offset 10, -12
	.cfi_offset 11, -8
	.cfi_offset 14, -4
	.loc 1 118 5 view .LVU480
	cmp	r2, #127
	.loc 1 117 94 view .LVU481
	sub	sp, sp, #12
	.cfi_def_cfa_offset 48
	.loc 1 117 94 view .LVU482
	ldrb	r10, [sp, #48]	@ zero_extendqisi2
	ldrb	r8, [sp, #52]	@ zero_extendqisi2
	str	r0, [sp]
	.loc 1 118 5 view .LVU483
	bhi	.L86
	.loc 1 119 2 is_stmt 1 view .LVU484
.LVL133:
.LBB435:
.LBI435:
	.loc 5 51 19 view .LVU485
.LBB436:
	.loc 5 51 46 view .LVU486
	mov	r6, r2
	.loc 5 51 56 is_stmt 0 view .LVU487
	add	r2, r1, r1, lsr #31
.LVL134:
	.loc 5 51 72 view .LVU488
	cmp	r2, #0
	mov	r4, r3
.LBE436:
.LBE435:
.LBB440:
.LBB441:
	.loc 5 51 56 view .LVU489
	add	r3, r3, r3, lsr #31
.LVL135:
	.loc 5 51 56 view .LVU490
.LBE441:
.LBE440:
.LBB445:
.LBB437:
	.loc 5 51 72 view .LVU491
	add	r5, r2, #15
	movge	r5, r2
.LBE437:
.LBE445:
.LBB446:
.LBB442:
	cmp	r3, #0
	add	r2, r3, #15
	movge	r2, r3
.LBE442:
.LBE446:
.LBB447:
.LBB438:
	asr	r5, r5, #4
.LBE438:
.LBE447:
.LBB448:
.LBB443:
	asr	r2, r2, #4
.LBE443:
.LBE448:
.LBB449:
.LBB439:
	.loc 5 51 79 view .LVU492
	sub	r5, r5, r1, lsr #31
.LVL136:
	.loc 5 51 79 view .LVU493
.LBE439:
.LBE449:
	.loc 1 120 2 is_stmt 1 view .LVU494
.LBB450:
.LBI440:
	.loc 5 51 19 view .LVU495
.LBB444:
	.loc 5 51 46 view .LVU496
	.loc 5 51 79 is_stmt 0 view .LVU497
	sub	r9, r2, r4, lsr #31
.LVL137:
	.loc 5 51 79 view .LVU498
.LBE444:
.LBE450:
	.loc 1 121 2 is_stmt 1 view .LVU499
	mov	fp, r1
	.loc 1 121 17 is_stmt 0 view .LVU500
	mov	r2, r9
	mov	r1, r5
.LVL138:
	.loc 1 121 17 view .LVU501
	bl	World_GetChunk
.LVL139:
	.loc 1 122 2 is_stmt 1 view .LVU502
	.loc 1 122 5 is_stmt 0 view .LVU503
	subs	r7, r0, #0
	beq	.L86
.LBB451:
	.loc 1 123 3 is_stmt 1 view .LVU504
.LVL140:
.LBB452:
.LBI452:
	.loc 5 52 19 view .LVU505
.LBB453:
	.loc 5 52 46 view .LVU506
.LBE453:
.LBE452:
.LBB455:
.LBB456:
	.loc 2 120 11 is_stmt 0 view .LVU507
	and	r0, r8, #15
.LVL141:
	.loc 2 118 40 view .LVU508
	asr	r8, r6, #4
	.loc 2 119 47 view .LVU509
	add	ip, r8, r8, lsl #8
.LBE456:
.LBE455:
.LBB461:
.LBB454:
	.loc 5 52 55 discriminator 1 view .LVU510
	sub	r1, fp, r5, lsl #4
.LVL142:
	.loc 5 52 55 discriminator 1 view .LVU511
.LBE454:
.LBE461:
	.loc 1 124 3 is_stmt 1 view .LVU512
.LBB462:
.LBI462:
	.loc 5 52 19 view .LVU513
.LBB463:
	.loc 5 52 46 view .LVU514
.LBE463:
.LBE462:
.LBB465:
.LBB457:
	.loc 2 119 47 is_stmt 0 view .LVU515
	add	ip, r8, ip, lsl #1
	.loc 2 122 8 view .LVU516
	lsl	fp, ip, #4
.LVL143:
	.loc 2 119 23 view .LVU517
	and	r3, r6, #15
	.loc 2 119 47 view .LVU518
	add	ip, ip, r1, lsl #4
	add	ip, ip, r3
	.loc 2 122 8 view .LVU519
	add	r3, r3, r1, lsl #4
	add	r3, fp, r3, lsl #4
.LBE457:
.LBE465:
.LBB466:
.LBB464:
	.loc 5 52 55 discriminator 1 view .LVU520
	sub	r4, r4, r9, lsl #4
.LVL144:
	.loc 5 52 55 discriminator 1 view .LVU521
.LBE464:
.LBE466:
	.loc 1 125 3 is_stmt 1 view .LVU522
.LBB467:
.LBI455:
	.loc 2 117 13 view .LVU523
.LBB458:
	.loc 2 118 2 view .LVU524
	.loc 2 119 2 view .LVU525
	.loc 2 119 47 is_stmt 0 view .LVU526
	add	ip, r7, ip, lsl #4
	.loc 2 122 8 view .LVU527
	add	r3, r7, r3
	.loc 2 119 47 view .LVU528
	add	ip, ip, r4
	.loc 2 122 8 view .LVU529
	add	r3, r3, r4
	.loc 2 119 47 view .LVU530
	strb	r10, [ip, #28]
	.loc 2 120 2 is_stmt 1 view .LVU531
.LVL145:
	.loc 2 121 2 view .LVU532
	.loc 2 122 2 view .LVU533
	.loc 2 122 8 is_stmt 0 view .LVU534
	add	r3, r3, #4096
	ldrb	ip, [r3, #28]	@ zero_extendqisi2
	.loc 2 125 2 view .LVU535
	add	r10, r7, #65536
.LVL146:
	.loc 2 122 8 view .LVU536
	bic	ip, ip, #15
	orr	r0, ip, r0
	strb	r0, [r3, #28]
.LVL147:
	.loc 2 124 2 is_stmt 1 view .LVU537
	add	r3, r7, fp
	add	r3, r3, #8192
	ldr	r0, [r3, #28]
.LBE458:
.LBE467:
	.loc 1 127 6 is_stmt 0 view .LVU538
	cmp	r1, #0
.LBB468:
.LBB459:
	.loc 2 124 2 view .LVU539
	add	r0, r0, #1
	str	r0, [r3, #28]
	.loc 2 125 2 is_stmt 1 view .LVU540
	ldr	r0, [r10, #668]
	.loc 2 119 47 is_stmt 0 view .LVU541
	lsl	r3, r8, #8
	.loc 2 125 2 view .LVU542
	add	r0, r0, #1
	str	r0, [r10, #668]
.LVL148:
	.loc 2 125 2 view .LVU543
.LBE459:
.LBE468:
	.loc 1 127 3 is_stmt 1 view .LVU544
.LBB469:
.LBB460:
	.loc 2 119 47 is_stmt 0 view .LVU545
	str	r3, [sp, #4]
.LBE460:
.LBE469:
	.loc 1 127 6 view .LVU546
	beq	.L116
	.loc 1 127 159 is_stmt 1 discriminator 5 view .LVU547
	.loc 1 127 162 is_stmt 0 discriminator 5 view .LVU548
	cmp	r1, #15
	bne	.L91
.LBB470:
	.loc 1 127 175 is_stmt 1 discriminator 6 view .LVU549
	.loc 1 127 199 is_stmt 0 discriminator 6 view .LVU550
	mov	r2, r9
	ldr	r0, [sp]
	add	r1, r5, #1
.LVL149:
	.loc 1 127 199 discriminator 6 view .LVU551
	bl	World_GetChunk
.LVL150:
	.loc 1 127 238 is_stmt 1 discriminator 1 view .LVU552
	.loc 1 127 241 is_stmt 0 discriminator 1 view .LVU553
	cmp	r0, #0
	.loc 1 127 241 discriminator 1 view .LVU554
	beq	.L91
.LVL151:
.L114:
	.loc 1 127 258 is_stmt 1 discriminator 8 view .LVU555
.LBB471:
.LBI471:
	.loc 2 83 13 view .LVU556
.LBB472:
	.loc 2 84 2 view .LVU557
	.loc 2 84 42 is_stmt 0 view .LVU558
	mov	r1, #1
	add	fp, r0, fp
	add	fp, fp, #8256
	.loc 2 85 24 view .LVU559
	add	r0, r0, #65536
.LVL152:
	.loc 2 84 42 view .LVU560
	strb	r1, [fp, #4]
.LVL153:
	.loc 2 85 2 is_stmt 1 view .LVU561
	.loc 2 85 24 is_stmt 0 view .LVU562
	strb	r1, [r0, #676]
.LVL154:
.L91:
	.loc 2 85 24 view .LVU563
.LBE472:
.LBE471:
.LBE470:
	.loc 1 127 315 is_stmt 1 discriminator 10 view .LVU564
	.loc 1 127 318 is_stmt 0 discriminator 10 view .LVU565
	cmp	r4, #0
	bne	.L92
.LBB473:
	.loc 1 127 330 is_stmt 1 discriminator 11 view .LVU566
	.loc 1 127 354 is_stmt 0 discriminator 11 view .LVU567
	mov	r1, r5
	ldr	r0, [sp]
	sub	r2, r9, #1
	bl	World_GetChunk
.LVL155:
	.loc 1 127 394 is_stmt 1 discriminator 1 view .LVU568
	.loc 1 127 397 is_stmt 0 discriminator 1 view .LVU569
	cmp	r0, #0
	.loc 1 127 397 discriminator 1 view .LVU570
	beq	.L93
.LVL156:
.L115:
	.loc 1 127 397 discriminator 1 view .LVU571
.LBE473:
.LBB474:
	.loc 1 127 570 is_stmt 1 discriminator 18 view .LVU572
.LBB475:
.LBI475:
	.loc 2 83 13 view .LVU573
.LBB476:
	.loc 2 84 2 view .LVU574
	.loc 2 84 42 is_stmt 0 view .LVU575
	mov	r1, #1
	lsl	r3, r8, #8
	add	r2, r3, r8
	add	r2, r8, r2, lsl #1
	add	r2, r0, r2, lsl #4
	add	r2, r2, #8256
	.loc 2 85 24 view .LVU576
	add	r0, r0, #65536
.LVL157:
	.loc 2 84 42 view .LVU577
	strb	r1, [r2, #4]
	.loc 2 85 2 is_stmt 1 view .LVU578
	.loc 2 85 24 is_stmt 0 view .LVU579
	strb	r1, [r0, #676]
.LVL158:
.L93:
	.loc 2 85 24 view .LVU580
.LBE476:
.LBE475:
.LBE474:
	.loc 1 127 627 is_stmt 1 discriminator 20 view .LVU581
.LBB477:
.LBI477:
	.loc 5 52 19 view .LVU582
.LBB478:
	.loc 5 52 46 view .LVU583
.LBE478:
.LBE477:
	.loc 1 127 657 is_stmt 0 discriminator 21 view .LVU584
	cmp	r6, #15
.LBB480:
.LBB479:
	.loc 5 52 78 discriminator 1 view .LVU585
	lsl	r2, r8, #4
.LVL159:
	.loc 5 52 78 discriminator 1 view .LVU586
.LBE479:
.LBE480:
	.loc 1 127 657 discriminator 21 view .LVU587
	movle	r1, #0
	movgt	r1, #1
	cmp	r2, r6
	movne	r1, #0
	cmp	r1, #0
	bne	.L117
	.loc 1 127 729 is_stmt 1 discriminator 25 view .LVU588
.LVL160:
.LBB481:
.LBI481:
	.loc 5 52 19 view .LVU589
.LBB482:
	.loc 5 52 46 view .LVU590
	.loc 5 52 55 is_stmt 0 discriminator 1 view .LVU591
	sub	r2, r6, r2
.LBE482:
.LBE481:
	.loc 1 127 760 discriminator 26 view .LVU592
	cmp	r6, #111
	cmple	r2, #15
	bne	.L86
	.loc 1 127 794 is_stmt 1 discriminator 27 view .LVU593
.LVL161:
.LBB484:
.LBI484:
	.loc 2 83 13 view .LVU594
.LBB485:
	.loc 2 84 2 view .LVU595
	.loc 2 84 42 is_stmt 0 view .LVU596
	mov	r2, #1
	add	r8, r8, r2
.LVL162:
	.loc 2 84 42 view .LVU597
	add	r1, r8, r8, lsl #8
	add	r8, r8, r1, lsl r2
.LVL163:
	.loc 2 84 42 view .LVU598
	add	r7, r7, r8, lsl #4
.LVL164:
	.loc 2 84 42 view .LVU599
	add	r7, r7, #8256
	strb	r2, [r7, #4]
	.loc 2 85 2 is_stmt 1 view .LVU600
	.loc 2 85 24 is_stmt 0 view .LVU601
	strb	r2, [r10, #676]
.LVL165:
.L86:
	.loc 2 85 24 view .LVU602
.LBE485:
.LBE484:
.LBE451:
	.loc 1 129 1 view .LVU603
	add	sp, sp, #12
	.cfi_remember_state
	.cfi_def_cfa_offset 36
	@ sp needed
	pop	{r4, r5, r6, r7, r8, r9, r10, fp, pc}
.LVL166:
.L116:
	.cfi_restore_state
.LBB491:
.LBB486:
	.loc 1 127 18 is_stmt 1 discriminator 1 view .LVU604
	.loc 1 127 42 is_stmt 0 discriminator 1 view .LVU605
	mov	r2, r9
	ldr	r0, [sp]
	sub	r1, r5, #1
.LVL167:
	.loc 1 127 42 discriminator 1 view .LVU606
	bl	World_GetChunk
.LVL168:
	.loc 1 127 82 is_stmt 1 discriminator 1 view .LVU607
	.loc 1 127 85 is_stmt 0 discriminator 1 view .LVU608
	cmp	r0, #0
	.loc 1 127 85 discriminator 1 view .LVU609
	bne	.L114
	b	.L91
.LVL169:
.L92:
	.loc 1 127 85 discriminator 1 view .LVU610
.LBE486:
	.loc 1 127 471 is_stmt 1 discriminator 15 view .LVU611
	.loc 1 127 474 is_stmt 0 discriminator 15 view .LVU612
	cmp	r4, #15
	bne	.L93
.LBB487:
	.loc 1 127 487 is_stmt 1 discriminator 16 view .LVU613
	.loc 1 127 511 is_stmt 0 discriminator 16 view .LVU614
	mov	r1, r5
	ldr	r0, [sp]
	add	r2, r9, #1
	bl	World_GetChunk
.LVL170:
	.loc 1 127 550 is_stmt 1 discriminator 1 view .LVU615
	.loc 1 127 553 is_stmt 0 discriminator 1 view .LVU616
	cmp	r0, #0
	.loc 1 127 553 discriminator 1 view .LVU617
	bne	.L115
	b	.L93
.LVL171:
.L117:
	.loc 1 127 553 discriminator 1 view .LVU618
.LBE487:
	.loc 1 127 679 is_stmt 1 discriminator 23 view .LVU619
.LBB488:
.LBI488:
	.loc 2 83 13 view .LVU620
.LBB489:
	.loc 2 84 2 view .LVU621
	.loc 2 84 42 is_stmt 0 view .LVU622
	mov	r1, #1
	sub	r8, r8, #1
.LVL172:
	.loc 2 84 42 view .LVU623
	add	r2, r8, r8, lsl #8
	add	r8, r8, r2, lsl r1
.LVL173:
	.loc 2 84 42 view .LVU624
	add	r2, r7, r8, lsl #4
	add	r2, r2, #8256
	strb	r1, [r2, #4]
	.loc 2 85 2 is_stmt 1 view .LVU625
	.loc 2 85 24 is_stmt 0 view .LVU626
	strb	r1, [r10, #676]
.LVL174:
	.loc 2 85 24 view .LVU627
.LBE489:
.LBE488:
	.loc 1 127 729 is_stmt 1 discriminator 25 view .LVU628
.LBB490:
	.loc 5 52 19 view .LVU629
.LBB483:
	.loc 5 52 46 view .LVU630
	.loc 5 52 46 is_stmt 0 view .LVU631
	b	.L86
.LBE483:
.LBE490:
.LBE491:
	.cfi_endproc
.LFE137:
	.size	World_SetBlockAndMeta, .-World_SetBlockAndMeta
	.section	.text.World_GetMetadata,"ax",%progbits
	.align	2
	.global	World_GetMetadata
	.syntax unified
	.arm
	.type	World_GetMetadata, %function
World_GetMetadata:
.LVL175:
.LFB138:
	.loc 1 131 62 is_stmt 1 view -0
	.cfi_startproc
	@ args = 0, pretend = 0, frame = 0
	@ frame_needed = 0, uses_anonymous_args = 0
	.loc 1 132 2 view .LVU633
	.loc 1 132 5 is_stmt 0 view .LVU634
	cmp	r2, #127
	bhi	.L120
	.loc 1 133 2 is_stmt 1 view .LVU635
.LVL176:
.LBB504:
.LBI504:
	.loc 5 51 19 view .LVU636
.LBB505:
	.loc 5 51 46 view .LVU637
	.loc 5 51 56 is_stmt 0 view .LVU638
	add	ip, r1, r1, lsr #31
.LBE505:
.LBE504:
	.loc 1 131 62 view .LVU639
	push	{r4, r5, r6, r7, r8, lr}
	.cfi_def_cfa_offset 24
	.cfi_offset 4, -24
	.cfi_offset 5, -20
	.cfi_offset 6, -16
	.cfi_offset 7, -12
	.cfi_offset 8, -8
	.cfi_offset 14, -4
.LBB510:
.LBB506:
	.loc 5 51 72 view .LVU640
	cmp	ip, #0
	mov	r6, r0
.LBE506:
.LBE510:
.LBB511:
.LBB512:
	.loc 5 51 56 view .LVU641
	add	r0, r3, r3, lsr #31
.LVL177:
	.loc 5 51 56 view .LVU642
.LBE512:
.LBE511:
.LBB516:
.LBB507:
	.loc 5 51 72 view .LVU643
	add	r5, ip, #15
	movge	r5, ip
.LBE507:
.LBE516:
.LBB517:
.LBB513:
	cmp	r0, #0
	add	ip, r0, #15
	movge	ip, r0
.LBE513:
.LBE517:
.LBB518:
.LBB519:
	.loc 1 73 18 view .LVU644
	ldr	r8, [r6, #32]
	.loc 1 74 18 view .LVU645
	ldr	r0, [r6, #36]
.LBE519:
.LBE518:
.LBB522:
.LBB508:
	.loc 5 51 72 view .LVU646
	asr	r5, r5, #4
.LBE508:
.LBE522:
.LBB523:
.LBB514:
	asr	ip, ip, #4
.LBE514:
.LBE523:
.LBB524:
.LBB520:
	.loc 1 73 6 view .LVU647
	sub	r4, r8, #4
	.loc 1 74 6 view .LVU648
	sub	r7, r0, #4
.LBE520:
.LBE524:
.LBB525:
.LBB509:
	.loc 5 51 79 view .LVU649
	sub	r5, r5, r1, lsr #31
.LVL178:
	.loc 5 51 79 view .LVU650
.LBE509:
.LBE525:
.LBB526:
.LBI511:
	.loc 5 51 19 is_stmt 1 view .LVU651
.LBB515:
	.loc 5 51 46 view .LVU652
	.loc 5 51 79 is_stmt 0 view .LVU653
	sub	ip, ip, r3, lsr #31
.LVL179:
	.loc 5 51 79 view .LVU654
.LBE515:
.LBE526:
.LBB527:
.LBI518:
	.loc 1 71 8 is_stmt 1 view .LVU655
.LBB521:
	.loc 1 72 2 view .LVU656
	.loc 1 73 2 view .LVU657
	.loc 1 74 2 view .LVU658
	.loc 1 75 2 view .LVU659
	.loc 1 76 2 view .LVU660
	.loc 1 77 2 view .LVU661
	.loc 1 77 5 is_stmt 0 view .LVU662
	cmp	r5, r4
	cmpge	ip, r7
	movge	lr, #1
	movlt	lr, #0
	blt	.L121
	.loc 1 76 6 view .LVU663
	add	r0, r0, #4
.LVL180:
	.loc 1 75 6 view .LVU664
	add	r8, r8, #4
.LVL181:
	.loc 1 77 43 discriminator 1 view .LVU665
	cmp	r5, r8
	cmple	ip, r0
	movle	r0, #1
.LVL182:
	.loc 1 77 43 discriminator 1 view .LVU666
	movgt	r0, #0
	popgt	{r4, r5, r6, r7, r8, pc}
	.loc 1 77 58 is_stmt 1 discriminator 2 view .LVU667
	.loc 1 77 85 is_stmt 0 discriminator 2 view .LVU668
	sub	r4, r5, r4
.LVL183:
	.loc 1 77 92 discriminator 2 view .LVU669
	ldr	r0, .L128
	.loc 1 77 95 discriminator 2 view .LVU670
	sub	r7, ip, r7
.LVL184:
	.loc 1 77 92 discriminator 2 view .LVU671
	add	r4, r4, r4, lsl #3
	add	r4, r4, r7
	add	r0, r4, r0
	ldr	r0, [r6, r0, lsl #2]
.LVL185:
	.loc 1 77 92 discriminator 2 view .LVU672
.LBE521:
.LBE527:
	.loc 1 134 2 is_stmt 1 view .LVU673
	.loc 1 134 5 is_stmt 0 view .LVU674
	cmp	r0, #0
	popeq	{r4, r5, r6, r7, r8, pc}
	.loc 1 134 13 is_stmt 1 discriminator 1 view .LVU675
.LVL186:
.LBB528:
.LBI528:
	.loc 5 52 19 view .LVU676
.LBB529:
	.loc 5 52 46 view .LVU677
	.loc 5 52 46 is_stmt 0 view .LVU678
.LBE529:
.LBE528:
.LBB531:
.LBI531:
	.loc 5 52 19 is_stmt 1 view .LVU679
.LBB532:
	.loc 5 52 46 view .LVU680
	.loc 5 52 46 is_stmt 0 view .LVU681
.LBE532:
.LBE531:
.LBB534:
.LBI534:
	.loc 2 94 16 is_stmt 1 view .LVU682
.LBB535:
	.loc 2 95 2 view .LVU683
.LBE535:
.LBE534:
.LBB538:
.LBB533:
	.loc 5 52 55 is_stmt 0 discriminator 1 view .LVU684
	sub	lr, r3, ip, lsl #4
.LVL187:
	.loc 5 52 55 discriminator 1 view .LVU685
.LBE533:
.LBE538:
.LBB539:
.LBB536:
	.loc 2 95 27 view .LVU686
	asr	ip, r2, #4
	.loc 2 95 74 view .LVU687
	add	r3, ip, ip, lsl #8
.LVL188:
	.loc 2 95 74 view .LVU688
.LBE536:
.LBE539:
.LBB540:
.LBB530:
	.loc 5 52 55 discriminator 1 view .LVU689
	sub	r1, r1, r5, lsl #4
.LVL189:
	.loc 5 52 55 discriminator 1 view .LVU690
.LBE530:
.LBE540:
.LBB541:
.LBB537:
	.loc 2 95 74 view .LVU691
	add	r3, ip, r3, lsl #1
	.loc 2 95 54 view .LVU692
	and	r2, r2, #15
.LVL190:
	.loc 2 95 74 view .LVU693
	add	r2, r2, r1, lsl #4
	lsl	r3, r3, #4
	add	r3, r3, r2, lsl #4
	add	r3, r0, r3
	add	r3, r3, lr
	add	r3, r3, #4096
	.loc 2 95 78 view .LVU694
	ldrb	r0, [r3, #28]	@ zero_extendqisi2
.LVL191:
	.loc 2 95 78 view .LVU695
	and	r0, r0, #15
.LVL192:
	.loc 2 95 78 view .LVU696
.LBE537:
.LBE541:
	.loc 1 134 20 view .LVU697
	pop	{r4, r5, r6, r7, r8, pc}
.LVL193:
.L120:
	.cfi_def_cfa_offset 0
	.cfi_restore 4
	.cfi_restore 5
	.cfi_restore 6
	.cfi_restore 7
	.cfi_restore 8
	.cfi_restore 14
	.loc 1 132 34 discriminator 1 view .LVU698
	mov	r0, #0
.LVL194:
	.loc 1 136 1 view .LVU699
	bx	lr
.LVL195:
.L121:
	.cfi_def_cfa_offset 24
	.cfi_offset 4, -24
	.cfi_offset 5, -20
	.cfi_offset 6, -16
	.cfi_offset 7, -12
	.cfi_offset 8, -8
	.cfi_offset 14, -4
	.loc 1 132 34 discriminator 1 view .LVU700
	mov	r0, lr
.LVL196:
	.loc 1 136 1 view .LVU701
	pop	{r4, r5, r6, r7, r8, pc}
.L129:
	.align	2
.L128:
	.word	2979910
	.cfi_endproc
.LFE138:
	.size	World_GetMetadata, .-World_GetMetadata
	.section	.text.World_SetMetadata,"ax",%progbits
	.align	2
	.global	World_SetMetadata
	.syntax unified
	.arm
	.type	World_SetMetadata, %function
World_SetMetadata:
.LVL197:
.LFB139:
	.loc 1 138 77 is_stmt 1 view -0
	.cfi_startproc
	@ args = 4, pretend = 0, frame = 8
	@ frame_needed = 0, uses_anonymous_args = 0
	.loc 1 139 2 view .LVU703
	.loc 1 138 77 is_stmt 0 view .LVU704
	push	{r4, r5, r6, r7, r8, r9, r10, fp, lr}
	.cfi_def_cfa_offset 36
	.cfi_offset 4, -36
	.cfi_offset 5, -32
	.cfi_offset 6, -28
	.cfi_offset 7, -24
	.cfi_offset 8, -20
	.cfi_offset 9, -16
	.cfi_offset 10, -12
	.cfi_offset 11, -8
	.cfi_offset 14, -4
	.loc 1 139 5 view .LVU705
	cmp	r2, #127
	.loc 1 138 77 view .LVU706
	sub	sp, sp, #12
	.cfi_def_cfa_offset 48
	.loc 1 138 77 view .LVU707
	ldrb	r9, [sp, #48]	@ zero_extendqisi2
	str	r0, [sp]
	.loc 1 139 5 view .LVU708
	bhi	.L130
	.loc 1 140 2 is_stmt 1 view .LVU709
.LVL198:
.LBB575:
.LBI575:
	.loc 5 51 19 view .LVU710
.LBB576:
	.loc 5 51 46 view .LVU711
	mov	r7, r2
	.loc 5 51 56 is_stmt 0 view .LVU712
	add	r2, r1, r1, lsr #31
.LVL199:
	.loc 5 51 72 view .LVU713
	cmp	r2, #0
	mov	r4, r3
.LBE576:
.LBE575:
.LBB580:
.LBB581:
	.loc 5 51 56 view .LVU714
	add	r3, r3, r3, lsr #31
.LVL200:
	.loc 5 51 56 view .LVU715
.LBE581:
.LBE580:
.LBB585:
.LBB577:
	.loc 5 51 72 view .LVU716
	add	r6, r2, #15
	movge	r6, r2
.LBE577:
.LBE585:
.LBB586:
.LBB582:
	cmp	r3, #0
	add	r2, r3, #15
	movge	r2, r3
.LBE582:
.LBE586:
.LBB587:
.LBB578:
	asr	r6, r6, #4
.LBE578:
.LBE587:
.LBB588:
.LBB583:
	asr	r2, r2, #4
.LBE583:
.LBE588:
.LBB589:
.LBB579:
	.loc 5 51 79 view .LVU717
	sub	r6, r6, r1, lsr #31
.LVL201:
	.loc 5 51 79 view .LVU718
.LBE579:
.LBE589:
	.loc 1 141 2 is_stmt 1 view .LVU719
.LBB590:
.LBI580:
	.loc 5 51 19 view .LVU720
.LBB584:
	.loc 5 51 46 view .LVU721
	.loc 5 51 79 is_stmt 0 view .LVU722
	sub	r10, r2, r4, lsr #31
.LVL202:
	.loc 5 51 79 view .LVU723
.LBE584:
.LBE590:
	.loc 1 142 2 is_stmt 1 view .LVU724
	mov	r5, r1
	.loc 1 142 17 is_stmt 0 view .LVU725
	mov	r2, r10
	mov	r1, r6
.LVL203:
	.loc 1 142 17 view .LVU726
	bl	World_GetChunk
.LVL204:
	.loc 1 143 2 is_stmt 1 view .LVU727
	.loc 1 143 5 is_stmt 0 view .LVU728
	subs	r8, r0, #0
	beq	.L130
.LBB591:
	.loc 1 144 3 is_stmt 1 view .LVU729
.LVL205:
.LBB592:
.LBI592:
	.loc 5 52 19 view .LVU730
.LBB593:
	.loc 5 52 46 view .LVU731
.LBE593:
.LBE592:
.LBB595:
.LBB596:
	.loc 2 98 11 is_stmt 0 view .LVU732
	and	r0, r9, #15
.LVL206:
	.loc 2 99 40 view .LVU733
	asr	r9, r7, #4
	.loc 2 101 8 view .LVU734
	add	fp, r9, r9, lsl #8
.LBE596:
.LBE595:
.LBB601:
.LBB594:
	.loc 5 52 55 discriminator 1 view .LVU735
	sub	r1, r5, r6, lsl #4
.LVL207:
	.loc 5 52 55 discriminator 1 view .LVU736
.LBE594:
.LBE601:
	.loc 1 145 3 is_stmt 1 view .LVU737
.LBB602:
.LBI602:
	.loc 5 52 19 view .LVU738
.LBB603:
	.loc 5 52 46 view .LVU739
.LBE603:
.LBE602:
.LBB605:
.LBB597:
	.loc 2 101 8 is_stmt 0 view .LVU740
	add	fp, r9, fp, lsl #1
	.loc 2 100 47 view .LVU741
	and	r3, r7, #15
	.loc 2 101 8 view .LVU742
	lsl	fp, fp, #4
	add	r3, r3, r1, lsl #4
	add	r3, fp, r3, lsl #4
.LBE597:
.LBE605:
.LBB606:
.LBB604:
	.loc 5 52 55 discriminator 1 view .LVU743
	sub	r4, r4, r10, lsl #4
.LVL208:
	.loc 5 52 55 discriminator 1 view .LVU744
.LBE604:
.LBE606:
	.loc 1 146 3 is_stmt 1 view .LVU745
.LBB607:
.LBI595:
	.loc 2 97 13 view .LVU746
.LBB598:
	.loc 2 98 2 view .LVU747
	.loc 2 99 2 view .LVU748
	.loc 2 100 2 view .LVU749
	.loc 2 101 2 view .LVU750
	.loc 2 101 8 is_stmt 0 view .LVU751
	add	r3, r8, r3
	add	r3, r3, r4
	add	r3, r3, #4096
	ldrb	ip, [r3, #28]	@ zero_extendqisi2
	.loc 2 103 2 view .LVU752
	add	r5, r8, #65536
.LVL209:
	.loc 2 101 8 view .LVU753
	bic	ip, ip, #15
	orr	r0, ip, r0
	strb	r0, [r3, #28]
	.loc 2 102 2 is_stmt 1 view .LVU754
	add	r3, r8, fp
	add	r3, r3, #8192
	ldr	r0, [r3, #28]
.LBE598:
.LBE607:
	.loc 1 148 6 is_stmt 0 view .LVU755
	cmp	r1, #0
.LBB608:
.LBB599:
	.loc 2 102 2 view .LVU756
	add	r0, r0, #1
	str	r0, [r3, #28]
	.loc 2 103 2 is_stmt 1 view .LVU757
	ldr	r0, [r5, #668]
	.loc 2 101 8 is_stmt 0 view .LVU758
	lsl	r3, r9, #8
	.loc 2 103 2 view .LVU759
	add	r0, r0, #1
	str	r0, [r5, #668]
.LVL210:
	.loc 2 103 2 view .LVU760
.LBE599:
.LBE608:
	.loc 1 148 3 is_stmt 1 view .LVU761
.LBB609:
.LBB600:
	.loc 2 101 8 is_stmt 0 view .LVU762
	str	r3, [sp, #4]
.LBE600:
.LBE609:
	.loc 1 148 6 view .LVU763
	beq	.L160
	.loc 1 148 159 is_stmt 1 discriminator 5 view .LVU764
	.loc 1 148 162 is_stmt 0 discriminator 5 view .LVU765
	cmp	r1, #15
	bne	.L135
.LBB610:
	.loc 1 148 175 is_stmt 1 discriminator 6 view .LVU766
	.loc 1 148 199 is_stmt 0 discriminator 6 view .LVU767
	mov	r2, r10
	ldr	r0, [sp]
	add	r1, r6, #1
.LVL211:
	.loc 1 148 199 discriminator 6 view .LVU768
	bl	World_GetChunk
.LVL212:
	.loc 1 148 238 is_stmt 1 discriminator 1 view .LVU769
	.loc 1 148 241 is_stmt 0 discriminator 1 view .LVU770
	cmp	r0, #0
	.loc 1 148 241 discriminator 1 view .LVU771
	beq	.L135
.LVL213:
.L158:
	.loc 1 148 258 is_stmt 1 discriminator 8 view .LVU772
.LBB611:
.LBI611:
	.loc 2 83 13 view .LVU773
.LBB612:
	.loc 2 84 2 view .LVU774
	.loc 2 84 42 is_stmt 0 view .LVU775
	mov	r1, #1
	add	fp, r0, fp
	add	fp, fp, #8256
	.loc 2 85 24 view .LVU776
	add	r0, r0, #65536
.LVL214:
	.loc 2 84 42 view .LVU777
	strb	r1, [fp, #4]
.LVL215:
	.loc 2 85 2 is_stmt 1 view .LVU778
	.loc 2 85 24 is_stmt 0 view .LVU779
	strb	r1, [r0, #676]
.LVL216:
.L135:
	.loc 2 85 24 view .LVU780
.LBE612:
.LBE611:
.LBE610:
	.loc 1 148 315 is_stmt 1 discriminator 10 view .LVU781
	.loc 1 148 318 is_stmt 0 discriminator 10 view .LVU782
	cmp	r4, #0
	bne	.L136
.LBB613:
	.loc 1 148 330 is_stmt 1 discriminator 11 view .LVU783
	.loc 1 148 354 is_stmt 0 discriminator 11 view .LVU784
	mov	r1, r6
	ldr	r0, [sp]
	sub	r2, r10, #1
	bl	World_GetChunk
.LVL217:
	.loc 1 148 394 is_stmt 1 discriminator 1 view .LVU785
	.loc 1 148 397 is_stmt 0 discriminator 1 view .LVU786
	cmp	r0, #0
	.loc 1 148 397 discriminator 1 view .LVU787
	beq	.L137
.LVL218:
.L159:
	.loc 1 148 397 discriminator 1 view .LVU788
.LBE613:
.LBB614:
	.loc 1 148 570 is_stmt 1 discriminator 18 view .LVU789
.LBB615:
.LBI615:
	.loc 2 83 13 view .LVU790
.LBB616:
	.loc 2 84 2 view .LVU791
	.loc 2 84 42 is_stmt 0 view .LVU792
	mov	r1, #1
	lsl	r3, r9, #8
	add	r2, r3, r9
	add	r2, r9, r2, lsl #1
	add	r2, r0, r2, lsl #4
	add	r2, r2, #8256
	.loc 2 85 24 view .LVU793
	add	r0, r0, #65536
.LVL219:
	.loc 2 84 42 view .LVU794
	strb	r1, [r2, #4]
	.loc 2 85 2 is_stmt 1 view .LVU795
	.loc 2 85 24 is_stmt 0 view .LVU796
	strb	r1, [r0, #676]
.LVL220:
.L137:
	.loc 2 85 24 view .LVU797
.LBE616:
.LBE615:
.LBE614:
	.loc 1 148 627 is_stmt 1 discriminator 20 view .LVU798
.LBB617:
.LBI617:
	.loc 5 52 19 view .LVU799
.LBB618:
	.loc 5 52 46 view .LVU800
.LBE618:
.LBE617:
	.loc 1 148 657 is_stmt 0 discriminator 21 view .LVU801
	cmp	r7, #15
.LBB620:
.LBB619:
	.loc 5 52 78 discriminator 1 view .LVU802
	lsl	r2, r9, #4
.LVL221:
	.loc 5 52 78 discriminator 1 view .LVU803
.LBE619:
.LBE620:
	.loc 1 148 657 discriminator 21 view .LVU804
	movle	r1, #0
	movgt	r1, #1
	cmp	r2, r7
	movne	r1, #0
	cmp	r1, #0
	bne	.L161
	.loc 1 148 729 is_stmt 1 discriminator 25 view .LVU805
.LVL222:
.LBB621:
.LBI621:
	.loc 5 52 19 view .LVU806
.LBB622:
	.loc 5 52 46 view .LVU807
	.loc 5 52 55 is_stmt 0 discriminator 1 view .LVU808
	sub	r2, r7, r2
.LBE622:
.LBE621:
	.loc 1 148 760 discriminator 26 view .LVU809
	cmp	r7, #111
	cmple	r2, #15
	bne	.L130
	.loc 1 148 794 is_stmt 1 discriminator 27 view .LVU810
.LVL223:
.LBB624:
.LBI624:
	.loc 2 83 13 view .LVU811
.LBB625:
	.loc 2 84 2 view .LVU812
	.loc 2 84 42 is_stmt 0 view .LVU813
	mov	r2, #1
	add	r9, r9, r2
.LVL224:
	.loc 2 84 42 view .LVU814
	add	r1, r9, r9, lsl #8
	add	r9, r9, r1, lsl r2
.LVL225:
	.loc 2 84 42 view .LVU815
	add	r8, r8, r9, lsl #4
.LVL226:
	.loc 2 84 42 view .LVU816
	add	r8, r8, #8256
	strb	r2, [r8, #4]
	.loc 2 85 2 is_stmt 1 view .LVU817
	.loc 2 85 24 is_stmt 0 view .LVU818
	strb	r2, [r5, #676]
.LVL227:
.L130:
	.loc 2 85 24 view .LVU819
.LBE625:
.LBE624:
.LBE591:
	.loc 1 150 1 view .LVU820
	add	sp, sp, #12
	.cfi_remember_state
	.cfi_def_cfa_offset 36
	@ sp needed
	pop	{r4, r5, r6, r7, r8, r9, r10, fp, pc}
.LVL228:
.L160:
	.cfi_restore_state
.LBB631:
.LBB626:
	.loc 1 148 18 is_stmt 1 discriminator 1 view .LVU821
	.loc 1 148 42 is_stmt 0 discriminator 1 view .LVU822
	mov	r2, r10
	ldr	r0, [sp]
	sub	r1, r6, #1
.LVL229:
	.loc 1 148 42 discriminator 1 view .LVU823
	bl	World_GetChunk
.LVL230:
	.loc 1 148 82 is_stmt 1 discriminator 1 view .LVU824
	.loc 1 148 85 is_stmt 0 discriminator 1 view .LVU825
	cmp	r0, #0
	.loc 1 148 85 discriminator 1 view .LVU826
	bne	.L158
	b	.L135
.LVL231:
.L136:
	.loc 1 148 85 discriminator 1 view .LVU827
.LBE626:
	.loc 1 148 471 is_stmt 1 discriminator 15 view .LVU828
	.loc 1 148 474 is_stmt 0 discriminator 15 view .LVU829
	cmp	r4, #15
	bne	.L137
.LBB627:
	.loc 1 148 487 is_stmt 1 discriminator 16 view .LVU830
	.loc 1 148 511 is_stmt 0 discriminator 16 view .LVU831
	mov	r1, r6
	ldr	r0, [sp]
	add	r2, r10, #1
	bl	World_GetChunk
.LVL232:
	.loc 1 148 550 is_stmt 1 discriminator 1 view .LVU832
	.loc 1 148 553 is_stmt 0 discriminator 1 view .LVU833
	cmp	r0, #0
	.loc 1 148 553 discriminator 1 view .LVU834
	bne	.L159
	b	.L137
.LVL233:
.L161:
	.loc 1 148 553 discriminator 1 view .LVU835
.LBE627:
	.loc 1 148 679 is_stmt 1 discriminator 23 view .LVU836
.LBB628:
.LBI628:
	.loc 2 83 13 view .LVU837
.LBB629:
	.loc 2 84 2 view .LVU838
	.loc 2 84 42 is_stmt 0 view .LVU839
	mov	r1, #1
	sub	r9, r9, #1
.LVL234:
	.loc 2 84 42 view .LVU840
	add	r2, r9, r9, lsl #8
	add	r9, r9, r2, lsl r1
.LVL235:
	.loc 2 84 42 view .LVU841
	add	r2, r8, r9, lsl #4
	add	r2, r2, #8256
	strb	r1, [r2, #4]
	.loc 2 85 2 is_stmt 1 view .LVU842
	.loc 2 85 24 is_stmt 0 view .LVU843
	strb	r1, [r5, #676]
.LVL236:
	.loc 2 85 24 view .LVU844
.LBE629:
.LBE628:
	.loc 1 148 729 is_stmt 1 discriminator 25 view .LVU845
.LBB630:
	.loc 5 52 19 view .LVU846
.LBB623:
	.loc 5 52 46 view .LVU847
	.loc 5 52 46 is_stmt 0 view .LVU848
	b	.L130
.LBE623:
.LBE630:
.LBE631:
	.cfi_endproc
.LFE139:
	.size	World_SetMetadata, .-World_SetMetadata
	.section	.text.World_GetHeight,"ax",%progbits
	.align	2
	.global	World_GetHeight
	.syntax unified
	.arm
	.type	World_GetHeight, %function
World_GetHeight:
.LVL237:
.LFB140:
	.loc 1 152 49 is_stmt 1 view -0
	.cfi_startproc
	@ args = 0, pretend = 0, frame = 0
	@ frame_needed = 0, uses_anonymous_args = 0
	.loc 1 153 2 view .LVU850
.LBB645:
.LBI645:
	.loc 5 51 19 view .LVU851
.LBB646:
	.loc 5 51 46 view .LVU852
	.loc 5 51 56 is_stmt 0 view .LVU853
	add	r3, r1, r1, lsr #31
.LBE646:
.LBE645:
	.loc 1 152 49 view .LVU854
	push	{r4, r5, r6, r7, r8, lr}
	.cfi_def_cfa_offset 24
	.cfi_offset 4, -24
	.cfi_offset 5, -20
	.cfi_offset 6, -16
	.cfi_offset 7, -12
	.cfi_offset 8, -8
	.cfi_offset 14, -4
.LBB651:
.LBB647:
	.loc 5 51 72 view .LVU855
	cmp	r3, #0
.LBE647:
.LBE651:
	.loc 1 152 49 view .LVU856
	mov	r4, r0
.LBB652:
.LBB653:
	.loc 5 51 56 view .LVU857
	add	r0, r2, r2, lsr #31
.LVL238:
	.loc 5 51 56 view .LVU858
.LBE653:
.LBE652:
.LBB657:
.LBB648:
	.loc 5 51 72 view .LVU859
	add	lr, r3, #15
	movge	lr, r3
.LBE648:
.LBE657:
.LBB658:
.LBB654:
	cmp	r0, #0
	add	r3, r0, #15
	movge	r3, r0
.LBE654:
.LBE658:
.LBB659:
.LBB660:
	.loc 1 73 18 view .LVU860
	ldr	r7, [r4, #32]
	.loc 1 74 18 view .LVU861
	ldr	r6, [r4, #36]
.LBE660:
.LBE659:
.LBB663:
.LBB649:
	.loc 5 51 72 view .LVU862
	asr	lr, lr, #4
.LBE649:
.LBE663:
.LBB664:
.LBB655:
	asr	r3, r3, #4
.LBE655:
.LBE664:
.LBB665:
.LBB661:
	.loc 1 73 6 view .LVU863
	sub	ip, r7, #4
	.loc 1 74 6 view .LVU864
	sub	r5, r6, #4
.LBE661:
.LBE665:
.LBB666:
.LBB650:
	.loc 5 51 79 view .LVU865
	sub	lr, lr, r1, lsr #31
.LVL239:
	.loc 5 51 79 view .LVU866
.LBE650:
.LBE666:
	.loc 1 154 2 is_stmt 1 view .LVU867
.LBB667:
.LBI652:
	.loc 5 51 19 view .LVU868
.LBB656:
	.loc 5 51 46 view .LVU869
	.loc 5 51 79 is_stmt 0 view .LVU870
	sub	r3, r3, r2, lsr #31
.LVL240:
	.loc 5 51 79 view .LVU871
.LBE656:
.LBE667:
	.loc 1 155 2 is_stmt 1 view .LVU872
.LBB668:
.LBI659:
	.loc 1 71 8 view .LVU873
.LBB662:
	.loc 1 72 2 view .LVU874
	.loc 1 73 2 view .LVU875
	.loc 1 74 2 view .LVU876
	.loc 1 75 2 view .LVU877
	.loc 1 76 2 view .LVU878
	.loc 1 77 2 view .LVU879
	.loc 1 77 5 is_stmt 0 view .LVU880
	cmp	lr, ip
	cmpge	r3, r5
	movge	r0, #1
	movlt	r0, #0
	poplt	{r4, r5, r6, r7, r8, pc}
	.loc 1 75 6 view .LVU881
	add	r7, r7, #4
.LVL241:
	.loc 1 76 6 view .LVU882
	add	r6, r6, #4
.LVL242:
	.loc 1 77 43 discriminator 1 view .LVU883
	cmp	lr, r7
	cmple	r3, r6
	movle	r0, #1
	movgt	r0, #0
	popgt	{r4, r5, r6, r7, r8, pc}
	.loc 1 77 58 is_stmt 1 discriminator 2 view .LVU884
	.loc 1 77 85 is_stmt 0 discriminator 2 view .LVU885
	sub	ip, lr, ip
.LVL243:
	.loc 1 77 92 discriminator 2 view .LVU886
	ldr	r0, .L168
	.loc 1 77 95 discriminator 2 view .LVU887
	sub	r5, r3, r5
.LVL244:
	.loc 1 77 92 discriminator 2 view .LVU888
	add	ip, ip, ip, lsl #3
	add	ip, ip, r5
	add	r0, ip, r0
	ldr	r4, [r4, r0, lsl #2]
.LVL245:
	.loc 1 77 92 discriminator 2 view .LVU889
.LBE662:
.LBE668:
	.loc 1 156 2 is_stmt 1 view .LVU890
	.loc 1 156 5 is_stmt 0 view .LVU891
	cmp	r4, #0
	beq	.L166
.LBB669:
	.loc 1 157 3 is_stmt 1 view .LVU892
.LVL246:
.LBB670:
.LBI670:
	.loc 5 52 19 view .LVU893
.LBB671:
	.loc 5 52 46 view .LVU894
.LBE671:
.LBE670:
.LBB673:
.LBB674:
	.loc 2 90 2 is_stmt 0 view .LVU895
	mov	r0, r4
.LBE674:
.LBE673:
.LBB676:
.LBB672:
	.loc 5 52 55 discriminator 1 view .LVU896
	sub	r6, r1, lr, lsl #4
.LVL247:
	.loc 5 52 55 discriminator 1 view .LVU897
.LBE672:
.LBE676:
	.loc 1 158 3 is_stmt 1 view .LVU898
.LBB677:
.LBI677:
	.loc 5 52 19 view .LVU899
.LBB678:
	.loc 5 52 46 view .LVU900
	.loc 5 52 55 is_stmt 0 discriminator 1 view .LVU901
	sub	r5, r2, r3, lsl #4
.LVL248:
	.loc 5 52 55 discriminator 1 view .LVU902
.LBE678:
.LBE677:
	.loc 1 160 3 is_stmt 1 view .LVU903
.LBB679:
.LBI673:
	.loc 2 89 16 view .LVU904
.LBB675:
	.loc 2 90 2 view .LVU905
	bl	Chunk_GenerateHeightmap
.LVL249:
	.loc 2 91 2 view .LVU906
	.loc 2 91 28 is_stmt 0 view .LVU907
	add	r0, r4, r6, lsl #4
	add	r0, r0, r5
	add	r0, r0, #65536
.LBE675:
.LBE679:
	.loc 1 160 10 discriminator 1 view .LVU908
	ldrb	r0, [r0, #408]	@ zero_extendqisi2
	.loc 1 160 10 view .LVU909
	pop	{r4, r5, r6, r7, r8, pc}
.LVL250:
.L166:
	.loc 1 160 10 view .LVU910
.LBE669:
	.loc 1 162 9 view .LVU911
	mov	r0, r4
.LVL251:
	.loc 1 163 1 view .LVU912
	pop	{r4, r5, r6, r7, r8, pc}
.L169:
	.align	2
.L168:
	.word	2979910
	.cfi_endproc
.LFE140:
	.size	World_GetHeight, .-World_GetHeight
	.section	.text.World_UpdateChunkCache,"ax",%progbits
	.align	2
	.global	World_UpdateChunkCache
	.syntax unified
	.arm
	.type	World_UpdateChunkCache, %function
World_UpdateChunkCache:
.LVL252:
.LFB141:
	.loc 1 165 67 is_stmt 1 view -0
	.cfi_startproc
	@ args = 0, pretend = 0, frame = 360
	@ frame_needed = 0, uses_anonymous_args = 0
	.loc 1 166 2 view .LVU914
	.loc 1 165 67 is_stmt 0 view .LVU915
	push	{r4, r5, r6, r7, r8, r9, r10, fp, lr}
	.cfi_def_cfa_offset 36
	.cfi_offset 4, -36
	.cfi_offset 5, -32
	.cfi_offset 6, -28
	.cfi_offset 7, -24
	.cfi_offset 8, -20
	.cfi_offset 9, -16
	.cfi_offset 10, -12
	.cfi_offset 11, -8
	.cfi_offset 14, -4
	.loc 1 166 21 view .LVU916
	ldr	r8, [r0, #32]
	.loc 1 165 67 view .LVU917
	mov	fp, r0
	.loc 1 166 5 view .LVU918
	cmp	r8, r1
	.loc 1 165 67 view .LVU919
	mov	r5, r1
	mov	r6, r2
	sub	sp, sp, #364
	.cfi_def_cfa_offset 400
	.loc 1 166 5 view .LVU920
	bne	.L171
	.loc 1 166 41 discriminator 1 view .LVU921
	ldr	r2, [r0, #36]
.LVL253:
	.loc 1 166 41 discriminator 1 view .LVU922
	cmp	r2, r6
	beq	.L170
.L171:
.LBB680:
	.loc 1 167 3 is_stmt 1 view .LVU923
	.loc 1 168 3 view .LVU924
	ldr	r1, .L192
.LVL254:
	.loc 1 168 3 is_stmt 0 view .LVU925
	mov	r2, #324
	add	r1, fp, r1
	add	r0, sp, #36
.LVL255:
	.loc 1 168 3 view .LVU926
	bl	memcpy
.LVL256:
	.loc 1 170 3 is_stmt 1 view .LVU927
	.loc 1 171 30 is_stmt 0 view .LVU928
	ldr	r10, [fp, #36]
	.loc 1 173 7 view .LVU929
	sub	r1, r5, r8
	.loc 1 174 7 view .LVU930
	sub	r0, r6, r10
	add	r1, r1, r1, lsl #3
	add	r3, sp, #36
	add	r1, r1, r0
	add	r1, r3, r1, lsl #2
	.loc 1 171 7 view .LVU931
	sub	r3, r10, #4
	str	r3, [sp, #4]
.LBB681:
.LBB682:
.LBB683:
	.loc 1 181 12 view .LVU932
	add	r3, r10, #4
	sub	r10, r5, #4
	mov	r2, r10
	ldr	r9, .L192+4
	str	r3, [sp, #12]
	add	r9, fp, r9
	sub	r3, r6, #4
	mov	r10, r9
	str	r3, [sp, #16]
	mov	r9, r2
	mov	r3, r1
	ldr	lr, .L192+8
.LBE683:
.LBE682:
.LBE681:
	.loc 1 170 7 view .LVU933
	sub	r7, r8, #4
.LVL257:
	.loc 1 171 3 is_stmt 1 view .LVU934
	.loc 1 173 3 view .LVU935
	.loc 1 174 3 view .LVU936
	.loc 1 176 3 view .LVU937
.LBB688:
	.loc 1 176 8 view .LVU938
	.loc 1 176 21 discriminator 1 view .LVU939
	add	lr, fp, lr
.LBB687:
.LBB684:
	.loc 1 180 37 is_stmt 0 discriminator 1 view .LVU940
	add	r8, r8, #4
.LVL258:
	.loc 1 180 37 discriminator 1 view .LVU941
	str	lr, [sp, #20]
	str	r5, [sp, #24]
	str	r6, [sp, #28]
.LVL259:
.L173:
	.loc 1 180 37 discriminator 1 view .LVU942
.LBE684:
	.loc 1 177 22 is_stmt 1 discriminator 1 view .LVU943
	mov	r2, r9
	ldr	r5, [sp, #16]
	mov	r9, r3
	mov	r6, r2
	sub	r4, r10, #36
	str	r3, [sp, #8]
	b	.L176
.LVL260:
.L174:
.LBB685:
	.loc 1 185 32 is_stmt 0 view .LVU944
	mov	r2, r5
	mov	r1, r6
	mov	r0, fp
	bl	World_LoadChunk
.LVL261:
	.loc 1 185 30 discriminator 1 view .LVU945
	str	r0, [r4]
.L175:
	.loc 1 185 30 discriminator 1 view .LVU946
.LBE685:
	.loc 1 177 30 is_stmt 1 discriminator 2 view .LVU947
	.loc 1 177 22 discriminator 1 view .LVU948
	add	r4, r4, #4
	cmp	r4, r10
	add	r9, r9, #4
	add	r5, r5, #1
.LVL262:
	.loc 1 177 22 is_stmt 0 discriminator 1 view .LVU949
	beq	.L191
.LVL263:
.L176:
.LBB686:
	.loc 1 178 5 is_stmt 1 view .LVU950
	.loc 1 179 5 view .LVU951
	.loc 1 180 5 view .LVU952
	.loc 1 185 6 view .LVU953
	.loc 1 180 8 is_stmt 0 view .LVU954
	cmp	r7, r6
	bgt	.L174
	.loc 1 180 61 discriminator 2 view .LVU955
	ldr	r3, [sp, #4]
	cmp	r8, r6
	movlt	r2, #0
	movge	r2, #1
	cmp	r3, r5
	movgt	r2, #0
	cmp	r2, #0
	beq	.L174
	.loc 1 182 6 is_stmt 1 view .LVU956
	.loc 1 180 86 is_stmt 0 discriminator 3 view .LVU957
	ldr	r3, [sp, #12]
	cmp	r3, r5
	blt	.L174
	.loc 1 183 38 view .LVU958
	mov	r2, #0
	.loc 1 182 30 view .LVU959
	ldr	r0, [r9]
	.loc 1 183 38 view .LVU960
	str	r2, [r9]
	.loc 1 182 30 view .LVU961
	str	r0, [r4]
	.loc 1 183 6 is_stmt 1 view .LVU962
	.loc 1 183 38 is_stmt 0 view .LVU963
	b	.L175
.LVL264:
.L191:
	.loc 1 183 38 view .LVU964
.LBE686:
.LBE687:
	.loc 1 176 21 discriminator 1 view .LVU965
	ldr	r2, [sp, #20]
	ldr	r3, [sp, #8]
	.loc 1 176 29 is_stmt 1 discriminator 2 view .LVU966
.LVL265:
	.loc 1 176 21 discriminator 1 view .LVU967
	add	r10, r4, #36
	cmp	r10, r2
	add	r9, r6, #1
	add	r3, r3, #36
	bne	.L173
	ldr	r5, [sp, #24]
.LVL266:
	.loc 1 176 21 is_stmt 0 discriminator 1 view .LVU968
	ldr	r6, [sp, #28]
	add	r7, sp, #72
.LVL267:
	.loc 1 176 21 discriminator 1 view .LVU969
	add	r8, sp, #396
.LVL268:
.L177:
	.loc 1 176 21 discriminator 1 view .LVU970
.LBE688:
.LBB689:
.LBB690:
	.loc 1 191 22 is_stmt 1 discriminator 1 view .LVU971
	sub	r4, r7, #36
.LVL269:
.L179:
	.loc 1 192 5 view .LVU972
	.loc 1 193 6 view .LVU973
	.loc 1 192 21 is_stmt 0 view .LVU974
	ldr	r1, [r4], #4
	.loc 1 192 8 view .LVU975
	cmp	r1, #0
	beq	.L178
	.loc 1 193 6 view .LVU976
	mov	r0, fp
	bl	World_UnloadChunk
.LVL270:
.L178:
	.loc 1 191 30 is_stmt 1 discriminator 2 view .LVU977
	.loc 1 191 22 discriminator 1 view .LVU978
	cmp	r4, r7
	bne	.L179
.LBE690:
	.loc 1 190 29 discriminator 2 view .LVU979
	.loc 1 190 21 discriminator 1 view .LVU980
	add	r7, r4, #36
	cmp	r7, r8
	bne	.L177
.LBE689:
	.loc 1 198 3 view .LVU981
	.loc 1 198 28 is_stmt 0 view .LVU982
	str	r5, [fp, #32]
	.loc 1 199 3 is_stmt 1 view .LVU983
	.loc 1 199 28 is_stmt 0 view .LVU984
	str	r6, [fp, #36]
.LVL271:
.L170:
	.loc 1 199 28 view .LVU985
.LBE680:
	.loc 1 201 1 view .LVU986
	add	sp, sp, #364
	.cfi_def_cfa_offset 36
	@ sp needed
	pop	{r4, r5, r6, r7, r8, r9, r10, fp, pc}
.LVL272:
.L193:
	.loc 1 201 1 view .LVU987
	.align	2
.L192:
	.word	11919640
	.word	11919676
	.word	11920000
	.cfi_endproc
.LFE141:
	.size	World_UpdateChunkCache, .-World_UpdateChunkCache
	.section	.text.World_Tick,"ax",%progbits
	.align	2
	.global	World_Tick
	.syntax unified
	.arm
	.type	World_Tick, %function
World_Tick:
.LVL273:
.LFB142:
	.loc 1 203 31 is_stmt 1 view -0
	.cfi_startproc
	@ args = 0, pretend = 0, frame = 48
	@ frame_needed = 0, uses_anonymous_args = 0
	.loc 1 204 2 view .LVU989
.LBB711:
	.loc 1 204 7 view .LVU990
	.loc 1 204 20 discriminator 1 view .LVU991
.LBE711:
	.loc 1 203 31 is_stmt 0 view .LVU992
	push	{r4, r5, r6, r7, r8, r9, r10, fp, lr}
	.cfi_def_cfa_offset 36
	.cfi_offset 4, -36
	.cfi_offset 5, -32
	.cfi_offset 6, -28
	.cfi_offset 7, -24
	.cfi_offset 8, -20
	.cfi_offset 9, -16
	.cfi_offset 10, -12
	.cfi_offset 11, -8
	.cfi_offset 14, -4
	ldr	r7, .L227
.LBB761:
.LBB712:
.LBB713:
.LBB714:
.LBB715:
	.loc 1 214 14 view .LVU993
	mvn	r6, #0
	add	r7, r0, r7
	mov	r8, r7
.LBE715:
.LBE714:
.LBB740:
	.loc 1 209 5 view .LVU994
	add	r2, r0, #11862016
.LBE740:
.LBE713:
.LBE712:
.LBE761:
	.loc 1 203 31 view .LVU995
	sub	sp, sp, #52
	.cfi_def_cfa_offset 88
.LBB762:
.LBB758:
.LBB752:
.LBB746:
	.loc 1 209 5 view .LVU996
	add	r2, r2, #57344
	str	r0, [sp, #20]
	str	r2, [sp, #16]
.LVL274:
.L195:
	.loc 1 209 5 view .LVU997
.LBE746:
.LBE752:
	.loc 1 205 21 is_stmt 1 discriminator 1 view .LVU998
.LBB753:
	.loc 1 211 10 is_stmt 0 view .LVU999
	cmp	r6, #6
	add	r6, r6, #1
.LVL275:
	.loc 1 211 10 view .LVU1000
	mov	r5, r8
.LBE753:
	.loc 1 205 12 view .LVU1001
	mov	r4, #0
.LBB754:
	.loc 1 211 10 view .LVU1002
	movhi	fp, #0
	movls	fp, #1
.LBB747:
	.loc 1 209 53 view .LVU1003
	add	r7, sp, #24
	str	r6, [sp, #8]
	str	r8, [sp, #12]
	b	.L210
.LVL276:
.L226:
	.loc 1 209 53 view .LVU1004
.LBE747:
	.loc 1 208 45 discriminator 1 view .LVU1005
	ldr	r3, [r6]
	cmp	r3, #0
	beq	.L225
	.loc 1 211 4 is_stmt 1 view .LVU1006
	.loc 1 211 19 is_stmt 0 view .LVU1007
	sub	r2, r4, #1
	.loc 1 211 7 view .LVU1008
	cmp	r2, #6
	movhi	r3, #0
	andls	r3, fp, #1
	cmp	r3, #0
	beq	.L199
.LVL277:
.L223:
	.loc 1 211 7 view .LVU1009
.LBE754:
	.loc 1 205 29 is_stmt 1 discriminator 2 view .LVU1010
	add	r4, r4, #1
.LVL278:
	.loc 1 205 21 discriminator 1 view .LVU1011
.L202:
	.loc 1 205 21 is_stmt 0 discriminator 1 view .LVU1012
.LBE758:
.LBE762:
	.loc 1 203 31 view .LVU1013
	mov	r5, r8
.LVL279:
.L210:
.LBB763:
.LBB759:
.LBB755:
	.loc 1 206 4 is_stmt 1 view .LVU1014
	.loc 1 206 11 is_stmt 0 view .LVU1015
	ldr	r6, [r5, #4]
.LVL280:
	.loc 1 208 4 is_stmt 1 view .LVU1016
	.loc 1 206 11 is_stmt 0 view .LVU1017
	add	r8, r5, #4
	.loc 1 208 7 view .LVU1018
	ldrb	r3, [r6, #12]	@ zero_extendqisi2
	cmp	r3, #0
	beq	.L226
.L196:
	.loc 1 211 4 is_stmt 1 view .LVU1019
	.loc 1 211 19 is_stmt 0 view .LVU1020
	sub	r2, r4, #1
	.loc 1 211 7 view .LVU1021
	cmp	r2, #6
	movhi	r3, #0
	andls	r3, fp, #1
	cmp	r3, #0
	beq	.L199
	.loc 1 211 53 discriminator 2 view .LVU1022
	ldrb	r3, [r6, #12]	@ zero_extendqisi2
	cmp	r3, #1
	bne	.L223
	.loc 1 212 47 view .LVU1023
	ldr	r3, [r6]
	cmp	r3, #0
	bne	.L223
.LBB748:
.LBB720:
	.loc 1 214 14 view .LVU1024
	mvn	ip, #0
	sub	r5, r5, #40
.L203:
.LVL281:
.LBB716:
	.loc 1 215 35 is_stmt 1 discriminator 1 view .LVU1025
.LBE716:
.LBE720:
.LBE748:
.LBE755:
	.loc 1 205 12 is_stmt 0 view .LVU1026
	mov	r1, r5
.LBB756:
.LBB749:
.LBB721:
.LBB719:
	.loc 1 215 15 view .LVU1027
	mvn	r3, #0
.LVL282:
.L205:
.LBB717:
	.loc 1 216 7 is_stmt 1 view .LVU1028
	.loc 1 216 14 is_stmt 0 view .LVU1029
	ldr	r2, [r1, #4]!
.LVL283:
	.loc 1 217 7 is_stmt 1 view .LVU1030
.LBE717:
	.loc 1 215 49 is_stmt 0 discriminator 2 view .LVU1031
	add	r3, r3, #1
.LVL284:
.LBB718:
	.loc 1 217 10 view .LVU1032
	ldrb	r0, [r2, #12]	@ zero_extendqisi2
	cmp	r0, #0
	beq	.L224
	.loc 1 217 69 discriminator 2 view .LVU1033
	ldr	r0, [r2]
	.loc 1 217 54 discriminator 2 view .LVU1034
	subs	r2, r0, #0
.LVL285:
	.loc 1 217 54 discriminator 2 view .LVU1035
	movne	r2, #1
.LVL286:
	.loc 1 217 54 discriminator 2 view .LVU1036
.LBE718:
	.loc 1 215 49 is_stmt 1 discriminator 2 view .LVU1037
	.loc 1 215 35 discriminator 1 view .LVU1038
	cmp	r3, #1
	movgt	lr, #0
	andle	lr, r2, #1
	cmp	lr, #0
	bne	.L205
.LBE719:
	.loc 1 214 48 discriminator 2 view .LVU1039
	add	ip, ip, #1
.LVL287:
	.loc 1 214 34 discriminator 1 view .LVU1040
	cmp	ip, #1
	movgt	r2, #0
	andle	r2, r2, #1
	cmp	r2, #0
	add	r5, r5, #36
	bne	.L203
.LVL288:
	.loc 1 214 34 is_stmt 0 discriminator 1 view .LVU1041
.LBE721:
	.loc 1 219 5 is_stmt 1 view .LVU1042
	.loc 1 219 8 is_stmt 0 view .LVU1043
	cmp	r0, #0
	beq	.L224
.LBB722:
	.loc 1 219 16 is_stmt 1 discriminator 1 view .LVU1044
	mov	r3, #3
	.loc 1 219 64 is_stmt 0 discriminator 1 view .LVU1045
	str	r2, [sp, #24]
	strb	r3, [sp, #24]
.LBB723:
.LBB724:
	.loc 4 44 2 view .LVU1046
	mov	r3, #1
.LBE724:
.LBE723:
	.loc 1 219 64 discriminator 1 view .LVU1047
	str	r2, [sp, #32]
	.loc 1 219 16 discriminator 1 view .LVU1048
	ldr	r2, [sp, #20]
	str	r6, [sp, #28]
	add	r5, r2, #11862016
	add	r5, r5, #57344
	ldr	r9, [r5, #616]
.LVL289:
.LBB727:
.LBB725:
	.loc 4 44 2 view .LVU1049
	str	r3, [r6]
	.loc 4 43 24 view .LVU1050
	ldr	r3, [r6, #8]
	add	r10, sp, #36
	str	r3, [sp, #4]
	.loc 4 46 2 view .LVU1051
	add	r6, r9, #20
.LVL290:
	.loc 4 46 2 view .LVU1052
.LBE725:
.LBE727:
	.loc 1 219 64 discriminator 1 view .LVU1053
	add	r3, sp, #24
	ldm	r3, {r0, r1, r2}
.LVL291:
	.loc 1 219 64 discriminator 1 view .LVU1054
	stm	r10, {r0, r1, r2}
.LVL292:
.LBB728:
.LBI723:
	.loc 4 42 13 is_stmt 1 view .LVU1055
.LBB726:
	.loc 4 43 2 view .LVU1056
	.loc 4 44 2 view .LVU1057
	.loc 4 45 2 view .LVU1058
	.loc 4 46 2 view .LVU1059
	mov	r0, r6
	bl	LightLock_Lock
.LVL293:
	.loc 4 47 2 view .LVU1060
	.loc 4 47 4 is_stmt 0 view .LVU1061
	mov	r3, #12
	mov	r0, r9
	add	r2, r9, #8
	add	r1, r9, #4
	bl	vec_expand_
.LVL294:
	.loc 4 47 139 discriminator 1 view .LVU1062
	cmp	r0, #0
	bne	.L207
	.loc 4 47 191 discriminator 1 view .LVU1063
	ldr	r3, [sp, #4]
	.loc 4 47 179 discriminator 1 view .LVU1064
	ldr	r2, [r9, #4]
	.loc 4 47 191 discriminator 1 view .LVU1065
	str	r3, [sp, #44]
	.loc 4 47 157 discriminator 1 view .LVU1066
	ldr	r3, [r9]
	.loc 4 47 191 discriminator 1 view .LVU1067
	add	r1, r2, r2, lsl #1
	add	r3, r3, r1, lsl #2
	.loc 4 47 187 discriminator 1 view .LVU1068
	add	r2, r2, #1
	str	r2, [r9, #4]
.LVL295:
	.loc 4 47 191 discriminator 1 view .LVU1069
	ldm	r10, {r0, r1, r2}
	stm	r3, {r0, r1, r2}
.LVL296:
.L207:
	.loc 4 48 2 is_stmt 1 view .LVU1070
	mov	r0, r6
	bl	LightLock_Unlock
.LVL297:
	.loc 4 50 2 view .LVU1071
	add	r0, r9, #12
	bl	LightEvent_Signal
.LVL298:
	.loc 4 50 2 is_stmt 0 view .LVU1072
.LBE726:
.LBE728:
.LBE722:
.LBB729:
	.loc 1 224 23 is_stmt 1 discriminator 1 view .LVU1073
	b	.L204
.LVL299:
.L199:
	.loc 1 224 23 is_stmt 0 discriminator 1 view .LVU1074
.LBE729:
.LBE749:
.LBE756:
	.loc 1 205 29 is_stmt 1 discriminator 2 view .LVU1075
	add	r4, r4, #1
.LVL300:
	.loc 1 205 21 discriminator 1 view .LVU1076
	cmp	r4, #9
	bne	.L202
.LBE759:
	.loc 1 204 20 is_stmt 0 discriminator 1 view .LVU1077
	ldr	r6, [sp, #8]
.LVL301:
	.loc 1 204 20 discriminator 1 view .LVU1078
	ldr	r8, [sp, #12]
	.loc 1 204 28 is_stmt 1 discriminator 2 view .LVU1079
.LVL302:
	.loc 1 204 20 discriminator 1 view .LVU1080
	cmp	r6, #8
	add	r8, r8, #36
	bne	.L195
.LBE763:
	.loc 1 231 1 is_stmt 0 view .LVU1081
	add	sp, sp, #52
	.cfi_remember_state
	.cfi_def_cfa_offset 36
	@ sp needed
	pop	{r4, r5, r6, r7, r8, r9, r10, fp, pc}
.LVL303:
.L225:
	.cfi_restore_state
.LBB764:
.LBB760:
.LBB757:
.LBB750:
	.loc 1 209 5 is_stmt 1 view .LVU1082
	.loc 1 209 53 is_stmt 0 view .LVU1083
	str	r3, [r7]
	str	r3, [r7, #8]
.LBB741:
.LBB742:
	.loc 4 44 2 view .LVU1084
	mov	r3, #1
	mov	r2, #2
.LBE742:
.LBE741:
	.loc 1 209 5 view .LVU1085
	ldr	r1, [sp, #16]
	str	r6, [sp, #28]
	ldr	r9, [r1, #616]
.LVL304:
.LBB745:
.LBB743:
	.loc 4 44 2 view .LVU1086
	str	r3, [r6]
	.loc 4 43 24 view .LVU1087
	ldr	r3, [r6, #8]
	strb	r2, [sp, #24]
	str	r3, [sp, #4]
	.loc 4 46 2 view .LVU1088
	add	r10, r9, #20
	add	r3, sp, #36
	ldm	r7, {r0, r1, r2}
	stm	r3, {r0, r1, r2}
.LVL305:
	.loc 4 46 2 view .LVU1089
.LBE743:
.LBI741:
	.loc 4 42 13 is_stmt 1 view .LVU1090
.LBB744:
	.loc 4 43 2 view .LVU1091
	.loc 4 44 2 view .LVU1092
	.loc 4 45 2 view .LVU1093
	.loc 4 46 2 view .LVU1094
	mov	r0, r10
	bl	LightLock_Lock
.LVL306:
	.loc 4 47 2 view .LVU1095
	.loc 4 47 4 is_stmt 0 view .LVU1096
	mov	r3, #12
	mov	r0, r9
	add	r2, r9, #8
	add	r1, r9, #4
	bl	vec_expand_
.LVL307:
	.loc 4 47 139 discriminator 1 view .LVU1097
	cmp	r0, #0
	bne	.L198
	.loc 4 47 191 discriminator 1 view .LVU1098
	ldr	r3, [sp, #4]
	.loc 4 47 179 discriminator 1 view .LVU1099
	ldr	r2, [r9, #4]
	.loc 4 47 191 discriminator 1 view .LVU1100
	str	r3, [sp, #44]
	.loc 4 47 157 discriminator 1 view .LVU1101
	ldr	r3, [r9]
	.loc 4 47 191 discriminator 1 view .LVU1102
	add	r1, r2, r2, lsl #1
	.loc 4 47 187 discriminator 1 view .LVU1103
	add	r2, r2, #1
	.loc 4 47 191 discriminator 1 view .LVU1104
	add	r3, r3, r1, lsl #2
	.loc 4 47 187 discriminator 1 view .LVU1105
	str	r2, [r9, #4]
.LVL308:
	.loc 4 47 191 discriminator 1 view .LVU1106
	add	r2, sp, #36
	ldm	r2, {r0, r1, r2}
	stm	r3, {r0, r1, r2}
.LVL309:
.L198:
	.loc 4 48 2 is_stmt 1 view .LVU1107
	mov	r0, r10
	bl	LightLock_Unlock
.LVL310:
	.loc 4 50 2 view .LVU1108
	add	r0, r9, #12
	bl	LightEvent_Signal
.LVL311:
	.loc 4 50 2 is_stmt 0 view .LVU1109
	b	.L196
.LVL312:
.L224:
	.loc 4 50 2 view .LVU1110
	ldr	r3, [sp, #20]
	add	r5, r3, #11862016
	add	r5, r5, #57344
.LVL313:
.L204:
	.loc 4 50 2 view .LVU1111
.LBE744:
.LBE745:
.LBE750:
.LBB751:
.LBB738:
	.loc 1 214 14 view .LVU1112
	mov	r2, #24
	ldr	r3, [r5, #620]
.L208:
.LBE738:
.LBB739:
	.loc 1 225 6 is_stmt 1 view .LVU1113
.LVL314:
.LBB730:
.LBI730:
	.loc 3 11 17 view .LVU1114
.LBB731:
	.loc 3 12 2 view .LVU1115
	.loc 3 12 7 is_stmt 0 view .LVU1116
	eor	r3, r3, r3, lsl #13
	.loc 3 13 2 is_stmt 1 view .LVU1117
	.loc 3 13 7 is_stmt 0 view .LVU1118
	eor	r3, r3, r3, lsr #17
	.loc 3 14 2 is_stmt 1 view .LVU1119
	.loc 3 14 7 is_stmt 0 view .LVU1120
	eor	r3, r3, r3, lsl #5
	.loc 3 15 2 is_stmt 1 view .LVU1121
.LVL315:
	.loc 3 15 2 is_stmt 0 view .LVU1122
.LBE731:
.LBE730:
	.loc 1 226 6 is_stmt 1 view .LVU1123
.LBB732:
.LBI732:
	.loc 3 11 17 view .LVU1124
.LBB733:
	.loc 3 12 2 view .LVU1125
	.loc 3 12 7 is_stmt 0 view .LVU1126
	eor	r3, r3, r3, lsl #13
	.loc 3 13 2 is_stmt 1 view .LVU1127
	.loc 3 13 7 is_stmt 0 view .LVU1128
	eor	r3, r3, r3, lsr #17
	.loc 3 14 2 is_stmt 1 view .LVU1129
	.loc 3 14 7 is_stmt 0 view .LVU1130
	eor	r3, r3, r3, lsl #5
	.loc 3 15 2 is_stmt 1 view .LVU1131
.LVL316:
	.loc 3 15 2 is_stmt 0 view .LVU1132
.LBE733:
.LBE732:
	.loc 1 227 6 is_stmt 1 view .LVU1133
.LBB734:
.LBI734:
	.loc 3 11 17 view .LVU1134
.LBB735:
	.loc 3 12 2 view .LVU1135
	.loc 3 12 7 is_stmt 0 view .LVU1136
	eor	r3, r3, r3, lsl #13
	.loc 3 13 2 is_stmt 1 view .LVU1137
	.loc 3 13 7 is_stmt 0 view .LVU1138
	eor	r3, r3, r3, lsr #17
	.loc 3 14 2 is_stmt 1 view .LVU1139
.LBE735:
.LBE734:
	.loc 1 224 23 is_stmt 0 discriminator 1 view .LVU1140
	subs	r2, r2, #1
.LBB737:
.LBB736:
	.loc 3 14 7 view .LVU1141
	eor	r3, r3, r3, lsl #5
	.loc 3 15 2 is_stmt 1 view .LVU1142
.LVL317:
	.loc 3 15 2 is_stmt 0 view .LVU1143
.LBE736:
.LBE737:
	.loc 1 224 50 is_stmt 1 discriminator 3 view .LVU1144
	.loc 1 224 23 discriminator 1 view .LVU1145
	bne	.L208
	str	r3, [r5, #620]
	b	.L223
.L228:
	.align	2
.L227:
	.word	11919636
.LBE739:
.LBE751:
.LBE757:
.LBE760:
.LBE764:
	.cfi_endproc
.LFE142:
	.size	World_Tick, .-World_Tick
	.text
.Letext0:
	.file 6 "C:/devkitPro/devkitARM/arm-none-eabi/include/machine/_default_types.h"
	.file 7 "C:/devkitPro/devkitARM/arm-none-eabi/include/sys/_stdint.h"
	.file 8 "C:/Users/Elias/CLionProjects/3DSCraft/include/blocks/Block.h"
	.file 9 "C:/devkitPro/devkitARM/lib/gcc/arm-none-eabi/13.2.0/include/stddef.h"
	.file 10 "C:/devkitPro/devkitARM/arm-none-eabi/include/sys/lock.h"
	.file 11 "C:/Users/Elias/CLionProjects/3DSCraft/include/rendering/VBOCache.h"
	.file 12 "C:/devkitPro/libctru/include/3ds/synchronization.h"
	.file 13 "C:/Users/Elias/CLionProjects/3DSCraft/dependencies/vec/vec.h"
	.file 14 "C:/devkitPro/devkitARM/arm-none-eabi/include/string.h"
	.file 15 "<built-in>"
	.file 16 "C:/devkitPro/libctru/include/3ds/types.h"