	.arch armv6k
	.fpu vfp
	.eabi_attribute 28, 1
	.eabi_attribute 20, 1
	.eabi_attribute 21, 1
	.eabi_attribute 23, 3
	.eabi_attribute 24, 1
	.eabi_attribute 25, 1
	.eabi_attribute 26, 1
	.eabi_attribute 30, 2
	.eabi_attribute 34, 1
	.eabi_attribute 18, 4
	.file	"WorldSelect.c"
	.text
.Ltext0:
	.cfi_sections	.debug_frame
	.file 1 "C:/Users/Elias/CLionProjects/3DSCraft/source/gui/WorldSelect.c"
	.section	.rodata.str1.4,"aMS",%progbits,1
	.align	2
.LC0:
	.ascii	"%s/%s\000"
	.section	.text.delete_folder,"ax",%progbits
	.align	2
	.syntax unified
	.arm
	.type	delete_folder, %function
delete_folder:
.LVL0:
.LFB359:
	.loc 1 64 45 view -0
	.cfi_startproc
	@ args = 0, pretend = 0, frame = 0
	@ frame_needed = 1, uses_anonymous_args = 0
	.loc 1 65 2 view .LVU1
	.loc 1 64 45 is_stmt 0 view .LVU2
	push	{r3, r4, r5, r6, r7, r8, r9, r10, fp, lr}
	.cfi_def_cfa_offset 40
	.cfi_offset 3, -40
	.cfi_offset 4, -36
	.cfi_offset 5, -32
	.cfi_offset 6, -28
	.cfi_offset 7, -24
	.cfi_offset 8, -20
	.cfi_offset 9, -16
	.cfi_offset 10, -12
	.cfi_offset 11, -8
	.cfi_offset 14, -4
	add	fp, sp, #36
	.cfi_def_cfa 11, 4
	.loc 1 64 45 view .LVU3
	mov	r7, r0
	.loc 1 65 13 view .LVU4
	bl	opendir
.LVL1:
	.loc 1 65 13 view .LVU5
	mov	r6, r0
	.loc 1 68 16 view .LVU6
	mov	r0, r7
.LVL2:
	.loc 1 66 2 is_stmt 1 view .LVU7
	.loc 1 68 2 view .LVU8
	.loc 1 68 16 is_stmt 0 view .LVU9
	bl	strlen
.LVL3:
	mov	r8, r0
.LVL4:
	.loc 1 70 2 is_stmt 1 view .LVU10
	.loc 1 70 9 view .LVU11
	.loc 1 70 18 is_stmt 0 view .LVU12
	mov	r0, r6
.LVL5:
	.loc 1 70 18 view .LVU13
	bl	readdir
.LVL6:
	.loc 1 70 9 discriminator 1 view .LVU14
	subs	r4, r0, #0
.LBB9:
	.loc 1 76 3 view .LVU15
	ldr	r9, .L19
.LBE9:
	.loc 1 70 9 discriminator 1 view .LVU16
	beq	.L17
.L10:
.LBB10:
	.loc 1 71 8 view .LVU17
	ldrb	r3, [r4, #5]	@ zero_extendqisi2
	.loc 1 70 33 discriminator 1 view .LVU18
	mov	r10, sp
	.loc 1 71 3 is_stmt 1 view .LVU19
	.loc 1 71 8 is_stmt 0 view .LVU20
	cmp	r3, #46
	.loc 1 71 20 view .LVU21
	add	r5, r4, #5
	.loc 1 71 8 view .LVU22
	bne	.L11
	.loc 1 71 8 view .LVU23
	ldrb	r3, [r5, #1]	@ zero_extendqisi2
	cmp	r3, #46
	bne	.L11
	ldrb	r3, [r5, #2]	@ zero_extendqisi2
	.loc 1 71 6 discriminator 1 view .LVU24
	cmp	r3, #0
	bne	.L11
.LVL7:
.L9:
	.loc 1 71 6 discriminator 1 view .LVU25
.LBE10:
	.loc 1 70 18 view .LVU26
	mov	r0, r6
.LBB11:
	mov	sp, r10
.LBE11:
	.loc 1 70 9 is_stmt 1 view .LVU27
	.loc 1 70 18 is_stmt 0 view .LVU28
	bl	readdir
.LVL8:
	.loc 1 70 9 discriminator 1 view .LVU29
	subs	r4, r0, #0
	bne	.L10
.L17:
	.loc 1 84 2 is_stmt 1 view .LVU30
	mov	r0, r6
.LVL9:
	.loc 1 84 2 is_stmt 0 view .LVU31
	bl	closedir
.LVL10:
	.loc 1 86 2 is_stmt 1 view .LVU32
	mov	r0, r7
	bl	rmdir
.LVL11:
	.loc 1 87 1 is_stmt 0 view .LVU33
	sub	sp, fp, #36
	.cfi_remember_state
	.cfi_def_cfa 13, 40
	@ sp needed
	pop	{r3, r4, r5, r6, r7, r8, r9, r10, fp, pc}
.LVL12:
.L11:
	.cfi_restore_state
.LBB12:
	.loc 1 71 40 discriminator 2 view .LVU34
	ldrb	r3, [r4, #5]	@ zero_extendqisi2
	cmp	r3, #46
	bne	.L6
	ldrb	r3, [r5, #1]	@ zero_extendqisi2
	.loc 1 71 36 discriminator 1 view .LVU35
	cmp	r3, #0
	beq	.L9
.L6:
	.loc 1 73 3 is_stmt 1 view .LVU36
	.loc 1 73 18 is_stmt 0 view .LVU37
	mov	r0, r5
.LVL13:
	.loc 1 73 18 view .LVU38
	bl	strlen
.LVL14:
	.loc 1 75 3 is_stmt 1 view .LVU39
	.loc 1 75 23 is_stmt 0 view .LVU40
	add	r0, r0, r8
.LVL15:
	.loc 1 75 8 view .LVU41
	add	r0, r0, #8
.LVL16:
	.loc 1 75 8 view .LVU42
	bic	r0, r0, #7
.LVL17:
	.loc 1 75 8 view .LVU43
	sub	sp, sp, r0
.LVL18:
	.loc 1 76 3 is_stmt 1 view .LVU44
	mov	r3, r5
	mov	r2, r7
	mov	r1, r9
	mov	r0, sp
	bl	sprintf
.LVL19:
	.loc 1 78 3 view .LVU45
	.loc 1 78 6 is_stmt 0 view .LVU46
	ldrb	r3, [r4, #4]	@ zero_extendqisi2
	.loc 1 79 4 view .LVU47
	mov	r0, sp
	.loc 1 78 6 view .LVU48
	cmp	r3, #4
	beq	.L18
	.loc 1 81 4 is_stmt 1 view .LVU49
	bl	unlink
.LVL20:
	b	.L9
.LVL21:
.L18:
	.loc 1 79 4 view .LVU50
	bl	delete_folder
.LVL22:
	.loc 1 79 4 is_stmt 0 view .LVU51
	b	.L9
.L20:
	.align	2
.L19:
	.word	.LC0
.LBE12:
	.cfi_endproc
.LFE359:
	.size	delete_folder, .-delete_folder
	.section	.rodata.str1.4
	.align	2
.LC1:
	.ascii	"sdmc:/craftus_redesigned/saves\000"
	.align	2
.LC2:
	.ascii	"sdmc:/craftus_redesigned/saves/%s/level.mp\000"
	.align	2
.LC3:
	.ascii	"name\000"
	.section	.text.WorldSelect_ScanWorlds,"ax",%progbits
	.align	2
	.global	WorldSelect_ScanWorlds
	.syntax unified
	.arm
	.type	WorldSelect_ScanWorlds, %function
WorldSelect_ScanWorlds:
.LFB358:
	.loc 1 29 31 is_stmt 1 view -0
	.cfi_startproc
	@ args = 0, pretend = 0, frame = 872
	@ frame_needed = 0, uses_anonymous_args = 0
	.loc 1 30 2 view .LVU53
	.loc 1 30 21 is_stmt 0 view .LVU54
	mov	r3, #0
	.loc 1 29 31 view .LVU55
	push	{r4, r5, r6, r7, r8, r9, lr}
	.cfi_def_cfa_offset 28
	.cfi_offset 4, -28
	.cfi_offset 5, -24
	.cfi_offset 6, -20
	.cfi_offset 7, -16
	.cfi_offset 8, -12
	.cfi_offset 9, -8
	.cfi_offset 14, -4
	.loc 1 30 21 view .LVU56
	ldr	r7, .L31
	.loc 1 32 19 view .LVU57
	ldr	r0, .L31+4
	.loc 1 29 31 view .LVU58
	sub	sp, sp, #876
	.cfi_def_cfa_offset 904
	.loc 1 30 21 view .LVU59
	str	r3, [r7, #4]
	.loc 1 32 2 is_stmt 1 view .LVU60
	.loc 1 32 19 is_stmt 0 view .LVU61
	bl	opendir
.LVL23:
	.loc 1 39 3 view .LVU62
	ldr	r6, .L31+8
	.loc 1 32 19 view .LVU63
	mov	r5, r0
.LVL24:
	.loc 1 34 2 is_stmt 1 view .LVU64
	.loc 1 36 2 view .LVU65
	.loc 1 38 2 view .LVU66
	.loc 1 38 8 is_stmt 0 view .LVU67
	b	.L23
.LVL25:
.L26:
	.loc 1 39 3 view .LVU68
	mov	r2, r4
	mov	r1, r6
	add	r0, sp, #360
.LVL26:
	.loc 1 39 3 view .LVU69
	bl	sprintf
.LVL27:
	.loc 1 40 3 is_stmt 1 view .LVU70
	.loc 1 40 7 is_stmt 0 view .LVU71
	mov	r1, #0
	add	r0, sp, #360
	bl	access
.LVL28:
	.loc 1 40 6 discriminator 1 view .LVU72
	cmn	r0, #1
	bne	.L30
.LVL29:
.L23:
	.loc 1 38 9 is_stmt 1 view .LVU73
	.loc 1 38 18 is_stmt 0 view .LVU74
	mov	r0, r5
	bl	readdir
.LVL30:
	.loc 1 39 3 is_stmt 1 view .LVU75
	.loc 1 38 9 is_stmt 0 discriminator 1 view .LVU76
	cmp	r0, #0
	.loc 1 39 70 view .LVU77
	add	r4, r0, #5
	.loc 1 38 9 discriminator 1 view .LVU78
	bne	.L26
	.loc 1 61 2 is_stmt 1 view .LVU79
	mov	r0, r5
.LVL31:
	.loc 1 61 2 is_stmt 0 view .LVU80
	bl	closedir
.LVL32:
	.loc 1 62 1 view .LVU81
	add	sp, sp, #876
	.cfi_remember_state
	.cfi_def_cfa_offset 28
	@ sp needed
	pop	{r4, r5, r6, r7, r8, r9, pc}
.LVL33:
.L30:
	.cfi_restore_state
.LBB13:
	.loc 1 41 4 is_stmt 1 view .LVU82
	.loc 1 42 4 view .LVU83
	mov	r2, #0
	add	r1, sp, #360
	add	r0, sp, #32
	.loc 1 43 24 is_stmt 0 view .LVU84
	add	r9, sp, #4
	.loc 1 42 4 view .LVU85
	bl	mpack_tree_init_file
.LVL34:
	.loc 1 43 4 is_stmt 1 view .LVU86
	.loc 1 46 4 is_stmt 0 view .LVU87
	add	r8, sp, #12
	.loc 1 43 24 view .LVU88
	mov	r0, r9
	add	r1, sp, #32
	bl	mpack_tree_root
.LVL35:
	.loc 1 45 4 is_stmt 1 view .LVU89
	.loc 1 46 4 view .LVU90
	ldm	r9, {r1, r2}
	mov	r0, r8
	ldr	r3, .L31+12
	bl	mpack_node_map_cstr
.LVL36:
	.loc 1 46 4 is_stmt 0 discriminator 1 view .LVU91
	ldm	r8, {r0, r1}
	mov	r3, #12
	add	r2, sp, #20
	bl	mpack_node_copy_utf8_cstr
.LVL37:
	.loc 1 48 4 is_stmt 1 view .LVU92
	.loc 1 48 8 is_stmt 0 view .LVU93
	add	r0, sp, #32
	bl	mpack_tree_destroy
.LVL38:
	.loc 1 52 4 is_stmt 1 view .LVU94
	.loc 1 53 4 view .LVU95
	.loc 1 48 7 is_stmt 0 discriminator 1 view .LVU96
	subs	r8, r0, #0
	bne	.L23
	.loc 1 53 4 view .LVU97
	add	r1, sp, #20
	add	r0, sp, #92
	bl	strcpy
.LVL39:
	.loc 1 54 4 is_stmt 1 view .LVU98
	.loc 1 55 4 is_stmt 0 view .LVU99
	mov	r1, r4
	add	r0, sp, #104
	.loc 1 54 20 view .LVU100
	str	r8, [sp, #88]
	.loc 1 55 4 is_stmt 1 view .LVU101
	bl	strcpy
.LVL40:
	.loc 1 57 4 view .LVU102
	.loc 1 57 6 is_stmt 0 view .LVU103
	ldr	r2, .L31+16
	mov	r3, #272
	sub	r1, r2, #4
	sub	r0, r2, #8
	bl	vec_expand_
.LVL41:
	.loc 1 57 117 discriminator 1 view .LVU104
	cmp	r0, #0
	bne	.L23
	.loc 1 57 145 discriminator 1 view .LVU105
	ldr	r3, [r7, #4]
	.loc 1 57 129 discriminator 1 view .LVU106
	ldr	r0, [r7]
	.loc 1 57 157 discriminator 1 view .LVU107
	add	ip, r3, r3, lsl #4
	mov	r2, #272
	.loc 1 57 153 discriminator 1 view .LVU108
	add	r3, r3, #1
	.loc 1 57 157 discriminator 1 view .LVU109
	add	r1, sp, #88
	add	r0, r0, ip, lsl #4
	.loc 1 57 153 discriminator 1 view .LVU110
	str	r3, [r7, #4]
	.loc 1 57 157 discriminator 1 view .LVU111
	bl	memcpy
.LVL42:
	.loc 1 49 5 is_stmt 1 view .LVU112
	b	.L23
.L32:
	.align	2
.L31:
	.word	.LANCHOR0
	.word	.LC1
	.word	.LC2
	.word	.LC3
	.word	.LANCHOR0+8
.LBE13:
	.cfi_endproc
.LFE358:
	.size	WorldSelect_ScanWorlds, .-WorldSelect_ScanWorlds
	.section	.text.WorldSelect_Init,"ax",%progbits
	.align	2
	.global	WorldSelect_Init
	.syntax unified
	.arm
	.type	WorldSelect_Init, %function
WorldSelect_Init:
.LFB360:
	.loc 1 89 25 view -0
	.cfi_startproc
	@ args = 0, pretend = 0, frame = 0
	@ frame_needed = 0, uses_anonymous_args = 0
	@ link register save eliminated.
	.loc 1 90 2 view .LVU114
	mov	r2, #0
	ldr	r3, .L34
	str	r2, [r3]
	str	r2, [r3, #4]
	str	r2, [r3, #8]
	.loc 1 92 2 view .LVU115
	b	WorldSelect_ScanWorlds
.LVL43:
.L35:
	.align	2
.L34:
	.word	.LANCHOR0
	.cfi_endproc
.LFE360:
	.size	WorldSelect_Init, .-WorldSelect_Init
	.section	.text.WorldSelect_Deinit,"ax",%progbits
	.align	2
	.global	WorldSelect_Deinit
	.syntax unified
	.arm
	.type	WorldSelect_Deinit, %function
WorldSelect_Deinit:
.LFB361:
	.loc 1 95 27 view -0
	.cfi_startproc
	@ args = 0, pretend = 0, frame = 0
	@ frame_needed = 0, uses_anonymous_args = 0
	.loc 1 95 29 view .LVU117
	.loc 1 95 27 is_stmt 0 view .LVU118
	push	{r4, lr}
	.cfi_def_cfa_offset 8
	.cfi_offset 4, -8
	.cfi_offset 14, -4
	.loc 1 95 45 view .LVU119
	ldr	r4, .L38
	.loc 1 95 31 view .LVU120
	ldr	r0, [r4]
	bl	free
.LVL44:
	.loc 1 95 54 discriminator 1 view .LVU121
	mov	r3, #0
	str	r3, [r4]
	str	r3, [r4, #4]
	str	r3, [r4, #8]
	.loc 1 95 98 view .LVU122
	pop	{r4, pc}
.L39:
	.align	2
.L38:
	.word	.LANCHOR0
	.cfi_endproc
.LFE361:
	.size	WorldSelect_Deinit, .-WorldSelect_Deinit
	.section	.rodata.str1.4
	.align	2
.LC4:
	.ascii	"%s\000"
	.align	2
.LC5:
	.ascii	"Play selected world\000"
	.align	2
.LC6:
	.ascii	"New World\000"
	.align	2
.LC7:
	.ascii	"Delete World\000"
	.align	2
.LC8:
	.ascii	"Are you sure?\000"
	.align	2
.LC9:
	.ascii	"No\000"
	.align	2
.LC10:
	.ascii	"Yes\000"
	.align	2
.LC11:
	.ascii	"World type:\000"
	.align	2
.LC12:
	.ascii	"Cancel\000"
	.align	2
.LC13:
	.ascii	"Continue\000"
	.section	.text.WorldSelect_Render,"ax",%progbits
	.align	2
	.global	WorldSelect_Render
	.syntax unified
	.arm
	.type	WorldSelect_Render, %function
WorldSelect_Render:
.LFB362:
	.loc 1 125 27 is_stmt 1 view -0
	.cfi_startproc
	@ args = 0, pretend = 0, frame = 280
	@ frame_needed = 0, uses_anonymous_args = 0
	.loc 1 126 2 view .LVU124
	.loc 1 125 27 is_stmt 0 view .LVU125
	push	{r4, r5, r6, r7, r8, r9, r10, fp, lr}
	.cfi_def_cfa_offset 36
	.cfi_offset 4, -36
	.cfi_offset 5, -32
	.cfi_offset 6, -28
	.cfi_offset 7, -24
	.cfi_offset 8, -20
	.cfi_offset 9, -16
	.cfi_offset 10, -12
	.cfi_offset 11, -8
	.cfi_offset 14, -4
	.loc 1 126 2 view .LVU126
	mov	r0, #2
	.loc 1 125 27 view .LVU127
	sub	sp, sp, #308
	.cfi_def_cfa_offset 344
	.loc 1 126 2 view .LVU128
	bl	SpriteBatch_SetScale
.LVL45:
	.loc 1 128 2 is_stmt 1 view .LVU129
	mov	r0, #4
	bl	SpriteBatch_BindGuiTexture
.LVL46:
	.loc 1 129 2 view .LVU130
.LBB14:
	.loc 1 129 7 view .LVU131
	.loc 1 129 20 discriminator 1 view .LVU132
.LBE14:
	.loc 1 128 2 is_stmt 0 view .LVU133
	mov	r8, #0
	ldr	r4, .L85+40
.LBB19:
.LBB15:
.LBB16:
	.loc 1 132 4 discriminator 2 view .LVU134
	ldr	r10, .L85+44
	ldr	r9, .L85+48
.LVL47:
.L41:
	.loc 1 132 4 discriminator 2 view .LVU135
.LBE16:
	.loc 1 130 21 is_stmt 1 discriminator 1 view .LVU136
	.loc 1 130 12 is_stmt 0 view .LVU137
	mov	r5, #0
.LBB17:
	.loc 1 132 4 discriminator 8 view .LVU138
	mov	r6, #32
.LVL48:
.L46:
	.loc 1 131 3 is_stmt 1 view .LVU139
	.loc 1 131 25 is_stmt 0 view .LVU140
	cmp	r5, #1
	.loc 1 132 4 view .LVU141
	lsl	r1, r5, #5
	.loc 1 131 25 view .LVU142
	ble	.L42
.L80:
	.loc 1 132 4 discriminator 8 view .LVU143
	mov	r7, #0
	.loc 1 131 25 discriminator 1 view .LVU144
	ldrb	r3, [r4, #12]	@ zero_extendqisi2
	.loc 1 132 4 discriminator 8 view .LVU145
	mov	r0, r8
	.loc 1 132 4 discriminator 2 view .LVU146
	cmp	r3, r7
	moveq	ip, r10
	movne	ip, r9
	.loc 1 132 4 discriminator 8 view .LVU147
	mvneq	r2, #3
	mvnne	r2, #9
	mov	r3, #32
	str	r6, [sp, #16]
	str	r6, [sp, #12]
	str	r6, [sp]
	str	r7, [sp, #8]
	str	r7, [sp, #4]
	str	ip, [sp, #20]
	bl	SpriteBatch_PushQuadColor
.LVL49:
.LBE17:
	.loc 1 130 38 is_stmt 1 discriminator 2 view .LVU148
	.loc 1 130 21 discriminator 1 view .LVU149
	cmp	r5, #3
	beq	.L79
	.loc 1 130 21 is_stmt 0 discriminator 1 view .LVU150
	mov	r5, #3
.LVL50:
.LBB18:
	.loc 1 131 3 is_stmt 1 view .LVU151
	.loc 1 131 25 is_stmt 0 view .LVU152
	cmp	r5, #1
	.loc 1 132 4 view .LVU153
	lsl	r1, r5, #5
	.loc 1 131 25 view .LVU154
	bgt	.L80
.L42:
	.loc 1 132 4 discriminator 8 view .LVU155
	mov	r3, #32
	mov	ip, #0
	mvn	r2, #9
	mov	r0, r8
	stm	sp, {r3, ip}
	str	r9, [sp, #20]
	str	r3, [sp, #16]
	str	r3, [sp, #12]
	str	ip, [sp, #8]
	bl	SpriteBatch_PushQuadColor
.LVL51:
.LBE18:
	.loc 1 130 38 is_stmt 1 discriminator 2 view .LVU156
	add	r5, r5, #1
.LVL52:
	.loc 1 130 21 discriminator 1 view .LVU157
	.loc 1 130 21 is_stmt 0 discriminator 1 view .LVU158
	b	.L46
.LVL53:
.L79:
	.loc 1 130 21 discriminator 1 view .LVU159
.LBE15:
	.loc 1 129 37 is_stmt 1 discriminator 2 view .LVU160
	.loc 1 129 20 discriminator 1 view .LVU161
	add	r8, r8, #32
	cmp	r8, #192
	bne	.L41
.LBE19:
	.loc 1 137 2 view .LVU162
	.loc 1 137 16 is_stmt 0 view .LVU163
	ldrb	r6, [r4, #12]	@ zero_extendqisi2
	.loc 1 137 5 view .LVU164
	cmp	r6, #0
	beq	.L81
	.loc 1 176 9 is_stmt 1 view .LVU165
	.loc 1 176 12 is_stmt 0 view .LVU166
	cmp	r6, #1
	beq	.L82
	.loc 1 187 9 is_stmt 1 view .LVU167
	.loc 1 187 12 is_stmt 0 view .LVU168
	cmp	r6, #2
	beq	.L83
	.loc 1 215 1 view .LVU169
	add	sp, sp, #308
	.cfi_remember_state
	.cfi_def_cfa_offset 36
	@ sp needed
	pop	{r4, r5, r6, r7, r8, r9, r10, fp, pc}
.LVL54:
.L81:
	.cfi_restore_state
.LBB20:
	.loc 1 138 3 is_stmt 1 view .LVU170
	.loc 1 139 3 is_stmt 0 view .LVU171
	add	r1, sp, #28
	add	r0, sp, #24
	.loc 1 138 7 view .LVU172
	str	r6, [sp, #24]
	.loc 1 138 22 view .LVU173
	str	r6, [sp, #28]
	.loc 1 139 3 is_stmt 1 view .LVU174
	bl	Gui_GetCursorMovement
.LVL55:
	.loc 1 140 3 view .LVU175
	.loc 1 140 7 is_stmt 0 view .LVU176
	mov	r3, #64
	mov	r2, #160
	mov	r1, r6
	mov	r0, r6
	bl	Gui_IsCursorInside
.LVL56:
	.loc 1 140 6 discriminator 1 view .LVU177
	cmp	r0, #0
	bne	.L48
	.loc 1 141 13 view .LVU178
	vldr.32	s14, [r4, #16]
	.loc 1 145 12 view .LVU179
	vldr.32	s13, .L85
	vmul.f32	s13, s14, s13
.L49:
	.loc 1 144 3 is_stmt 1 view .LVU180
	.loc 1 144 10 is_stmt 0 view .LVU181
	vldr.32	s15, [r4, #20]	@ int
	vcvt.f32.s32	s15, s15
	.loc 1 146 51 view .LVU182
	vcmpe.f32	s13, #0
	.loc 1 144 10 view .LVU183
	vadd.f32	s15, s15, s14
	.loc 1 146 51 view .LVU184
	vmrs	APSR_nzcv, FPSCR
	.loc 1 144 10 view .LVU185
	vcvt.s32.f32	s15, s15
	.loc 1 145 12 view .LVU186
	vstr.32	s13, [r4, #16]
	.loc 1 144 10 view .LVU187
	vmov	r3, s15	@ int
	vstr.32	s15, [r4, #20]	@ int
	.loc 1 145 3 is_stmt 1 view .LVU188
	.loc 1 146 3 view .LVU189
	.loc 1 146 51 is_stmt 0 view .LVU190
	bmi	.L84
	.loc 1 146 6 discriminator 4 view .LVU191
	vldr.32	s15, .L85+4
	vcmpe.f32	s13, s15
	vmrs	APSR_nzcv, FPSCR
	bpl	.L51
.L55:
	.loc 1 146 61 is_stmt 1 discriminator 5 view .LVU192
	.loc 1 146 70 is_stmt 0 discriminator 5 view .LVU193
	mov	r2, #0
	str	r2, [r4, #16]	@ float
.L51:
	.loc 1 148 3 is_stmt 1 view .LVU194
	.loc 1 148 35 is_stmt 0 view .LVU195
	ldr	r1, [r4, #4]
.LVL57:
	.loc 1 149 3 is_stmt 1 view .LVU196
	.loc 1 149 16 is_stmt 0 view .LVU197
	rsb	r2, r1, r1, lsl #28
	.loc 1 149 6 view .LVU198
	cmp	r3, r2, lsl #4
	.loc 1 149 16 view .LVU199
	lsl	r2, r2, #4
	.loc 1 149 30 is_stmt 1 discriminator 1 view .LVU200
	.loc 1 149 37 is_stmt 0 discriminator 1 view .LVU201
	movlt	r3, r2
	strlt	r2, [r4, #20]
	.loc 1 150 3 is_stmt 1 view .LVU202
	.loc 1 150 6 is_stmt 0 view .LVU203
	cmp	r3, #0
	.loc 1 150 19 is_stmt 1 discriminator 1 view .LVU204
	.loc 1 150 26 is_stmt 0 discriminator 1 view .LVU205
	movgt	r3, #0
	strgt	r3, [r4, #20]
	.loc 1 152 3 is_stmt 1 view .LVU206
	.loc 1 153 3 view .LVU207
.LVL58:
	.loc 1 154 3 view .LVU208
	.loc 1 154 6 is_stmt 0 view .LVU209
	cmp	r1, #0
	ble	.L60
	mov	fp, #0
	mov	r7, #10
.LBB21:
	.loc 1 157 5 view .LVU210
	mov	r9, #1
.LBE21:
	.loc 1 154 42 discriminator 1 view .LVU211
	mov	r6, fp
	ldr	r10, .L85+52
	b	.L59
.LVL59:
.L63:
.LBB22:
	.loc 1 162 4 is_stmt 1 view .LVU212
	.loc 1 162 8 is_stmt 0 view .LVU213
	mov	r1, r8
	mov	r3, #14
	mov	r2, #140
	mov	r0, #10
	bl	Gui_EnteredCursorInside
.LVL60:
	.loc 1 165 4 is_stmt 1 view .LVU214
	.loc 1 162 8 is_stmt 0 view .LVU215
	mov	ip, r0
	.loc 1 165 4 view .LVU216
	mov	r8, #0
	.loc 1 162 55 discriminator 1 view .LVU217
	cmp	r5, #63
	movgt	ip, #0
	andle	ip, ip, #1
	.loc 1 165 4 view .LVU218
	mvn	lr, #-2147483648
	.loc 1 162 55 discriminator 1 view .LVU219
	cmp	ip, r8
	.loc 1 163 5 is_stmt 1 view .LVU220
	.loc 1 165 4 is_stmt 0 view .LVU221
	add	ip, sp, #36
	.loc 1 163 19 view .LVU222
	strne	r6, [r10]
	.loc 1 165 4 view .LVU223
	str	ip, [sp, #16]
	ldr	ip, .L85+56
	ldr	r3, .L85+44
	str	ip, [sp, #12]
	ldr	ip, [sp, #28]
	mvn	r2, #5
	mov	r0, #20
	mov	r1, r5
	str	r8, [sp, #8]
	str	lr, [sp, #4]
	str	r9, [sp]
	str	ip, [sp, #20]
	bl	SpriteBatch_PushText
.LVL61:
.LBE22:
	.loc 1 154 112 is_stmt 1 discriminator 3 view .LVU224
	.loc 1 154 71 is_stmt 0 discriminator 2 view .LVU225
	ldr	r3, [r4, #4]
	.loc 1 154 112 discriminator 3 view .LVU226
	add	r6, r6, #1
.LVL62:
	.loc 1 154 71 is_stmt 1 discriminator 2 view .LVU227
	cmp	r3, r6
	add	fp, fp, #272
	add	r7, r7, #16
	ble	.L60
.LVL63:
.L59:
	.loc 1 154 83 is_stmt 0 discriminator 4 view .LVU228
	ldr	r1, [r4]
	mov	r2, #272
	add	r1, r1, fp
	add	r0, sp, #32
	bl	memcpy
.LVL64:
.LBB23:
	.loc 1 155 4 is_stmt 1 view .LVU229
	.loc 1 155 8 is_stmt 0 view .LVU230
	ldr	r5, [r4, #20]
	.loc 1 156 7 view .LVU231
	ldr	r3, [r10]
	.loc 1 155 8 view .LVU232
	add	r5, r7, r5
.LVL65:
	.loc 1 156 4 is_stmt 1 view .LVU233
	.loc 1 156 7 is_stmt 0 view .LVU234
	cmp	r3, r6
	.loc 1 157 5 view .LVU235
	sub	r8, r5, #3
	.loc 1 156 7 view .LVU236
	bne	.L63
	.loc 1 157 5 is_stmt 1 view .LVU237
	ldr	r1, .L85+60
	mov	r3, #140
	str	r1, [sp, #4]
	mvn	r2, #6
	mov	r1, r8
	mov	r0, #10
	str	r9, [sp]
	bl	SpriteBatch_PushSingleColorQuad
.LVL66:
	.loc 1 158 5 view .LVU238
	mov	r0, #10
	ldr	r1, .L85+60
	mov	r3, #140
	str	r1, [sp, #4]
	mvn	r2, #6
	add	r1, r5, r0
	str	r9, [sp]
	bl	SpriteBatch_PushSingleColorQuad
.LVL67:
	.loc 1 159 5 view .LVU239
	mov	ip, #14
	ldr	r1, .L85+60
	mov	r3, #1
	str	r1, [sp, #4]
	mvn	r2, #6
	mov	r1, r8
	mov	r0, #10
	str	ip, [sp]
	bl	SpriteBatch_PushSingleColorQuad
.LVL68:
	.loc 1 160 5 view .LVU240
	mov	r2, #14
	ldr	r3, .L85+60
	mov	r1, r8
	strd	r2, [sp]
	mov	r0, #150
	mov	r3, #1
	mvn	r2, #6
	bl	SpriteBatch_PushSingleColorQuad
.LVL69:
	b	.L63
.LVL70:
.L48:
	.loc 1 160 5 is_stmt 0 view .LVU241
.LBE23:
	.loc 1 141 4 is_stmt 1 view .LVU242
	.loc 1 141 26 is_stmt 0 view .LVU243
	vldr.32	s15, [sp, #28]	@ int
	vldr.32	s12, .L85+8
	vcvt.f32.s32	s15, s15
	.loc 1 141 13 view .LVU244
	vldr.32	s14, [r4, #16]
	.loc 1 142 60 view .LVU245
	vldr.32	s13, .L85+12
	.loc 1 141 13 view .LVU246
	vmla.f32	s14, s15, s12
	.loc 1 142 4 is_stmt 1 view .LVU247
	.loc 1 142 60 is_stmt 0 view .LVU248
	vcmpe.f32	s14, s13
	vmrs	APSR_nzcv, FPSCR
	bgt	.L50
	.loc 1 144 3 is_stmt 1 view .LVU249
	.loc 1 144 10 is_stmt 0 view .LVU250
	vldr.32	s15, [r4, #20]	@ int
	vldr.32	s14, .L85+120
	vcvt.f32.s32	s15, s15
	vsub.f32	s15, s15, s14
	vcvt.s32.f32	s15, s15
	.loc 1 145 12 view .LVU251
	ldr	r3, .L85+64
	.loc 1 144 10 view .LVU252
	vstr.32	s15, [r4, #20]	@ int
	.loc 1 145 3 is_stmt 1 view .LVU253
	.loc 1 146 3 view .LVU254
	.loc 1 145 12 is_stmt 0 view .LVU255
	str	r3, [r4, #16]	@ float
	.loc 1 144 10 view .LVU256
	vmov	r3, s15	@ int
	b	.L51
.L83:
.LBE20:
	.loc 1 188 3 is_stmt 1 view .LVU257
	mov	r1, #10
	mov	r0, r7
	bl	Gui_Offset
.LVL71:
	.loc 1 189 3 view .LVU258
	vldr.32	s0, .L85+16
	bl	Gui_RelativeWidth
.LVL72:
	.loc 1 189 3 is_stmt 0 discriminator 1 view .LVU259
	mov	r1, r5
	bl	Gui_BeginRowCenter
.LVL73:
	.loc 1 190 3 is_stmt 1 view .LVU260
	ldr	ip, .L85+68
	mov	r1, #1
	mov	r3, r7
	ldr	r2, .L85+44
	ldr	r0, .L85+72
	str	ip, [sp]
	.loc 1 192 7 is_stmt 0 view .LVU261
	ldr	r5, .L85+52
.LVL74:
	.loc 1 190 3 view .LVU262
	bl	Gui_Label
.LVL75:
	.loc 1 191 3 is_stmt 1 view .LVU263
	vldr.32	s0, .L85+20
	bl	Gui_Space
.LVL76:
	.loc 1 192 3 view .LVU264
	.loc 1 192 7 is_stmt 0 view .LVU265
	ldr	r3, .L85+76
	ldrb	r2, [r5, #4]	@ zero_extendqisi2
	ldr	r1, .L85+56
	ldr	r2, [r3, r2, lsl #2]
	ldr	r0, .L85+72
	bl	Gui_Button
.LVL77:
	.loc 1 192 6 discriminator 1 view .LVU266
	cmp	r0, #0
	beq	.L67
	.loc 1 193 4 is_stmt 1 view .LVU267
	.loc 1 193 16 is_stmt 0 view .LVU268
	ldrb	r3, [r5, #4]	@ zero_extendqisi2
	add	r3, r3, #1
	uxtb	r3, r3
	.loc 1 194 4 is_stmt 1 view .LVU269
	.loc 1 194 7 is_stmt 0 view .LVU270
	cmp	r3, #2
	.loc 1 193 16 view .LVU271
	strbne	r3, [r5, #4]
	.loc 1 194 45 is_stmt 1 discriminator 1 view .LVU272
	.loc 1 194 58 is_stmt 0 discriminator 1 view .LVU273
	strbeq	r7, [r5, #4]
.L67:
	.loc 1 196 3 is_stmt 1 view .LVU274
	bl	Gui_EndRow
.LVL78:
	.loc 1 208 3 view .LVU275
	vldr.32	s0, .L85+24
	bl	Gui_RelativeHeight
.LVL79:
	.loc 1 208 3 is_stmt 0 discriminator 1 view .LVU276
	bl	Gui_VerticalSpace
.LVL80:
	.loc 1 210 3 is_stmt 1 view .LVU277
	vldr.32	s0, .L85+16
	bl	Gui_RelativeWidth
.LVL81:
	.loc 1 210 3 is_stmt 0 discriminator 1 view .LVU278
	mov	r1, #3
	bl	Gui_BeginRowCenter
.LVL82:
	.loc 1 211 3 is_stmt 1 view .LVU279
	.loc 1 211 28 is_stmt 0 view .LVU280
	ldr	r1, .L85+80
	ldr	r0, .L85+72
	bl	Gui_Button
.LVL83:
	.loc 1 212 3 view .LVU281
	vldr.32	s0, .L85+20
	.loc 1 211 26 discriminator 1 view .LVU282
	strb	r0, [r4, #29]
	.loc 1 212 3 is_stmt 1 view .LVU283
	bl	Gui_Space
.LVL84:
	.loc 1 213 3 view .LVU284
	.loc 1 213 29 is_stmt 0 view .LVU285
	ldr	r1, .L85+84
	ldr	r0, .L85+72
	bl	Gui_Button
.LVL85:
	.loc 1 213 27 discriminator 1 view .LVU286
	strb	r0, [r4, #30]
	.loc 1 215 1 view .LVU287
	add	sp, sp, #308
	.cfi_remember_state
	.cfi_def_cfa_offset 36
	@ sp needed
	pop	{r4, r5, r6, r7, r8, r9, r10, fp, pc}
.LVL86:
.L60:
	.cfi_restore_state
.LBB24:
	.loc 1 168 3 is_stmt 1 view .LVU288
	mov	r1, #75
	mov	r0, #0
	bl	Gui_Offset
.LVL87:
	.loc 1 169 3 view .LVU289
	vldr.32	s0, .L85+28
	bl	Gui_RelativeWidth
.LVL88:
	.loc 1 169 3 is_stmt 0 discriminator 1 view .LVU290
	mov	r1, #1
	bl	Gui_BeginRowCenter
.LVL89:
	.loc 1 170 3 is_stmt 1 view .LVU291
	.loc 1 170 18 is_stmt 0 view .LVU292
	ldr	r1, .L85+88
	mov	r0, #1065353216
	bl	Gui_Button
.LVL90:
	.loc 1 170 16 discriminator 1 view .LVU293
	strb	r0, [r4, #24]
	.loc 1 171 3 is_stmt 1 view .LVU294
	bl	Gui_EndRow
.LVL91:
	.loc 1 172 3 view .LVU295
	vldr.32	s0, .L85+28
	bl	Gui_RelativeWidth
.LVL92:
	.loc 1 172 3 is_stmt 0 discriminator 1 view .LVU296
	mov	r1, #2
	bl	Gui_BeginRowCenter
.LVL93:
	.loc 1 173 3 is_stmt 1 view .LVU297
	.loc 1 173 23 is_stmt 0 view .LVU298
	ldr	r1, .L85+92
	mov	r0, #1056964608
	bl	Gui_Button
.LVL94:
	mov	r3, r0
	.loc 1 174 26 view .LVU299
	ldr	r1, .L85+96
	mov	r0, #1056964608
	.loc 1 173 21 discriminator 1 view .LVU300
	strb	r3, [r4, #25]
	.loc 1 174 3 is_stmt 1 view .LVU301
	.loc 1 174 26 is_stmt 0 view .LVU302
	bl	Gui_Button
.LVL95:
	.loc 1 174 24 discriminator 1 view .LVU303
	strb	r0, [r4, #26]
	.loc 1 175 3 is_stmt 1 view .LVU304
	bl	Gui_EndRow
.LVL96:
.LBE24:
	.loc 1 215 1 is_stmt 0 view .LVU305
	add	sp, sp, #308
	.cfi_remember_state
	.cfi_def_cfa_offset 36
	@ sp needed
	pop	{r4, r5, r6, r7, r8, r9, r10, fp, pc}
.LVL97:
.L82:
	.cfi_restore_state
	.loc 1 177 3 is_stmt 1 view .LVU306
	mov	r1, #10
	mov	r0, r7
	bl	Gui_Offset
.LVL98:
	.loc 1 178 3 view .LVU307
	bl	SpriteBatch_GetWidth
.LVL99:
	.loc 1 178 3 is_stmt 0 discriminator 1 view .LVU308
	mov	r1, r6
	bl	Gui_BeginRow
.LVL100:
	.loc 1 179 3 is_stmt 1 view .LVU309
	ldr	ip, .L85+100
	mov	r3, r6
	ldr	r2, .L85+44
	str	ip, [sp]
	mov	r1, r6
	mov	r0, #0
	bl	Gui_Label
.LVL101:
	.loc 1 180 3 view .LVU310
	bl	Gui_EndRow
.LVL102:
	.loc 1 181 3 view .LVU311
	vldr.32	s0, .L85+24
	bl	Gui_RelativeHeight
.LVL103:
	.loc 1 181 3 is_stmt 0 discriminator 1 view .LVU312
	bl	Gui_VerticalSpace
.LVL104:
	.loc 1 182 3 is_stmt 1 view .LVU313
	vldr.32	s0, .L85+32
	bl	Gui_RelativeWidth
.LVL105:
	.loc 1 182 3 is_stmt 0 discriminator 1 view .LVU314
	mov	r1, r5
	bl	Gui_BeginRowCenter
.LVL106:
	.loc 1 183 3 is_stmt 1 view .LVU315
	.loc 1 183 23 is_stmt 0 view .LVU316
	ldr	r1, .L85+104
	ldr	r0, .L85+108
	bl	Gui_Button
.LVL107:
	.loc 1 184 3 view .LVU317
	vldr.32	s0, .L85+36
	.loc 1 183 21 discriminator 1 view .LVU318
	strb	r0, [r4, #27]
	.loc 1 184 3 is_stmt 1 view .LVU319
	bl	Gui_Space
.LVL108:
	.loc 1 185 3 view .LVU320
	.loc 1 185 24 is_stmt 0 view .LVU321
	ldr	r1, .L85+112
	ldr	r0, .L85+108
	bl	Gui_Button
.LVL109:
	.loc 1 185 22 discriminator 1 view .LVU322
	strb	r0, [r4, #28]
	.loc 1 186 3 is_stmt 1 view .LVU323
	.loc 1 215 1 is_stmt 0 view .LVU324
	add	sp, sp, #308
	.cfi_remember_state
	.cfi_def_cfa_offset 36
	@ sp needed
	pop	{r4, r5, r6, r7, r8, r9, r10, fp, lr}
	.cfi_restore 14
	.cfi_restore 11
	.cfi_restore 10
	.cfi_restore 9
	.cfi_restore 8
	.cfi_restore 7
	.cfi_restore 6
	.cfi_restore 5
	.cfi_restore 4
	.cfi_def_cfa_offset 0
.LVL110:
	.loc 1 186 3 view .LVU325
	b	Gui_EndRow
.LVL111:
.L86:
	.align	2
.L85:
	.word	1061158912
	.word	981668463
	.word	1056964608
	.word	-1046478848
	.word	1063675494
	.word	1036831949
	.word	1053609165
	.word	1064514355
	.word	1061997773
	.word	1045220557
	.word	.LANCHOR0
	.word	32767
	.word	12684
	.word	.LANCHOR1
	.word	.LC4
	.word	21140
	.word	-1049624576
	.word	.LC11
	.word	1055286886
	.word	.LANCHOR2
	.word	.LC12
	.word	.LC13
	.word	.LC5
	.word	.LC6
	.word	.LC7
	.word	.LC8
	.word	.LC9
	.word	1053609165
	.word	.LC10
	.word	1097859072
	.word	1101004800
	.word	-1165815185
	.word	1061158912
.LVL112:
.L50:
	.cfi_restore_state
.LBB25:
	.loc 1 142 163 discriminator 4 view .LVU326
	vldr.32	s13, .L85+120
	vcmpe.f32	s14, s13
	vmrs	APSR_nzcv, FPSCR
	bmi	.L52
	.loc 1 144 3 is_stmt 1 view .LVU327
	.loc 1 144 10 is_stmt 0 view .LVU328
	vldr.32	s15, [r4, #20]	@ int
	vcvt.f32.s32	s15, s15
	vadd.f32	s15, s15, s13
	vcvt.s32.f32	s15, s15
	.loc 1 145 12 view .LVU329
	ldr	r3, .L85+116
	.loc 1 144 10 view .LVU330
	vstr.32	s15, [r4, #20]	@ int
	.loc 1 145 3 is_stmt 1 view .LVU331
	.loc 1 146 3 view .LVU332
	.loc 1 145 12 is_stmt 0 view .LVU333
	str	r3, [r4, #16]	@ float
	.loc 1 144 10 view .LVU334
	vmov	r3, s15	@ int
	b	.L51
.L84:
	.loc 1 146 6 discriminator 4 view .LVU335
	vldr.32	s15, .L85+124
	vcmpe.f32	s13, s15
	vmrs	APSR_nzcv, FPSCR
	bgt	.L55
	b	.L51
.L52:
	.loc 1 145 12 view .LVU336
	vldr.32	s13, .L85+128
	vmul.f32	s13, s14, s13
	b	.L49
.LBE25:
	.cfi_endproc
.LFE362:
	.size	WorldSelect_Render, .-WorldSelect_Render
	.section	.rodata.str1.4
	.align	2
.LC14:
	.ascii	"Enter the world name\000"
	.align	2
.LC15:
	.ascii	"sdmc:/craftus_redesigned/saves/%s\000"
	.section	.text.WorldSelect_Update,"ax",%progbits
	.align	2
	.global	WorldSelect_Update
	.syntax unified
	.arm
	.type	WorldSelect_Update, %function
WorldSelect_Update:
.LVL113:
.LFB363:
	.loc 1 217 102 is_stmt 1 view -0
	.cfi_startproc
	@ args = 0, pretend = 0, frame = 512
	@ frame_needed = 0, uses_anonymous_args = 0
	.loc 1 218 2 view .LVU338
	.loc 1 217 102 is_stmt 0 view .LVU339
	push	{r4, r5, r6, r7, r8, r9, r10, fp, lr}
	.cfi_def_cfa_offset 36
	.cfi_offset 4, -36
	.cfi_offset 5, -32
	.cfi_offset 6, -28
	.cfi_offset 7, -24
	.cfi_offset 8, -20
	.cfi_offset 9, -16
	.cfi_offset 10, -12
	.cfi_offset 11, -8
	.cfi_offset 14, -4
	.loc 1 218 6 view .LVU340
	ldr	r4, .L138
	.loc 1 217 102 view .LVU341
	mov	r8, r3
	.loc 1 219 3 is_stmt 1 view .LVU342
	.loc 1 218 5 is_stmt 0 view .LVU343
	ldrb	ip, [r4, #25]	@ zero_extendqisi2
	.loc 1 217 102 view .LVU344
	mov	r6, r0
	.loc 1 218 5 view .LVU345
	cmp	ip, #0
	.loc 1 219 21 view .LVU346
	movne	r3, #0
.LVL114:
	.loc 1 219 21 view .LVU347
	strbne	r3, [r4, #25]
	.loc 1 220 3 is_stmt 1 view .LVU348
	.loc 1 220 13 is_stmt 0 view .LVU349
	movne	r3, #2
	strbne	r3, [r4, #12]
	.loc 1 222 2 is_stmt 1 view .LVU350
	.loc 1 222 5 is_stmt 0 view .LVU351
	ldrb	r3, [r4, #30]	@ zero_extendqisi2
	.loc 1 217 102 view .LVU352
	mov	r5, r1
	.loc 1 222 5 view .LVU353
	cmp	r3, #0
	.loc 1 217 102 view .LVU354
	sub	sp, sp, #516
	.cfi_def_cfa_offset 552
	.loc 1 222 5 view .LVU355
	bne	.L134
.LVL115:
.L89:
	.loc 1 275 2 is_stmt 1 view .LVU356
	.loc 1 275 5 is_stmt 0 view .LVU357
	ldrb	r3, [r4, #24]	@ zero_extendqisi2
	cmp	r3, #0
	bne	.L135
	.loc 1 284 2 is_stmt 1 view .LVU358
	.loc 1 284 5 is_stmt 0 view .LVU359
	ldrb	r2, [r4, #26]	@ zero_extendqisi2
	cmp	r2, #0
	beq	.L101
	.loc 1 284 44 discriminator 1 view .LVU360
	ldr	r2, .L138+4
	.loc 1 284 27 discriminator 1 view .LVU361
	ldr	r2, [r2]
	cmn	r2, #1
	.loc 1 285 3 is_stmt 1 view .LVU362
	.loc 1 286 13 is_stmt 0 view .LVU363
	movne	r2, #1
	.loc 1 285 24 view .LVU364
	strbne	r3, [r4, #26]
	.loc 1 286 3 is_stmt 1 view .LVU365
	.loc 1 286 13 is_stmt 0 view .LVU366
	strbne	r2, [r4, #12]
.L101:
	.loc 1 288 2 is_stmt 1 view .LVU367
	.loc 1 288 5 is_stmt 0 view .LVU368
	ldrb	r3, [r4, #28]	@ zero_extendqisi2
	cmp	r3, #0
	bne	.L136
.LVL116:
.L102:
	.loc 1 297 2 is_stmt 1 view .LVU369
	.loc 1 297 5 is_stmt 0 view .LVU370
	ldrb	r3, [r4, #27]	@ zero_extendqisi2
	cmp	r3, #0
	.loc 1 298 3 is_stmt 1 view .LVU371
	.loc 1 298 21 is_stmt 0 view .LVU372
	movne	r3, #0
	strbne	r3, [r4, #27]
	.loc 1 299 3 is_stmt 1 view .LVU373
	.loc 1 299 13 is_stmt 0 view .LVU374
	strbne	r3, [r4, #12]
	.loc 1 301 2 is_stmt 1 view .LVU375
	.loc 1 301 5 is_stmt 0 view .LVU376
	ldrb	r3, [r4, #29]	@ zero_extendqisi2
	cmp	r3, #0
	.loc 1 302 3 is_stmt 1 view .LVU377
	.loc 1 302 26 is_stmt 0 view .LVU378
	movne	r3, #0
	strbne	r3, [r4, #29]
	.loc 1 303 3 is_stmt 1 view .LVU379
	.loc 1 303 13 is_stmt 0 view .LVU380
	strbne	r3, [r4, #12]
.L106:
	.loc 1 306 8 view .LVU381
	mov	r0, #0
	.loc 1 307 1 view .LVU382
	add	sp, sp, #516
	.cfi_remember_state
	.cfi_def_cfa_offset 36
	@ sp needed
	pop	{r4, r5, r6, r7, r8, r9, r10, fp, pc}
.LVL117:
.L135:
	.cfi_restore_state
	.loc 1 275 36 discriminator 1 view .LVU383
	ldr	r3, .L138+4
	ldr	r3, [r3]
	.loc 1 275 19 discriminator 1 view .LVU384
	cmn	r3, #1
	beq	.L101
	.loc 1 276 3 is_stmt 1 view .LVU385
	.loc 1 276 16 is_stmt 0 view .LVU386
	mov	r7, #0
	.loc 1 277 31 view .LVU387
	ldr	r1, [r4]
	add	r3, r3, r3, lsl #4
	add	r1, r1, r3, lsl #4
	.loc 1 277 3 view .LVU388
	mov	r0, r5
	add	r1, r1, #4
	.loc 1 277 31 view .LVU389
	lsl	r5, r3, #4
.LVL118:
	.loc 1 276 16 view .LVU390
	strb	r7, [r4, #24]
	.loc 1 277 3 is_stmt 1 view .LVU391
	bl	strcpy
.LVL119:
	.loc 1 278 3 view .LVU392
	.loc 1 278 36 is_stmt 0 view .LVU393
	ldr	r1, [r4]
	.loc 1 278 3 view .LVU394
	mov	r0, r6
	.loc 1 278 36 view .LVU395
	add	r1, r1, r5
	.loc 1 278 3 view .LVU396
	add	r1, r1, #16
	bl	strcpy
.LVL120:
	.loc 1 280 3 is_stmt 1 view .LVU397
	.loc 1 280 13 is_stmt 0 view .LVU398
	strb	r7, [r8]
	.loc 1 281 3 is_stmt 1 view .LVU399
	.loc 1 281 13 is_stmt 0 view .LVU400
	strb	r7, [r4, #12]
	.loc 1 282 3 is_stmt 1 view .LVU401
.L99:
.LBB26:
.LBB27:
	.loc 1 272 10 is_stmt 0 view .LVU402
	mov	r0, #1
.LBE27:
.LBE26:
	.loc 1 307 1 view .LVU403
	add	sp, sp, #516
	.cfi_remember_state
	.cfi_def_cfa_offset 36
	@ sp needed
	pop	{r4, r5, r6, r7, r8, r9, r10, fp, pc}
.LVL121:
.L134:
	.cfi_restore_state
.LBB38:
	.loc 1 223 3 is_stmt 1 view .LVU404
	.loc 1 223 27 is_stmt 0 view .LVU405
	mov	r7, #0
	.loc 1 224 14 view .LVU406
	ldr	r3, .L138+4
	.loc 1 231 3 view .LVU407
	mov	r1, #3
.LVL122:
	.loc 1 224 14 view .LVU408
	ldrb	r3, [r3, #4]	@ zero_extendqisi2
	.loc 1 231 3 view .LVU409
	ldr	r0, .L138+8
.LVL123:
	.loc 1 224 14 view .LVU410
	strb	r3, [r2]
	.loc 1 231 3 view .LVU411
	mov	r2, #2
.LVL124:
	.loc 1 231 3 view .LVU412
	mov	r3, #12
	.loc 1 223 27 view .LVU413
	strb	r7, [r4, #30]
	.loc 1 224 3 is_stmt 1 view .LVU414
	.loc 1 227 3 view .LVU415
	.loc 1 228 3 view .LVU416
	.loc 1 231 3 view .LVU417
	bl	swkbdInit
.LVL125:
	.loc 1 232 3 view .LVU418
.LBB31:
.LBI31:
	.file 2 "C:/devkitPro/libctru/include/3ds/applets/swkbd.h"
	.loc 2 213 20 view .LVU419
.LBB32:
	.loc 2 215 2 view .LVU420
	.loc 2 215 21 is_stmt 0 view .LVU421
	mov	r3, #2
.LBE32:
.LBE31:
	.loc 1 233 3 view .LVU422
	ldr	r1, .L138+12
	ldr	r0, .L138+8
.LBB34:
.LBB33:
	.loc 2 215 21 view .LVU423
	str	r3, [r4, #40]
	.loc 2 216 2 is_stmt 1 view .LVU424
	.loc 2 216 22 is_stmt 0 view .LVU425
	str	r7, [r4, #56]
	.loc 2 217 2 is_stmt 1 view .LVU426
	.loc 2 217 20 is_stmt 0 discriminator 4 view .LVU427
	strh	r7, [r4, #68]	@ movhi
.LVL126:
	.loc 2 217 20 discriminator 4 view .LVU428
.LBE33:
.LBE34:
	.loc 1 233 3 is_stmt 1 view .LVU429
	bl	swkbdSetHintText
.LVL127:
	.loc 1 235 3 view .LVU430
	.loc 1 235 16 is_stmt 0 view .LVU431
	ldr	r1, .L138+16
	mov	r2, #12
	sub	r0, r1, #1024
	bl	swkbdInputText
.LVL128:
	mov	r9, r0
.LVL129:
	.loc 1 241 3 is_stmt 1 view .LVU432
	ldr	r1, .L138+16
	mov	r0, r5
	bl	stpcpy
.LVL130:
	.loc 1 243 6 is_stmt 0 view .LVU433
	cmp	r9, #2
	.loc 1 242 13 view .LVU434
	strb	r7, [r4, #12]
	.loc 1 242 3 is_stmt 1 view .LVU435
	.loc 1 243 3 view .LVU436
	.loc 1 243 6 is_stmt 0 view .LVU437
	bne	.L89
.LBB35:
	.loc 1 244 4 is_stmt 1 view .LVU438
.LBE35:
	.loc 1 241 3 is_stmt 0 view .LVU439
	sub	r9, r0, r5
.LVL131:
.LBB36:
	.loc 1 244 4 view .LVU440
	mov	r1, r5
	mov	r0, r6
	add	r2, r9, #1
	bl	memcpy
.LVL132:
	.loc 1 246 4 is_stmt 1 view .LVU441
	.loc 1 248 4 view .LVU442
.LBB28:
	.loc 1 248 9 view .LVU443
	.loc 1 248 22 discriminator 1 view .LVU444
	cmp	r9, r7
	beq	.L90
	sub	r1, r6, #1
	.loc 1 252 23 is_stmt 0 view .LVU445
	mov	r7, #95
	ldr	r5, .L138+20
.LVL133:
	.loc 1 252 23 view .LVU446
	add	lr, r1, r9
	b	.L94
.LVL134:
.L137:
	.loc 1 252 23 view .LVU447
	cmp	r3, #61
	bhi	.L92
	cmp	r2, #13
	bhi	.L93
	tst	ip, #1
	beq	.L93
.L92:
	strb	r7, [r1]
.L93:
	.loc 1 248 33 is_stmt 1 discriminator 2 view .LVU448
	.loc 1 248 22 discriminator 1 view .LVU449
	cmp	r1, lr
	beq	.L90
.L94:
	.loc 1 249 5 view .LVU450
	.loc 1 252 6 view .LVU451
	.loc 1 249 22 is_stmt 0 view .LVU452
	ldrb	r3, [r1, #1]!	@ zero_extendqisi2
	sub	r2, r3, #47
	uxtb	r2, r2
	cmp	r3, #63
	and	r0, r3, #223
	lsr	ip, r5, r2
	bls	.L137
	cmp	r0, #92
	bne	.L93
	b	.L92
.LVL135:
.L136:
	.loc 1 249 22 view .LVU453
.LBE28:
.LBE36:
.LBE38:
.LBB39:
	.loc 1 289 3 is_stmt 1 view .LVU454
	.loc 1 289 22 is_stmt 0 view .LVU455
	mov	r5, #0
.LVL136:
	.loc 1 291 67 view .LVU456
	ldr	r3, .L138+4
	ldr	r2, [r4]
	ldr	r3, [r3]
	.loc 1 291 3 view .LVU457
	ldr	r1, .L138+24
	.loc 1 291 67 view .LVU458
	add	r3, r3, r3, lsl #4
	add	r2, r2, r3, lsl #4
	.loc 1 291 3 view .LVU459
	add	r2, r2, #16
	mov	r0, sp
	.loc 1 289 22 view .LVU460
	strb	r5, [r4, #28]
	.loc 1 290 3 is_stmt 1 view .LVU461
	.loc 1 291 3 view .LVU462
	bl	sprintf
.LVL137:
	.loc 1 292 3 view .LVU463
	mov	r0, sp
	bl	delete_folder
.LVL138:
	.loc 1 294 3 view .LVU464
	bl	WorldSelect_ScanWorlds
.LVL139:
	.loc 1 295 3 view .LVU465
	.loc 1 295 13 is_stmt 0 view .LVU466
	strb	r5, [r4, #12]
	b	.L102
.LVL140:
.L90:
	.loc 1 295 13 view .LVU467
.LBE39:
.LBB40:
.LBB37:
	.loc 1 255 4 is_stmt 1 view .LVU468
.LBB29:
	.loc 1 256 5 view .LVU469
	.loc 1 257 5 view .LVU470
	.loc 1 258 4 view .LVU471
	.loc 1 259 5 view .LVU472
	.loc 1 259 19 is_stmt 0 view .LVU473
	ldr	r7, [r4, #4]
	.loc 1 259 8 view .LVU474
	cmp	r7, #0
	ble	.L95
	.loc 1 265 27 view .LVU475
	mov	r10, #95
	add	r9, r6, r9
.LVL141:
.L98:
	.loc 1 259 73 is_stmt 1 discriminator 4 view .LVU476
	ldr	r5, [r4]
	.loc 1 259 44 is_stmt 0 discriminator 1 view .LVU477
	mov	fp, #0
	add	r5, r5, #16
	b	.L96
.LVL142:
.L97:
	.loc 1 259 73 discriminator 4 view .LVU478
	cmp	fp, r7
	add	r5, r5, #272
.LVL143:
	.loc 1 259 73 discriminator 4 view .LVU479
	beq	.L95
.LVL144:
.L96:
	.loc 1 259 122 is_stmt 1 discriminator 6 view .LVU480
	.loc 1 259 127 is_stmt 0 discriminator 6 view .LVU481
	mov	r1, r5
	mov	r0, r6
	bl	strcmp
.LVL145:
	.loc 1 259 115 is_stmt 1 discriminator 3 view .LVU482
	.loc 1 259 125 is_stmt 0 discriminator 6 view .LVU483
	cmp	r0, #0
	.loc 1 259 115 discriminator 3 view .LVU484
	add	fp, fp, #1
.LVL146:
	.loc 1 259 73 is_stmt 1 discriminator 4 view .LVU485
	.loc 1 259 125 is_stmt 0 discriminator 6 view .LVU486
	bne	.L97
.LVL147:
	.loc 1 263 5 is_stmt 1 view .LVU487
	.loc 1 265 5 view .LVU488
	.loc 1 266 5 view .LVU489
	.loc 1 265 27 is_stmt 0 view .LVU490
	strh	r10, [r9], #1	@ unaligned
	.loc 1 267 5 is_stmt 1 view .LVU491
.LVL148:
	.loc 1 267 5 is_stmt 0 view .LVU492
.LBE29:
	.loc 1 255 10 is_stmt 1 view .LVU493
	.loc 1 255 4 view .LVU494
.LBB30:
	.loc 1 256 5 view .LVU495
	.loc 1 257 5 view .LVU496
	.loc 1 258 4 view .LVU497
	.loc 1 259 5 view .LVU498
	.loc 1 259 19 is_stmt 0 view .LVU499
	ldr	r7, [r4, #4]
	.loc 1 259 8 view .LVU500
	cmp	r7, #0
	bgt	.L98
.LVL149:
.L95:
	.loc 1 259 8 view .LVU501
.LBE30:
	.loc 1 270 4 is_stmt 1 view .LVU502
	.loc 1 270 14 is_stmt 0 view .LVU503
	mov	r3, #1
	strb	r3, [r8]
	.loc 1 272 4 is_stmt 1 view .LVU504
	.loc 1 272 10 is_stmt 0 view .LVU505
	b	.L99
.L139:
	.align	2
.L138:
	.word	.LANCHOR0
	.word	.LANCHOR1
	.word	.LANCHOR0+32
	.word	.LC14
	.word	.LANCHOR0+1056
	.word	10241
	.word	.LC15
.LBE37:
.LBE40:
	.cfi_endproc
.LFE363:
	.size	WorldSelect_Update, .-WorldSelect_Update
	.section	.rodata.str1.4
	.align	2
.LC16:
	.ascii	"Smea\000"
	.align	2
.LC17:
	.ascii	"Superflat\000"
	.section	.rodata
	.align	2
	.set	.LANCHOR2,. + 0
	.type	worldGenTypesStr, %object
	.size	worldGenTypesStr, 8
worldGenTypesStr:
	.word	.LC16
	.word	.LC17
	.data
	.align	2
	.set	.LANCHOR1,. + 0
	.type	selectedWorld, %object
	.size	selectedWorld, 4
selectedWorld:
	.word	-1
	.type	worldGenType, %object
	.size	worldGenType, 1
worldGenType:
	.byte	1
	.bss
	.align	2
	.set	.LANCHOR0,. + 0
	.type	worlds, %object
	.size	worlds, 12
worlds:
	.space	12
	.type	menustate, %object
	.size	menustate, 1
menustate:
	.space	1
	.space	3
	.type	velocity, %object
	.size	velocity, 4
velocity:
	.space	4
	.type	scroll, %object
	.size	scroll, 4
scroll:
	.space	4
	.type	clicked_play, %object
	.size	clicked_play, 1
clicked_play:
	.space	1
	.type	clicked_new_world, %object
	.size	clicked_new_world, 1
clicked_new_world:
	.space	1
	.type	clicked_delete_world, %object
	.size	clicked_delete_world, 1
clicked_delete_world:
	.space	1
	.type	canceled_deletion, %object
	.size	canceled_deletion, 1
canceled_deletion:
	.space	1
	.type	confirmed_deletion, %object
	.size	confirmed_deletion, 1
confirmed_deletion:
	.space	1
	.type	canceled_world_options, %object
	.size	canceled_world_options, 1
canceled_world_options:
	.space	1
	.type	confirmed_world_options, %object
	.size	confirmed_world_options, 1
confirmed_world_options:
	.space	1
	.space	1
	.type	swkbd.1, %object
	.size	swkbd.1, 1024
swkbd.1:
	.space	1024
	.type	name.0, %object
	.size	name.0, 12
name.0:
	.space	12
	.text
.Letext0:
	.file 3 "C:/devkitPro/devkitARM/arm-none-eabi/include/machine/_default_types.h"
	.file 4 "C:/devkitPro/devkitARM/arm-none-eabi/include/sys/_stdint.h"
	.file 5 "C:/devkitPro/devkitARM/lib/gcc/arm-none-eabi/13.2.0/include/stddef.h"
	.file 6 "C:/devkitPro/devkitARM/arm-none-eabi/include/machine/_types.h"
	.file 7 "C:/devkitPro/libctru/include/3ds/types.h"
	.file 8 "C:/devkitPro/devkitARM/arm-none-eabi/include/sys/types.h"
	.file 9 "C:/Users/Elias/CLionProjects/3DSCraft/include/blocks/Block.h"
	.file 10 "C:/devkitPro/libctru/include/3ds/services/csnd.h"
	.file 11 "C:/devkitPro/libctru/include/3ds/services/ndm.h"
	.file 12 "C:/devkitPro/libctru/include/3ds/gpu/enums.h"
	.file 13 "C:/devkitPro/libctru/include/3ds/ndsp/channel.h"
	.file 14 "C:/devkitPro/libctru/include/3ds/applets/error.h"
	.file 15 "C:/Users/Elias/CLionProjects/3DSCraft/include/world/World.h"
	.file 16 "C:/Users/Elias/CLionProjects/3DSCraft/include/blocks/Item.h"
	.file 17 "C:/Users/Elias/CLionProjects/3DSCraft/include/gui/SpriteBatch.h"
	.file 18 "C:/devkitPro/devkitARM/arm-none-eabi/include/sys/iosupport.h"
	.file 19 "C:/devkitPro/devkitARM/arm-none-eabi/include/sys/dirent.h"
	.file 20 "C:/Users/Elias/CLionProjects/3DSCraft/dependencies/mpack/mpack.h"
	.file 21 "C:/devkitPro/devkitARM/arm-none-eabi/include/sys/unistd.h"
	.file 22 "C:/devkitPro/devkitARM/arm-none-eabi/include/string.h"
	.file 23 "C:/Users/Elias/CLionProjects/3DSCraft/include/gui/Gui.h"
	.file 24 "C:/devkitPro/devkitARM/arm-none-eabi/include/stdlib.h"
	.file 25 "C:/devkitPro/devkitARM/arm-none-eabi/include/dirent.h"
	.file 26 "C:/Users/Elias/CLionProjects/3DSCraft/dependencies/vec/vec.h"
	.file 27 "C:/devkitPro/devkitARM/arm-none-eabi/include/stdio.h"
	.file 28 "<built-in>"