	.arch armv6k
	.fpu vfp
	.eabi_attribute 28, 1
	.eabi_attribute 20, 1
	.eabi_attribute 21, 1
	.eabi_attribute 23, 3
	.eabi_attribute 24, 1
	.eabi_attribute 25, 1
	.eabi_attribute 26, 1
	.eabi_attribute 30, 2
	.eabi_attribute 34, 1
	.eabi_attribute 18, 4
	.file	"WorldRenderer.c"
	.text
.Ltext0:
	.cfi_sections	.debug_frame
	.file 1 "C:/Users/Elias/CLionProjects/3DSCraft/source/rendering/WorldRenderer.c"
	.section	.rodata.str1.4,"aMS",%progbits,1
	.align	2
.LC0:
	.ascii	"Clusters drawn %d with %d steps. %d vertices\000"
	.align	2
.LC1:
	.ascii	"T: %u P: %u %d\000"
	.section	.text.renderWorld,"ax",%progbits
	.align	2
	.syntax unified
	.arm
	.type	renderWorld, %function
renderWorld:
.LFB232:
	.loc 1 91 27 view -0
	.cfi_startproc
	@ args = 0, pretend = 0, frame = 208
	@ frame_needed = 0, uses_anonymous_args = 0
	.loc 1 93 2 view .LVU1
	.loc 1 91 27 is_stmt 0 view .LVU2
	push	{r4, r5, r6, r7, r8, r9, r10, fp, lr}
	.cfi_def_cfa_offset 36
	.cfi_offset 4, -36
	.cfi_offset 5, -32
	.cfi_offset 6, -28
	.cfi_offset 7, -24
	.cfi_offset 8, -20
	.cfi_offset 9, -16
	.cfi_offset 10, -12
	.cfi_offset 11, -8
	.cfi_offset 14, -4
	vpush.64	{d8, d9, d10, d11}
	.cfi_def_cfa_offset 68
	.cfi_offset 80, -68
	.cfi_offset 81, -64
	.cfi_offset 82, -60
	.cfi_offset 83, -56
	.cfi_offset 84, -52
	.cfi_offset 85, -48
	.cfi_offset 86, -44
	.cfi_offset 87, -40
	.loc 1 95 2 view .LVU3
	ldr	fp, .L58+20
	.loc 1 91 27 view .LVU4
	sub	sp, sp, #220
	.cfi_def_cfa_offset 288
	.loc 1 93 2 view .LVU5
	ldr	r0, .L58+24
	bl	C3D_FogColor
.LVL0:
	.loc 1 95 2 is_stmt 1 view .LVU6
	mov	r2, #648
	mov	r1, #0
	mov	r0, fp
	bl	memset
.LVL1:
	.loc 1 97 2 view .LVU7
	.loc 1 99 2 view .LVU8
	.loc 1 102 49 is_stmt 0 view .LVU9
	ldr	r3, [fp, #672]
	.loc 1 99 29 view .LVU10
	mov	r2, #0
	.loc 1 102 15 view .LVU11
	vldr.32	s10, [r3, #4]
.LBB99:
.LBB100:
	.file 2 "C:/Users/Elias/CLionProjects/3DSCraft/include/misc/NumberUtils.h"
	.loc 2 25 47 view .LVU12
	vcvt.s32.f32	s13, s10
	.loc 2 25 58 view .LVU13
	vcvt.f32.s32	s7, s13
.LBE100:
.LBE99:
	.loc 1 104 6 view .LVU14
	vldr.32	s11, [r3]
.LBB106:
.LBB101:
	.loc 2 25 58 view .LVU15
	vcmpe.f32	s10, s7
.LBE101:
.LBE106:
.LBB107:
.LBB108:
	.loc 2 25 47 view .LVU16
	vcvt.s32.f32	s14, s11
.LBE108:
.LBE107:
	.loc 1 104 6 discriminator 2 view .LVU17
	vldr.32	s12, [r3, #8]
.LBB116:
.LBB102:
	.loc 2 25 58 view .LVU18
	vmrs	APSR_nzcv, FPSCR
.LBE102:
.LBE116:
.LBB117:
.LBB109:
	vcvt.f32.s32	s8, s14
.LBE109:
.LBE117:
.LBB118:
.LBB119:
	.loc 2 25 47 view .LVU19
	vcvt.s32.f32	s15, s12
.LBE119:
.LBE118:
.LBB126:
.LBB103:
	.loc 2 25 58 view .LVU20
	movpl	r3, r2
	movmi	r3, #1
.LBE103:
.LBE126:
	.loc 1 99 29 view .LVU21
	str	r2, [fp, #652]
	.loc 1 100 2 is_stmt 1 view .LVU22
	.loc 1 100 34 is_stmt 0 view .LVU23
	str	r2, [fp, #664]
	.loc 1 102 2 is_stmt 1 view .LVU24
.LVL2:
.LBB127:
.LBI99:
	.loc 2 25 19 view .LVU25
.LBB104:
	.loc 2 25 40 view .LVU26
	.loc 2 25 56 is_stmt 0 view .LVU27
	vmov	r2, s13	@ int
.LBE104:
.LBE127:
.LBB128:
.LBB110:
	.loc 2 25 58 view .LVU28
	vcmpe.f32	s11, s8
.LBE110:
.LBE128:
.LBB129:
.LBB120:
	vcvt.f32.s32	s9, s15
.LBE120:
.LBE129:
.LBB130:
.LBB105:
	.loc 2 25 56 view .LVU29
	sub	r3, r2, r3
.LVL3:
	.loc 2 25 56 view .LVU30
.LBE105:
.LBE130:
.LBB131:
.LBI131:
	.file 3 "C:/Users/Elias/CLionProjects/3DSCraft/include/world/World.h"
	.loc 3 51 19 is_stmt 1 view .LVU31
.LBB132:
	.loc 3 51 46 view .LVU32
	.loc 3 51 56 is_stmt 0 view .LVU33
	add	r2, r3, r3, lsr #31
	.loc 3 51 72 view .LVU34
	cmp	r2, #0
	add	r4, r2, #15
	movge	r4, r2
.LBE132:
.LBE131:
.LBB135:
.LBB111:
	.loc 2 25 58 view .LVU35
	vmrs	APSR_nzcv, FPSCR
.LBE111:
.LBE135:
.LBB136:
.LBB121:
	vcmpe.f32	s12, s9
.LBE121:
.LBE136:
.LBB137:
.LBB133:
	.loc 3 51 72 view .LVU36
	asr	r4, r4, #4
.LBE133:
.LBE137:
.LBB138:
.LBB112:
	.loc 2 25 58 view .LVU37
	movmi	r2, #1
	movpl	r2, #0
.LBE112:
.LBE138:
.LBB139:
.LBB134:
	.loc 3 51 79 view .LVU38
	sub	r4, r4, r3, lsr #31
.LBE134:
.LBE139:
.LBB140:
.LBB113:
	.loc 2 25 56 view .LVU39
	vmov	r3, s14	@ int
.LBE113:
.LBE140:
.LBB141:
.LBB122:
	.loc 2 25 58 view .LVU40
	vmrs	APSR_nzcv, FPSCR
.LBE122:
.LBE141:
.LBB142:
.LBB114:
	.loc 2 25 56 view .LVU41
	sub	r2, r3, r2
.LBE114:
.LBE142:
.LBB143:
.LBB144:
	.loc 3 51 56 view .LVU42
	add	r3, r2, r2, lsr #31
.LBE144:
.LBE143:
.LBB148:
.LBB123:
	.loc 2 25 58 view .LVU43
	movmi	ip, #1
	movpl	ip, #0
.LBE123:
.LBE148:
.LBB149:
.LBB145:
	.loc 3 51 72 view .LVU44
	cmp	r3, #0
	add	r1, r3, #15
	movge	r1, r3
.LBE145:
.LBE149:
.LBB150:
.LBB124:
	.loc 2 25 56 view .LVU45
	vmov	r3, s15	@ int
	sub	r3, r3, ip
.LBE124:
.LBE150:
.LBB151:
.LBB152:
	.loc 3 51 56 view .LVU46
	add	ip, r3, r3, lsr #31
	.loc 3 51 72 view .LVU47
	cmp	ip, #0
.LBE152:
.LBE151:
.LBB155:
.LBB146:
	asr	r1, r1, #4
.LBE146:
.LBE155:
	.loc 1 104 6 discriminator 4 view .LVU48
	sub	r1, r1, r2, lsr #31
.LBB156:
.LBB153:
	.loc 3 51 72 view .LVU49
	add	r2, ip, #15
	movge	r2, ip
	asr	r2, r2, #4
.LBE153:
.LBE156:
	.loc 1 104 6 discriminator 4 view .LVU50
	sub	r2, r2, r3, lsr #31
	ldr	r0, [fp, #676]
	bl	World_GetChunk
.LVL4:
	.loc 1 105 4 view .LVU51
	mov	r3, #12
	.loc 1 104 6 discriminator 4 view .LVU52
	mov	r5, r0
	.loc 1 105 4 view .LVU53
	add	r1, fp, #652
	add	r2, fp, #656
	add	r0, fp, #648
	bl	vec_expand_
.LVL5:
	.loc 1 105 147 discriminator 1 view .LVU54
	cmp	r0, #0
	usat	r4, #3, r4
.LVL6:
	.loc 1 103 2 is_stmt 1 view .LVU55
.LBB157:
.LBI107:
	.loc 2 25 19 view .LVU56
.LBB115:
	.loc 2 25 40 view .LVU57
	.loc 2 25 40 is_stmt 0 view .LVU58
.LBE115:
.LBE157:
.LBB158:
.LBI143:
	.loc 3 51 19 is_stmt 1 view .LVU59
.LBB147:
	.loc 3 51 46 view .LVU60
	.loc 3 51 46 is_stmt 0 view .LVU61
.LBE147:
.LBE158:
.LBB159:
.LBI118:
	.loc 2 25 19 is_stmt 1 view .LVU62
.LBB125:
	.loc 2 25 40 view .LVU63
	.loc 2 25 40 is_stmt 0 view .LVU64
.LBE125:
.LBE159:
.LBB160:
.LBI151:
	.loc 3 51 19 is_stmt 1 view .LVU65
.LBB154:
	.loc 3 51 46 view .LVU66
	.loc 3 51 46 is_stmt 0 view .LVU67
.LBE154:
.LBE160:
	.loc 1 105 2 is_stmt 1 view .LVU68
	.loc 1 105 147 is_stmt 0 discriminator 1 view .LVU69
	beq	.L2
	.loc 1 105 191 discriminator 1 view .LVU70
	ldr	r3, [fp, #652]
.L3:
	.loc 1 106 2 is_stmt 1 view .LVU71
	.loc 1 106 38 is_stmt 0 view .LVU72
	mov	r0, #1
	add	r4, r4, r4, lsl #3
.LVL7:
	.loc 1 108 27 view .LVU73
	ldr	r1, [fp, #672]
	.loc 1 106 38 view .LVU74
	add	r2, fp, r4
	strb	r0, [r2, #292]
	.loc 1 108 2 is_stmt 1 view .LVU75
	.loc 1 110 31 is_stmt 0 view .LVU76
	cmp	r3, #0
	.loc 1 108 9 view .LVU77
	vldr.32	s23, [r1]
.LVL8:
	.loc 1 108 9 view .LVU78
	vldr.32	s22, [r1, #4]
.LVL9:
	.loc 1 108 9 view .LVU79
	vldr.32	s21, [r1, #8]
.LVL10:
	.loc 1 110 2 is_stmt 1 view .LVU80
	.loc 1 110 31 view .LVU81
	ble	.L25
	.loc 1 97 22 is_stmt 0 view .LVU82
	mov	r2, #0
.LBB161:
.LBB162:
.LBB163:
	.loc 1 146 7 discriminator 1 view .LVU83
	vldr.32	s18, .L58+8
	vldr.32	s20, .L58+12
	vldr.32	s19, .L58+16
.LBE163:
.LBE162:
.LBB183:
	.loc 1 120 4 view .LVU84
	vldr.64	d8, .L58	@ int
.LBE183:
.LBE161:
	.loc 1 97 22 view .LVU85
	str	r2, [sp, #24]
.LBB189:
.LBB184:
	.loc 1 120 4 view .LVU86
	str	r2, [sp, #28]
.LVL11:
.L13:
	.loc 1 120 4 view .LVU87
.LBE184:
	.loc 1 111 3 is_stmt 1 view .LVU88
	.loc 1 111 38 is_stmt 0 view .LVU89
	ldr	r2, [fp, #648]
	.loc 1 111 45 view .LVU90
	sub	r3, r3, #1
	.loc 1 111 14 view .LVU91
	str	r3, [fp, #652]
	.loc 1 111 44 view .LVU92
	add	r3, r3, r3, lsl #1
	.loc 1 111 14 view .LVU93
	ldr	r1, [r2, r3, lsl #2]
	.loc 1 111 44 view .LVU94
	add	r3, r2, r3, lsl #2
	.loc 1 111 14 view .LVU95
	str	r1, [sp, #8]
	.loc 1 115 14 view .LVU96
	add	r1, r1, #8192
	.loc 1 115 6 view .LVU97
	ldr	r2, [r1, #32]
	.loc 1 111 14 view .LVU98
	ldr	r8, [r3, #4]
.LVL12:
	.loc 1 111 14 view .LVU99
	ldrb	r3, [r3, #8]	@ zero_extendqisi2
	.loc 1 115 6 view .LVU100
	cmp	r2, #0
	.loc 1 115 14 view .LVU101
	str	r1, [sp, #12]
	.loc 1 111 14 view .LVU102
	str	r3, [sp, #16]
.LVL13:
	.loc 1 112 3 is_stmt 1 view .LVU103
	.loc 1 113 3 view .LVU104
	.loc 1 115 3 view .LVU105
	.loc 1 115 6 is_stmt 0 view .LVU106
	beq	.L5
	.loc 1 115 29 discriminator 1 view .LVU107
	ldr	r3, [r1, #16]
	cmp	r3, #0
	bne	.L54
.L5:
	.loc 1 128 3 is_stmt 1 view .LVU108
	.loc 1 128 6 is_stmt 0 view .LVU109
	ldr	r2, [sp, #12]
	ldr	r3, [r2, #36]
	cmp	r3, #0
	beq	.L7
	.loc 1 128 40 discriminator 1 view .LVU110
	ldr	r3, [r2, #24]
	cmp	r3, #0
	bne	.L55
.L7:
	ldr	r3, [sp, #16]
	ldr	r4, .L58+28
	add	r7, r3, r3, lsl #1
	ldr	r3, .L58+32
	ldr	r10, .L58+36
	add	r7, r3, r7, lsl #1
.L10:
.LVL14:
.LBB185:
.LBB182:
	.loc 1 134 4 is_stmt 1 view .LVU111
	.loc 1 135 4 view .LVU112
	.loc 1 137 4 view .LVU113
	.loc 1 137 8 is_stmt 0 view .LVU114
	ldr	r2, [r4]
	.loc 1 138 20 view .LVU115
	ldr	r3, [fp, #676]
	.loc 1 137 8 view .LVU116
	ldr	r5, [r8, #16]
	.loc 1 138 20 view .LVU117
	ldr	r0, [r3, #32]
	.loc 1 137 8 view .LVU118
	add	r5, r5, r2
.LVL15:
	.loc 1 137 51 view .LVU119
	ldr	r2, [sp, #8]
	.loc 1 137 63 view .LVU120
	ldr	r1, [r4, #4]
	.loc 1 137 51 view .LVU121
	ldr	r9, [r2]
.LVL16:
	.loc 1 138 50 view .LVU122
	sub	r2, r0, #3
	.loc 1 138 7 view .LVU123
	cmp	r2, r5
	.loc 1 137 80 view .LVU124
	ldr	r6, [r8, #20]
	.loc 1 137 92 view .LVU125
	ldr	r2, [r4, #8]
.LVL17:
	.loc 1 138 4 is_stmt 1 view .LVU126
	.loc 1 138 7 is_stmt 0 view .LVU127
	bgt	.L12
	.loc 1 139 50 view .LVU128
	add	ip, r0, #3
	.loc 1 138 54 discriminator 2 view .LVU129
	cmp	ip, r5
	blt	.L12
	.loc 1 140 20 view .LVU130
	ldr	ip, [r3, #36]
	.loc 1 137 68 view .LVU131
	add	r6, r6, r2
.LVL18:
	.loc 1 140 50 view .LVU132
	sub	r3, ip, #3
	.loc 1 139 54 view .LVU133
	cmp	r3, r6
	bgt	.L12
	.loc 1 141 50 view .LVU134
	add	r3, ip, #3
	.loc 1 140 54 view .LVU135
	cmp	r3, r6
	blt	.L12
	.loc 1 137 37 view .LVU136
	add	r9, r9, r1
.LVL19:
	.loc 1 141 66 view .LVU137
	cmp	r9, #7
	bhi	.L12
	.loc 1 143 4 is_stmt 1 view .LVU138
	.loc 1 143 61 is_stmt 0 view .LVU139
	lsl	r2, r9, #4
	.loc 1 143 68 view .LVU140
	add	r3, r2, #8
	vmov	s15, r3	@ int
	.loc 1 143 37 view .LVU141
	lsl	r3, r5, #4
	.loc 1 143 44 view .LVU142
	add	r1, r3, #8
	vmov	s13, r1	@ int
	.loc 1 143 18 view .LVU143
	vcvt.f32.s32	s15, s15
	.loc 1 144 16 view .LVU144
	lsl	r1, r6, #4
.LVL20:
.LBB164:
.LBI164:
	.file 4 "C:/Users/Elias/CLionProjects/3DSCraft/include/misc/VecMath.h"
	.loc 4 17 15 is_stmt 1 view .LVU145
.LBB165:
	.loc 4 17 44 view .LVU146
.LBE165:
.LBE164:
	.loc 1 144 23 is_stmt 0 view .LVU147
	add	lr, r1, #8
	.loc 1 143 18 view .LVU148
	vcvt.f32.s32	s13, s13
.LVL21:
	.loc 1 144 23 view .LVU149
	vmov	s14, lr	@ int
.LBB169:
.LBB166:
	.loc 4 17 51 view .LVU150
	vsub.f32	s15, s15, s22
.LVL22:
	.loc 4 17 51 view .LVU151
.LBE166:
.LBE169:
	.loc 1 143 18 view .LVU152
	vcvt.f32.s32	s14, s14
.LVL23:
.LBB170:
.LBB167:
	.loc 4 17 51 view .LVU153
	vsub.f32	s13, s13, s23
.LVL24:
	.loc 4 17 51 view .LVU154
.LBE167:
.LBE170:
.LBB171:
.LBB172:
	.loc 4 20 66 view .LVU155
	vmul.f32	s15, s15, s15
.LBE172:
.LBE171:
.LBB174:
.LBB168:
	.loc 4 17 51 view .LVU156
	vsub.f32	s14, s14, s21
.LVL25:
	.loc 4 17 51 view .LVU157
.LBE168:
.LBE174:
	.loc 1 146 4 is_stmt 1 view .LVU158
.LBB175:
.LBI171:
	.loc 4 20 14 view .LVU159
.LBB173:
	.loc 4 20 43 view .LVU160
	.loc 4 20 60 is_stmt 0 view .LVU161
	vmla.f32	s15, s13, s13
	.loc 4 20 72 view .LVU162
	vmla.f32	s15, s14, s14
.LBE173:
.LBE175:
	.loc 1 146 7 discriminator 1 view .LVU163
	vcmpe.f32	s15, s18
	vmrs	APSR_nzcv, FPSCR
	bgt	.L12
	.loc 1 150 4 is_stmt 1 view .LVU164
	.loc 1 150 27 is_stmt 0 view .LVU165
	sub	r0, r0, #4
	sub	r0, r5, r0
	.loc 1 150 74 view .LVU166
	add	lr, r9, r9, lsl #3
	add	r0, r0, r0, lsl #3
	.loc 1 150 80 view .LVU167
	sub	ip, ip, #4
	.loc 1 150 74 view .LVU168
	add	r0, lr, r0, lsl #3
	.loc 1 150 80 view .LVU169
	sub	ip, r6, ip
	.loc 1 150 74 view .LVU170
	add	r0, fp, r0
	.loc 1 150 7 view .LVU171
	ldrb	r0, [r0, ip]	@ zero_extendqisi2
	.loc 1 150 74 view .LVU172
	str	lr, [sp, #20]
	.loc 1 150 7 view .LVU173
	tst	r0, #1
	bne	.L12
	.loc 1 152 4 is_stmt 1 view .LVU174
.LVL26:
.LBB176:
.LBI176:
	.file 5 "C:/Users/Elias/CLionProjects/3DSCraft/include/world/Chunk.h"
	.loc 5 66 12 view .LVU175
.LBB177:
	.loc 5 67 2 view .LVU176
	.loc 5 67 24 is_stmt 0 view .LVU177
	mov	lr, #1
	.loc 5 67 19 view .LVU178
	ldr	r0, [sp, #12]
	.loc 5 67 27 view .LVU179
	ldrb	ip, [r7]	@ zero_extendqisi2
	.loc 5 67 19 view .LVU180
	ldrh	r0, [r0, #8]
.LBE177:
.LBE176:
	.loc 1 152 7 discriminator 1 view .LVU181
	and	r0, r0, lr, lsl ip
	.loc 1 152 73 discriminator 1 view .LVU182
	ldr	ip, [sp, #16]
	subs	ip, ip, #6
	movne	ip, #1
	cmp	r0, #0
	movne	ip, #0
	cmp	ip, #0
	bne	.L12
	.loc 1 155 4 is_stmt 1 view .LVU183
.LVL27:
.LBB178:
.LBI178:
	.file 6 "C:/devkitPro/libctru/include/c3d/maths.h"
	.loc 6 161 24 view .LVU184
	.loc 6 163 2 view .LVU185
.LBB179:
.LBI179:
	.loc 6 53 24 view .LVU186
	.loc 6 55 2 view .LVU187
	.loc 6 55 2 is_stmt 0 view .LVU188
.LBE179:
.LBE178:
	.loc 1 155 29 view .LVU189
	vmov	s15, r1	@ int
	vcvt.f32.s32	s1, s15
.LVL28:
	.loc 1 155 29 view .LVU190
	vmov	s15, r2	@ int
	vcvt.f32.s32	s2, s15
.LVL29:
	.loc 1 155 29 view .LVU191
	vmov	s15, r3	@ int
	.loc 1 156 9 discriminator 1 view .LVU192
	vldr.32	s5, .L58+16
	vldr.32	s4, .L58+12
	.loc 1 155 29 view .LVU193
	vcvt.f32.s32	s3, s15
.LVL30:
	.loc 1 156 9 discriminator 1 view .LVU194
	vmov.f32	s6, s5
	vmov.f32	s7, s5
	vmov.f32	s0, s4
	ldr	r0, .L58+40
	vstr.32	s20, [sp, #64]
	vstr.32	s20, [sp, #48]
	vstr.32	s19, [sp, #52]
	vstr.32	s19, [sp, #56]
	vstr.32	s19, [sp, #60]
	.loc 1 155 29 view .LVU195
	vstr.32	s1, [sp, #68]
	vstr.32	s2, [sp, #72]
	vstr.32	s3, [sp, #76]
.LVL31:
	.loc 1 156 4 is_stmt 1 view .LVU196
.LBB180:
.LBI180:
	.loc 6 161 24 view .LVU197
	.loc 6 163 2 view .LVU198
.LBB181:
.LBI181:
	.loc 6 53 24 view .LVU199
	.loc 6 55 2 view .LVU200
	.loc 6 55 2 is_stmt 0 view .LVU201
.LBE181:
.LBE180:
	.loc 1 156 9 discriminator 1 view .LVU202
	bl	Camera_IsAABBVisible
.LVL32:
	.loc 1 156 7 discriminator 2 view .LVU203
	cmp	r0, #0
	beq	.L12
	.loc 1 158 4 is_stmt 1 view .LVU204
	.loc 1 158 31 is_stmt 0 view .LVU205
	ldr	r0, [fp, #676]
	.loc 1 158 118 view .LVU206
	ldr	lr, [sp, #20]
	.loc 1 158 70 view .LVU207
	ldr	r3, [r0, #32]
	ldr	ip, [r0, #36]
	sub	r3, r3, #4
	sub	r3, r5, r3
	.loc 1 158 118 view .LVU208
	add	r3, r3, r3, lsl #3
	add	r3, lr, r3, lsl #3
	.loc 1 158 70 view .LVU209
	sub	ip, ip, #4
	sub	ip, r6, ip
	.loc 1 158 118 view .LVU210
	add	r3, fp, r3
	ldrb	lr, [r3, ip]	@ zero_extendqisi2
	.loc 1 160 22 view .LVU211
	mov	r2, r6
	mov	r1, r5
	.loc 1 158 118 view .LVU212
	orr	lr, lr, #1
	strb	lr, [r3, ip]
	.loc 1 160 4 is_stmt 1 view .LVU213
	.loc 1 160 22 is_stmt 0 view .LVU214
	bl	World_GetChunk
.LVL33:
	.loc 1 161 4 is_stmt 1 view .LVU215
	.loc 1 162 7 is_stmt 0 view .LVU216
	subs	r5, r0, #0
.LVL34:
	.loc 1 161 93 view .LVU217
	ldrb	r6, [r10]	@ zero_extendqisi2
.LVL35:
	.loc 1 162 4 is_stmt 1 view .LVU218
	.loc 1 162 7 is_stmt 0 view .LVU219
	beq	.L12
	.loc 1 162 18 is_stmt 1 discriminator 1 view .LVU220
	.loc 1 162 20 is_stmt 0 discriminator 1 view .LVU221
	ldr	r2, .L58+44
	mov	r3, #12
	sub	r1, r2, #4
	sub	r0, r2, #8
.LVL36:
	.loc 1 162 20 discriminator 1 view .LVU222
	bl	vec_expand_
.LVL37:
	.loc 1 162 163 discriminator 1 view .LVU223
	cmp	r0, #0
	bne	.L12
	.loc 1 161 39 view .LVU224
	add	r3, r9, r9, lsl #8
	.loc 1 162 207 discriminator 2 view .LVU225
	ldr	r1, [fp, #652]
	.loc 1 161 39 view .LVU226
	add	r3, r9, r3, lsl #1
	.loc 1 162 183 discriminator 2 view .LVU227
	ldr	r2, [fp, #648]
	.loc 1 161 39 view .LVU228
	add	r3, r5, r3, lsl #4
	.loc 1 162 189 discriminator 2 view .LVU229
	add	r0, r1, r1, lsl #1
	.loc 1 161 39 view .LVU230
	add	r3, r3, #24
	.loc 1 162 215 discriminator 2 view .LVU231
	add	r1, r1, #1
	str	r1, [fp, #652]
	.loc 1 162 219 discriminator 2 view .LVU232
	str	r3, [r2, r0, lsl #2]
	.loc 1 162 189 discriminator 2 view .LVU233
	add	r3, r2, r0, lsl #2
	.loc 1 162 219 discriminator 2 view .LVU234
	str	r5, [r3, #4]
	strb	r6, [r3, #8]
.LVL38:
.L12:
	.loc 1 162 219 discriminator 2 view .LVU235
.LBE182:
	.loc 1 133 27 is_stmt 1 discriminator 2 view .LVU236
	.loc 1 133 21 discriminator 1 view .LVU237
	ldr	r3, .L58+48
	add	r4, r4, #12
.LVL39:
	.loc 1 133 21 is_stmt 0 discriminator 1 view .LVU238
	cmp	r3, r4
	add	r10, r10, #1
.LVL40:
	.loc 1 133 21 discriminator 1 view .LVU239
	add	r7, r7, #1
	bne	.L10
.LVL41:
	.loc 1 133 21 discriminator 1 view .LVU240
.LBE185:
.LBE189:
	.loc 1 110 31 is_stmt 1 view .LVU241
	.loc 1 110 23 is_stmt 0 view .LVU242
	ldr	r3, [fp, #652]
	.loc 1 110 31 view .LVU243
	cmp	r3, #0
	bgt	.L13
	ldr	r5, [sp, #28]
.LVL42:
.L4:
.LBB190:
	.loc 1 166 20 is_stmt 1 discriminator 1 view .LVU244
	.loc 1 166 11 is_stmt 0 view .LVU245
	mov	r8, #1
.LBB191:
.LBB192:
.LBB193:
.LBB194:
	.loc 1 172 14 view .LVU246
	ldr	r9, .L58+52
.LBE194:
.LBE193:
	.loc 1 168 11 view .LVU247
	ldr	r7, .L58+56
	str	r5, [sp, #16]
.LVL43:
.L14:
	.loc 1 168 11 view .LVU248
.LBE192:
	.loc 1 167 21 is_stmt 1 discriminator 1 view .LVU249
.LBE191:
.LBE190:
	.loc 1 97 6 is_stmt 0 view .LVU250
	mov	r5, r9
.LBB220:
.LBB219:
	.loc 1 167 12 view .LVU251
	mov	r4, #1
.LBB215:
	.loc 1 168 11 view .LVU252
	add	r10, r8, r8, lsl #3
	str	r8, [sp, #8]
	b	.L21
.LVL44:
.L15:
	.loc 1 170 77 discriminator 3 view .LVU253
	ldr	r3, [ip]
	cmp	r3, #0
.LBB211:
.LBB197:
	.loc 1 172 14 view .LVU254
	mvneq	r8, #0
	addeq	r0, r0, r5
.LBE197:
.LBE211:
	.loc 1 170 77 discriminator 3 view .LVU255
	beq	.L17
.L16:
	.loc 1 170 77 discriminator 3 view .LVU256
.LBE215:
	.loc 1 167 33 is_stmt 1 discriminator 2 view .LVU257
	add	r4, r4, #1
.LVL45:
	.loc 1 167 21 discriminator 1 view .LVU258
	cmp	r4, #8
	add	r5, r5, #4
	beq	.L56
.LVL46:
.L21:
.LBB216:
	.loc 1 168 4 view .LVU259
	.loc 1 168 24 is_stmt 0 view .LVU260
	ldr	r0, [fp, #676]
	.loc 1 168 11 view .LVU261
	add	r3, r10, r4
	add	r3, r3, r7
	ldr	ip, [r0, r3, lsl #2]
.LVL47:
	.loc 1 170 4 is_stmt 1 view .LVU262
	.loc 1 170 14 is_stmt 0 view .LVU263
	add	r3, ip, #65536
	.loc 1 170 7 view .LVU264
	ldr	r1, [r3, #668]
	ldr	r2, [r3, #672]
	cmp	r1, r2
	bne	.L15
	.loc 1 170 51 discriminator 2 view .LVU265
	ldrb	r3, [r3, #676]	@ zero_extendqisi2
	cmp	r3, #0
	beq	.L16
	b	.L15
.LVL48:
.L57:
.LBB212:
.LBB198:
	.loc 1 172 48 is_stmt 1 discriminator 2 view .LVU266
	add	r8, r8, #1
.LVL49:
	.loc 1 172 34 discriminator 1 view .LVU267
	cmp	r8, #1
	movgt	r2, #0
	andle	r2, r2, #1
.LVL50:
	.loc 1 172 34 is_stmt 0 discriminator 1 view .LVU268
	cmp	r2, #0
	add	r0, r0, #36
	beq	.L19
.LVL51:
.L17:
.LBB195:
	.loc 1 173 35 is_stmt 1 discriminator 1 view .LVU269
.LBE195:
.LBE198:
.LBE212:
.LBE216:
	.loc 1 167 12 is_stmt 0 view .LVU270
	mov	r1, r0
.LBB217:
.LBB213:
.LBB199:
.LBB196:
	.loc 1 173 15 view .LVU271
	mvn	r3, #0
.LVL52:
.L18:
	.loc 1 174 7 is_stmt 1 view .LVU272
	.loc 1 174 48 is_stmt 0 view .LVU273
	ldr	r2, [r1, #4]!
	.loc 1 173 49 discriminator 2 view .LVU274
	add	r3, r3, #1
.LVL53:
	.loc 1 174 48 view .LVU275
	ldrb	lr, [r2, #12]	@ zero_extendqisi2
	.loc 1 174 10 view .LVU276
	subs	r2, lr, #0
	movne	r2, #1
.LVL54:
	.loc 1 173 49 is_stmt 1 discriminator 2 view .LVU277
	.loc 1 173 35 discriminator 1 view .LVU278
	cmp	r3, #1
	movgt	r6, #0
	andle	r6, r2, #1
	cmp	r6, #0
	bne	.L18
	b	.L57
.L59:
	.align	3
.L58:
	.word	12816
	.word	0
	.word	1158676480
	.word	0
	.word	1098907648
	.word	.LANCHOR0
	.word	16767376
	.word	DirectionToOffset
	.word	_seethroughTable
	.word	DirectionOpposite
	.word	.LANCHOR0+680
	.word	.LANCHOR0+656
	.word	DirectionToOffset+72
	.word	11919636
	.word	2979910
	.word	12816
	.word	.LC0
	.word	.LC1
	.word	.LANCHOR0+668
.LVL55:
.L19:
	.loc 1 173 35 is_stmt 0 discriminator 1 view .LVU279
.LBE196:
.LBE199:
	.loc 1 176 5 is_stmt 1 view .LVU280
	.loc 1 176 8 is_stmt 0 view .LVU281
	cmp	lr, #0
	beq	.L16
.LBB200:
	.loc 1 176 16 is_stmt 1 discriminator 1 view .LVU282
	mov	r3, #4
.LVL56:
.LBB201:
.LBB202:
	.file 7 "C:/Users/Elias/CLionProjects/3DSCraft/include/world/WorkQueue.h"
	.loc 7 44 2 is_stmt 0 view .LVU283
	mov	lr, #1
.LVL57:
	.loc 7 44 2 view .LVU284
.LBE202:
.LBE201:
	.loc 1 176 57 discriminator 1 view .LVU285
	str	r2, [sp, #36]
	str	r2, [sp, #44]
	add	r2, sp, #64
	mov	r8, r2
.LVL58:
.LBB207:
.LBB203:
	.loc 7 43 24 view .LVU286
	ldr	r1, [ip, #8]
.LVL59:
	.loc 7 43 24 view .LVU287
	strb	r3, [sp, #36]
	.loc 7 45 43 discriminator 1 view .LVU288
	ldr	r3, [ip, #4]
.LBE203:
.LBE207:
	.loc 1 176 16 discriminator 1 view .LVU289
	ldr	r6, [fp, #1076]
.LVL60:
.LBB208:
.LBB204:
	.loc 7 45 43 discriminator 1 view .LVU290
	add	r3, r3, lr
	str	ip, [sp, #40]
	.loc 7 43 24 view .LVU291
	str	r1, [sp, #12]
	add	r1, sp, #36
	ldm	r1, {r0, r1, r2}
	stm	r8, {r0, r1, r2}
.LVL61:
	.loc 7 43 24 view .LVU292
.LBE204:
.LBI201:
	.loc 7 42 13 is_stmt 1 view .LVU293
.LBB205:
	.loc 7 43 2 view .LVU294
	.loc 7 44 2 view .LVU295
	.loc 7 45 43 is_stmt 0 discriminator 1 view .LVU296
	str	r3, [ip, #4]
	.loc 7 44 2 view .LVU297
	str	lr, [ip]
	.loc 7 45 2 is_stmt 1 view .LVU298
	.loc 7 45 43 discriminator 1 view .LVU299
	.loc 7 46 2 view .LVU300
	add	r0, r6, #20
	bl	LightLock_Lock
.LVL62:
	.loc 7 47 2 view .LVU301
	.loc 7 47 4 is_stmt 0 view .LVU302
	mov	r3, #12
	mov	r0, r6
	add	r2, r6, #8
	add	r1, r6, #4
	bl	vec_expand_
.LVL63:
	.loc 7 47 139 discriminator 1 view .LVU303
	cmp	r0, #0
	bne	.L20
	.loc 7 47 179 discriminator 1 view .LVU304
	ldr	r2, [r6, #4]
	.loc 7 47 157 discriminator 1 view .LVU305
	ldr	r3, [r6]
	.loc 7 47 187 discriminator 1 view .LVU306
	add	r1, r2, #1
	str	r1, [r6, #4]
.LVL64:
	.loc 7 47 191 discriminator 1 view .LVU307
	ldr	r1, [sp, #12]
	add	r2, r2, r2, lsl #1
	str	r1, [sp, #72]
	add	r3, r3, r2, lsl #2
	ldm	r8, {r0, r1, r2}
	stm	r3, {r0, r1, r2}
.LVL65:
.L20:
	.loc 7 48 2 is_stmt 1 view .LVU308
	add	r0, r6, #20
	bl	LightLock_Unlock
.LVL66:
	.loc 7 50 2 view .LVU309
.LBE205:
.LBE208:
.LBE200:
.LBE213:
.LBE217:
	.loc 1 167 33 is_stmt 0 discriminator 2 view .LVU310
	add	r4, r4, #1
.LVL67:
.LBB218:
.LBB214:
.LBB210:
.LBB209:
.LBB206:
	.loc 7 50 2 view .LVU311
	add	r0, r6, #12
	bl	LightEvent_Signal
.LVL68:
	.loc 7 50 2 view .LVU312
.LBE206:
.LBE209:
.LBE210:
.LBE214:
.LBE218:
	.loc 1 167 33 is_stmt 1 discriminator 2 view .LVU313
	.loc 1 167 21 discriminator 1 view .LVU314
	cmp	r4, #8
	add	r5, r5, #4
	bne	.L21
.LVL69:
.L56:
	.loc 1 167 21 is_stmt 0 discriminator 1 view .LVU315
.LBE219:
	.loc 1 166 32 discriminator 2 view .LVU316
	ldr	r8, [sp, #8]
	.loc 1 166 32 is_stmt 1 discriminator 2 view .LVU317
	.loc 1 166 20 is_stmt 0 discriminator 1 view .LVU318
	add	r9, r9, #36
	.loc 1 166 32 discriminator 2 view .LVU319
	add	r8, r8, #1
.LVL70:
	.loc 1 166 20 is_stmt 1 discriminator 1 view .LVU320
	cmp	r8, #8
	bne	.L14
.LBE220:
	.loc 1 181 2 is_stmt 0 view .LVU321
	mov	r2, #255
	mov	r1, #7
	mov	r0, #1
	ldr	r5, [sp, #16]
	.loc 1 181 2 is_stmt 1 view .LVU322
	bl	C3D_AlphaTest
.LVL71:
	.loc 1 183 2 view .LVU323
	.loc 1 184 2 view .LVU324
	.loc 1 185 2 view .LVU325
	.loc 1 185 29 is_stmt 0 view .LVU326
	ldr	r4, [fp, #664]
.LVL72:
	.loc 1 185 5 view .LVU327
	cmp	r4, #0
	ble	.L23
	.loc 1 185 44 is_stmt 1 discriminator 1 view .LVU328
.LBB221:
	.loc 1 188 3 is_stmt 0 view .LVU329
	mov	r9, #0
	ldr	r8, .L58+60
.LVL73:
	.loc 1 188 3 view .LVU330
.LBE221:
	.loc 1 185 54 discriminator 1 view .LVU331
	sub	r4, r4, #1
.LVL74:
	.loc 1 185 101 is_stmt 1 discriminator 2 view .LVU332
	add	r7, sp, #64
.L24:
	.loc 1 185 115 is_stmt 0 discriminator 4 view .LVU333
	ldr	r6, [fp, #660]
.LVL75:
.LBB222:
	.loc 1 186 3 is_stmt 1 view .LVU334
	.loc 1 187 3 view .LVU335
	mov	r0, r7
	bl	BufInfo_Init
.LVL76:
	.loc 1 188 3 view .LVU336
	.loc 1 188 56 is_stmt 0 view .LVU337
	ldr	r1, [r6, r4, lsl #3]
	.loc 1 188 3 view .LVU338
	mov	r3, #4
	.loc 1 188 56 view .LVU339
	add	r1, r1, #8192
	.loc 1 188 3 view .LVU340
	ldr	r1, [r1, #28]
	mov	r2, #16
	mov	r0, r7
	strd	r8, [sp]
	bl	BufInfo_Add
.LVL77:
	.loc 1 189 3 is_stmt 1 view .LVU341
	mov	r0, r7
	bl	C3D_SetBufInfo
.LVL78:
	.loc 1 190 3 view .LVU342
	mov	r1, #0
	.loc 1 190 51 is_stmt 0 view .LVU343
	ldr	r3, [r6, r4, lsl #3]
	.loc 1 190 3 view .LVU344
	mov	r0, r1
	.loc 1 190 51 view .LVU345
	add	r3, r3, #8192
	.loc 1 190 3 view .LVU346
	ldr	r2, [r3, #36]
	bl	C3D_DrawArrays
.LVL79:
	.loc 1 192 3 is_stmt 1 view .LVU347
	.loc 1 192 32 is_stmt 0 view .LVU348
	ldr	r3, [r6, r4, lsl #3]
.LBE222:
	.loc 1 185 158 discriminator 5 view .LVU349
	sub	r4, r4, #1
.LVL80:
.LBB223:
	.loc 1 192 32 view .LVU350
	add	r3, r3, #8192
	.loc 1 192 14 view .LVU351
	ldr	r3, [r3, #36]
.LBE223:
	.loc 1 185 101 discriminator 2 view .LVU352
	cmn	r4, #1
.LBB224:
	.loc 1 192 14 view .LVU353
	add	r5, r5, r3
.LVL81:
	.loc 1 192 14 view .LVU354
.LBE224:
	.loc 1 185 158 is_stmt 1 discriminator 5 view .LVU355
	.loc 1 185 101 discriminator 2 view .LVU356
	bne	.L24
.LVL82:
.L23:
	.loc 1 194 2 view .LVU357
	mov	r2, #0
	mov	r1, #6
	mov	r0, r2
	bl	C3D_AlphaTest
.LVL83:
	.loc 1 196 2 view .LVU358
	mov	r3, r5
	ldr	r1, [sp, #24]
	mov	r2, #0
	ldr	r0, .L58+64
	bl	DebugUI_Text
.LVL84:
	.loc 1 197 2 view .LVU359
	.loc 1 197 59 is_stmt 0 view .LVU360
	ldr	r3, [fp, #676]
	.loc 1 197 2 view .LVU361
	ldr	r2, [fp, #1076]
	.loc 1 197 59 view .LVU362
	add	r3, r3, #11862016
	add	r3, r3, #57344
	ldr	r1, [r3, #440]
	.loc 1 197 2 view .LVU363
	ldr	r0, .L58+68
	ldr	r3, [r2, #4]
	ldrb	r2, [r1, #12]	@ zero_extendqisi2
	ldr	r1, [r1]
	.loc 1 199 1 view .LVU364
	add	sp, sp, #220
	.cfi_remember_state
	.cfi_def_cfa_offset 68
	@ sp needed
	vldm	sp!, {d8-d11}
	.cfi_restore 86
	.cfi_restore 87
	.cfi_restore 84
	.cfi_restore 85
	.cfi_restore 82
	.cfi_restore 83
	.cfi_restore 80
	.cfi_restore 81
	.cfi_def_cfa_offset 36
.LVL85:
	.loc 1 199 1 view .LVU365
	pop	{r4, r5, r6, r7, r8, r9, r10, fp, lr}
	.cfi_restore 14
	.cfi_restore 11
	.cfi_restore 10
	.cfi_restore 9
	.cfi_restore 8
	.cfi_restore 7
	.cfi_restore 6
	.cfi_restore 5
	.cfi_restore 4
	.cfi_def_cfa_offset 0
.LVL86:
	.loc 1 197 2 view .LVU366
	b	DebugUI_Text
.LVL87:
.L55:
	.cfi_restore_state
.LBB225:
.LBB186:
	.loc 1 129 4 is_stmt 1 view .LVU367
	.loc 1 129 6 is_stmt 0 view .LVU368
	ldr	r2, .L58+72
	mov	r3, #8
	sub	r1, r2, #4
	sub	r0, r2, #8
	bl	vec_expand_
.LVL88:
	.loc 1 129 169 discriminator 1 view .LVU369
	cmp	r0, #0
	bne	.L7
	.loc 1 129 223 discriminator 1 view .LVU370
	ldr	r2, [fp, #664]
	.loc 1 129 194 discriminator 1 view .LVU371
	ldr	r3, [fp, #660]
	.loc 1 129 231 discriminator 1 view .LVU372
	add	r1, r2, #1
	str	r1, [fp, #664]
	.loc 1 129 235 discriminator 1 view .LVU373
	ldr	r1, [sp, #8]
	str	r1, [r3, r2, lsl #3]
	add	r3, r3, r2, lsl #3
	str	r8, [r3, #4]
.LVL89:
	.loc 1 129 235 discriminator 1 view .LVU374
.LBE186:
.LBB187:
	.loc 1 133 21 is_stmt 1 discriminator 1 view .LVU375
	b	.L7
.LVL90:
.L54:
	.loc 1 133 21 is_stmt 0 discriminator 1 view .LVU376
.LBE187:
.LBB188:
	.loc 1 116 4 is_stmt 1 view .LVU377
	.loc 1 116 35 is_stmt 0 view .LVU378
	ldr	r1, [fp, #676]
	.loc 1 116 80 view .LVU379
	ldr	r3, [r8, #16]
	ldr	r2, [r1, #32]
	ldr	r1, [r1, #36]
	sub	r2, r2, #4
	sub	r3, r3, r2
	.loc 1 116 132 view .LVU380
	add	r2, r3, r3, lsl #3
	.loc 1 116 76 view .LVU381
	ldr	r3, [sp, #8]
	.loc 1 116 80 view .LVU382
	sub	r1, r1, #4
	.loc 1 116 76 view .LVU383
	ldr	r3, [r3]
	.loc 1 119 4 view .LVU384
	add	r4, sp, #64
	.loc 1 116 132 view .LVU385
	add	r3, r3, r3, lsl #3
	add	r3, r3, r2, lsl #3
	.loc 1 116 80 view .LVU386
	ldr	r2, [r8, #20]
	.loc 1 116 132 view .LVU387
	add	r3, fp, r3
	.loc 1 116 80 view .LVU388
	sub	r2, r2, r1
	.loc 1 116 132 view .LVU389
	ldrb	r1, [r3, r2]	@ zero_extendqisi2
	.loc 1 119 4 view .LVU390
	mov	r0, r4
	.loc 1 116 132 view .LVU391
	orr	r1, r1, #2
	strb	r1, [r3, r2]
	.loc 1 118 4 is_stmt 1 view .LVU392
	.loc 1 119 4 view .LVU393
	bl	BufInfo_Init
.LVL91:
	.loc 1 120 4 view .LVU394
	ldr	r5, [sp, #12]
	mov	r3, #4
	ldr	r1, [r5, #20]
	mov	r2, #16
	vstr.64	d8, [sp]	@ int
	mov	r0, r4
	bl	BufInfo_Add
.LVL92:
	.loc 1 121 4 view .LVU395
	mov	r0, r4
	bl	C3D_SetBufInfo
.LVL93:
	.loc 1 122 4 view .LVU396
	mov	r1, #0
	ldr	r2, [r5, #32]
	mov	r0, r1
	bl	C3D_DrawArrays
.LVL94:
	.loc 1 124 4 view .LVU397
	.loc 1 126 17 is_stmt 0 view .LVU398
	ldr	r3, [sp, #24]
	.loc 1 124 15 view .LVU399
	ldr	r2, [sp, #28]
	.loc 1 126 17 view .LVU400
	add	r3, r3, #1
	str	r3, [sp, #24]
.LVL95:
	.loc 1 124 15 view .LVU401
	ldr	r3, [r5, #32]
	add	r3, r2, r3
	str	r3, [sp, #28]
.LVL96:
	.loc 1 126 4 is_stmt 1 view .LVU402
	.loc 1 126 4 is_stmt 0 view .LVU403
	b	.L5
.LVL97:
.L2:
	.loc 1 126 4 view .LVU404
.LBE188:
.LBE225:
	.loc 1 105 203 discriminator 1 view .LVU405
	mov	ip, #6
	.loc 1 105 220 discriminator 1 view .LVU406
	add	r2, r4, r4, lsl #8
	.loc 1 105 191 discriminator 1 view .LVU407
	ldr	r3, [fp, #652]
	.loc 1 105 220 discriminator 1 view .LVU408
	add	r2, r4, r2, lsl #1
	.loc 1 105 167 discriminator 1 view .LVU409
	ldr	r1, [fp, #648]
	.loc 1 105 220 discriminator 1 view .LVU410
	add	r2, r5, r2, lsl #4
	.loc 1 105 173 discriminator 1 view .LVU411
	add	r0, r3, r3, lsl #1
	.loc 1 105 220 discriminator 1 view .LVU412
	add	r2, r2, #24
	.loc 1 105 199 discriminator 1 view .LVU413
	add	r3, r3, #1
	str	r3, [fp, #652]
	.loc 1 105 203 discriminator 1 view .LVU414
	str	r2, [r1, r0, lsl #2]
	.loc 1 105 173 discriminator 1 view .LVU415
	add	r2, r1, r0, lsl #2
	.loc 1 105 203 discriminator 1 view .LVU416
	str	r5, [r2, #4]
	strb	ip, [r2, #8]
	b	.L3
.LVL98:
.L25:
	.loc 1 97 22 view .LVU417
	mov	r3, #0
	.loc 1 97 6 view .LVU418
	mov	r5, r3
.LVL99:
	.loc 1 97 22 view .LVU419
	str	r3, [sp, #24]
	b	.L4
	.cfi_endproc
.LFE232:
	.size	renderWorld, .-renderWorld
	.section	.text.WorldRenderer_Init,"ax",%progbits
	.align	2
	.global	WorldRenderer_Init
	.syntax unified
	.arm
	.type	WorldRenderer_Init, %function
WorldRenderer_Init:
.LVL100:
.LFB230:
	.loc 1 50 104 is_stmt 1 view -0
	.cfi_startproc
	@ args = 0, pretend = 0, frame = 1024
	@ frame_needed = 0, uses_anonymous_args = 0
	.loc 1 51 2 view .LVU421
	.loc 1 50 104 is_stmt 0 view .LVU422
	push	{r4, r5, r6, lr}
	.cfi_def_cfa_offset 16
	.cfi_offset 4, -16
	.cfi_offset 5, -12
	.cfi_offset 6, -8
	.cfi_offset 14, -4
	.loc 1 56 2 view .LVU423
	mov	lr, #0
	.loc 1 50 104 view .LVU424
	mov	r6, r0
	.loc 1 51 8 view .LVU425
	ldr	ip, .L64+12
	.loc 1 50 104 view .LVU426
	sub	sp, sp, #1024
	.cfi_def_cfa_offset 1040
	.loc 1 59 2 view .LVU427
	add	r0, ip, #680
.LVL101:
	.loc 1 54 12 view .LVU428
	str	r2, [ip, #1076]
	.loc 1 53 20 view .LVU429
	str	r3, [ip, #1080]
	.loc 1 52 9 view .LVU430
	str	r6, [ip, #672]
	.loc 1 51 8 view .LVU431
	str	r1, [ip, #676]
	.loc 1 52 2 is_stmt 1 view .LVU432
	.loc 1 53 2 view .LVU433
	.loc 1 54 2 view .LVU434
	.loc 1 56 2 view .LVU435
	str	lr, [ip, #648]
	.loc 1 57 2 is_stmt 0 view .LVU436
	str	lr, [ip, #660]
	.loc 1 56 2 view .LVU437
	str	lr, [ip, #652]
	str	lr, [ip, #656]
	.loc 1 57 2 is_stmt 1 view .LVU438
	str	lr, [ip, #664]
	str	lr, [ip, #668]
	.loc 1 59 2 view .LVU439
	bl	Camera_Init
.LVL102:
	.loc 1 61 2 view .LVU440
	bl	Cursor_Init
.LVL103:
	.loc 1 62 2 view .LVU441
	bl	Hand_Init
.LVL104:
	.loc 1 64 2 view .LVU442
	.loc 1 65 2 view .LVU443
.LBB226:
	.loc 1 65 7 view .LVU444
	.loc 1 65 20 discriminator 1 view .LVU445
.LBB227:
	.loc 1 66 3 view .LVU446
	.loc 1 67 3 view .LVU447
	.loc 1 71 16 discriminator 1 view .LVU448
	.loc 1 71 24 is_stmt 0 discriminator 1 view .LVU449
	vldr.32	s15, .L64
	vldr.32	s13, .L64+4
	vstr.32	s15, [sp]
	.loc 1 72 3 is_stmt 1 view .LVU450
.LBE227:
	.loc 1 65 29 discriminator 2 view .LVU451
.LVL105:
	.loc 1 65 20 discriminator 1 view .LVU452
.LBB228:
	.loc 1 66 3 view .LVU453
	.loc 1 67 3 view .LVU454
	.loc 1 69 8 view .LVU455
	.loc 1 71 16 discriminator 1 view .LVU456
	.loc 1 72 34 is_stmt 0 discriminator 1 view .LVU457
	vsub.f32	s15, s13, s15
.LBE228:
	.loc 1 65 29 discriminator 2 view .LVU458
	mov	r2, #2
.LBB229:
	.loc 1 71 24 discriminator 1 view .LVU459
	vldr.32	s14, .L64+8
	vstr.32	s13, [sp, #4]
	.loc 1 72 3 is_stmt 1 view .LVU460
	.loc 1 72 14 discriminator 1 view .LVU461
	.loc 1 72 28 is_stmt 0 discriminator 1 view .LVU462
	vstr.32	s15, [sp, #512]
.LBE229:
	.loc 1 65 29 is_stmt 1 discriminator 2 view .LVU463
.LVL106:
	.loc 1 65 20 discriminator 1 view .LVU464
.LBB230:
	.loc 1 66 3 view .LVU465
	.loc 1 67 3 view .LVU466
	.loc 1 69 8 view .LVU467
.LBE230:
	.loc 1 65 20 is_stmt 0 discriminator 1 view .LVU468
	add	r3, sp, #8
.LVL107:
.L61:
.LBB231:
	.loc 1 71 16 is_stmt 1 discriminator 1 view .LVU469
	.loc 1 72 34 is_stmt 0 discriminator 1 view .LVU470
	vldr.32	s15, [r3, #-4]
	vsub.f32	s15, s14, s15
.LBE231:
	.loc 1 65 29 discriminator 2 view .LVU471
	add	r2, r2, #1
.LBB232:
	.loc 1 71 24 discriminator 1 view .LVU472
	vstr.32	s14, [r3]
	.loc 1 72 3 is_stmt 1 view .LVU473
	.loc 1 72 14 discriminator 1 view .LVU474
	.loc 1 71 6 is_stmt 0 view .LVU475
	cmp	r2, #128
.LBE232:
	.loc 1 65 20 discriminator 1 view .LVU476
	add	r3, r3, #4
.LBB233:
	.loc 1 72 28 discriminator 1 view .LVU477
	vstr.32	s15, [r3, #504]
.LBE233:
	.loc 1 65 29 is_stmt 1 discriminator 2 view .LVU478
.LVL108:
	.loc 1 65 20 discriminator 1 view .LVU479
.LBB234:
	.loc 1 66 3 view .LVU480
	.loc 1 67 3 view .LVU481
	.loc 1 69 8 view .LVU482
	.loc 1 71 3 view .LVU483
	.loc 1 71 6 is_stmt 0 view .LVU484
	bne	.L61
	.loc 1 72 14 is_stmt 1 discriminator 1 view .LVU485
	.loc 1 72 34 is_stmt 0 discriminator 1 view .LVU486
	vldr.32	s15, [sp, #508]
	vsub.f32	s14, s14, s15
.LBE234:
.LBE226:
	.loc 1 74 2 view .LVU487
	mov	r1, sp
	ldr	r0, .L64+16
.LBB236:
.LBB235:
	.loc 1 72 28 discriminator 1 view .LVU488
	vstr.32	s14, [sp, #1020]
.LBE235:
	.loc 1 65 29 is_stmt 1 discriminator 2 view .LVU489
.LVL109:
	.loc 1 65 20 discriminator 1 view .LVU490
.LBE236:
	.loc 1 74 2 view .LVU491
	bl	FogLut_FromArray
.LVL110:
	.loc 1 75 2 view .LVU492
	mov	r2, #0
	mov	r0, #5
	mov	r1, r2
	bl	C3D_FogGasMode
.LVL111:
	.loc 1 76 2 view .LVU493
	ldr	r0, .L64+20
	bl	C3D_FogColor
.LVL112:
	.loc 1 77 2 view .LVU494
	ldr	r0, .L64+16
	bl	C3D_FogLutBind
.LVL113:
	.loc 1 79 2 view .LVU495
	bl	Clouds_Init
.LVL114:
	.loc 1 80 1 is_stmt 0 view .LVU496
	add	sp, sp, #1024
	.cfi_def_cfa_offset 16
	@ sp needed
	pop	{r4, r5, r6, pc}
.LVL115:
.L65:
	.loc 1 80 1 view .LVU497
	.align	2
.L64:
	.word	0
	.word	1063675494
	.word	1065353216
	.word	.LANCHOR0
	.word	.LANCHOR0+1084
	.word	16767376
	.cfi_endproc
.LFE230:
	.size	WorldRenderer_Init, .-WorldRenderer_Init
	.section	.text.WorldRenderer_Deinit,"ax",%progbits
	.align	2
	.global	WorldRenderer_Deinit
	.syntax unified
	.arm
	.type	WorldRenderer_Deinit, %function
WorldRenderer_Deinit:
.LFB231:
	.loc 1 81 29 is_stmt 1 view -0
	.cfi_startproc
	@ args = 0, pretend = 0, frame = 0
	@ frame_needed = 0, uses_anonymous_args = 0
	.loc 1 82 2 view .LVU499
	.loc 1 81 29 is_stmt 0 view .LVU500
	push	{r4, r5, r6, r7, r8, lr}
	.cfi_def_cfa_offset 24
	.cfi_offset 4, -24
	.cfi_offset 5, -20
	.cfi_offset 6, -16
	.cfi_offset 7, -12
	.cfi_offset 8, -8
	.cfi_offset 14, -4
	.loc 1 82 26 view .LVU501
	ldr	r6, .L68
	.loc 1 82 35 discriminator 1 view .LVU502
	mov	r4, #0
	.loc 1 82 4 view .LVU503
	mov	r7, r6
	.loc 1 83 4 view .LVU504
	mov	r5, r6
	.loc 1 82 4 view .LVU505
	ldr	r0, [r7, #648]!
	bl	free
.LVL116:
	.loc 1 83 4 view .LVU506
	ldr	r0, [r5, #660]!
	.loc 1 82 35 discriminator 1 view .LVU507
	str	r4, [r6, #648]
	str	r4, [r7, #4]
	str	r4, [r7, #8]
	.loc 1 83 2 is_stmt 1 view .LVU508
	.loc 1 83 4 is_stmt 0 view .LVU509
	bl	free
.LVL117:
	.loc 1 83 40 discriminator 1 view .LVU510
	str	r4, [r6, #660]
	str	r4, [r5, #4]
	str	r4, [r5, #8]
	.loc 1 84 2 is_stmt 1 view .LVU511
	bl	Cursor_Deinit
.LVL118:
	.loc 1 86 2 view .LVU512
	bl	Hand_Deinit
.LVL119:
	.loc 1 88 2 view .LVU513
	.loc 1 89 1 is_stmt 0 view .LVU514
	pop	{r4, r5, r6, r7, r8, lr}
	.cfi_restore 14
	.cfi_restore 8
	.cfi_restore 7
	.cfi_restore 6
	.cfi_restore 5
	.cfi_restore 4
	.cfi_def_cfa_offset 0
	.loc 1 88 2 view .LVU515
	b	Clouds_Deinit
.LVL120:
.L69:
	.align	2
.L68:
	.word	.LANCHOR0
	.cfi_endproc
.LFE231:
	.size	WorldRenderer_Deinit, .-WorldRenderer_Deinit
	.section	.text.WorldRenderer_Render,"ax",%progbits
	.align	2
	.global	WorldRenderer_Render
	.syntax unified
	.arm
	.type	WorldRenderer_Render, %function
WorldRenderer_Render:
.LVL121:
.LFB233:
	.loc 1 201 38 is_stmt 1 view -0
	.cfi_startproc
	@ args = 0, pretend = 0, frame = 0
	@ frame_needed = 0, uses_anonymous_args = 0
	.loc 1 202 2 view .LVU517
	.loc 1 201 38 is_stmt 0 view .LVU518
	push	{r4, r5, lr}
	.cfi_def_cfa_offset 12
	.cfi_offset 4, -12
	.cfi_offset 5, -8
	.cfi_offset 14, -4
	.loc 1 202 2 view .LVU519
	ldr	r4, .L77
	.loc 1 201 38 view .LVU520
	sub	sp, sp, #20
	.cfi_def_cfa_offset 32
	.loc 1 202 2 view .LVU521
	ldr	r1, [r4, #672]
	add	r0, r4, #680
	bl	Camera_Update
.LVL122:
	.loc 1 204 2 is_stmt 1 view .LVU522
	.loc 1 204 57 is_stmt 0 view .LVU523
	ldr	r3, [r4, #672]
.LBB245:
.LBB246:
.LBB247:
	.file 8 "C:/devkitPro/libctru/include/c3d/uniforms.h"
	.loc 8 35 10 view .LVU524
	add	r5, r4, #808
.LBE247:
.LBE246:
.LBE245:
	.loc 1 204 2 view .LVU525
	ldr	r1, [r3, #136]
	add	r1, r1, r1, lsl #1
	add	r1, r3, r1
	ldrb	r0, [r1, #145]	@ zero_extendqisi2
	ldrb	r2, [r1, #144]	@ zero_extendqisi2
	ldrb	r1, [r1, #146]	@ zero_extendqisi2
	orr	r2, r2, r0, lsl #8
	orr	r2, r2, r1, lsl #16
	bic	r2, r2, #-16777216
	add	r1, r4, #680
	ldr	r0, [r4, #1080]
	bl	Hand_Draw
.LVL123:
	.loc 1 205 2 is_stmt 1 view .LVU526
	.loc 1 205 17 is_stmt 0 view .LVU527
	bl	Block_GetTextureMap
.LVL124:
	mov	r1, r0
	.loc 1 205 2 discriminator 1 view .LVU528
	mov	r0, #0
	bl	C3D_TexBind
.LVL125:
	.loc 1 207 2 is_stmt 1 view .LVU529
.LBB254:
.LBB252:
.LBB250:
	.loc 8 35 10 is_stmt 0 view .LVU530
	mov	lr, r5
.LBE250:
.LBE252:
.LBE254:
	.loc 1 207 2 view .LVU531
	ldr	r3, [r4, #1080]
.LVL126:
.LBB255:
.LBI245:
	.loc 8 38 20 is_stmt 1 view .LVU532
	.loc 8 40 2 view .LVU533
.LBB253:
.LBI246:
	.loc 8 30 20 view .LVU534
.LBB251:
	.loc 8 32 2 view .LVU535
	.loc 8 33 2 view .LVU536
.LBB248:
.LBI248:
	.loc 8 15 25 view .LVU537
.LBB249:
	.loc 8 17 2 view .LVU538
	.loc 8 18 2 view .LVU539
	.loc 8 18 16 discriminator 1 view .LVU540
	.loc 8 19 3 view .LVU541
	.loc 8 18 26 discriminator 3 view .LVU542
	.loc 8 18 16 discriminator 1 view .LVU543
	.loc 8 19 3 view .LVU544
	.loc 8 18 26 discriminator 3 view .LVU545
	.loc 8 18 16 discriminator 1 view .LVU546
	.loc 8 19 3 view .LVU547
	.loc 8 18 26 discriminator 3 view .LVU548
	.loc 8 18 16 discriminator 1 view .LVU549
	.loc 8 19 3 view .LVU550
	.loc 8 19 31 is_stmt 0 view .LVU551
	ldr	r2, .L77+4
	ldr	r1, .L77+8
	.loc 8 20 9 view .LVU552
	ldr	ip, .L77+12
	.loc 8 19 31 view .LVU553
	str	r1, [r2, r3]	@ unaligned
	.loc 8 18 26 is_stmt 1 discriminator 3 view .LVU554
.LVL127:
	.loc 8 18 16 discriminator 1 view .LVU555
	.loc 8 20 2 view .LVU556
	.loc 8 20 2 is_stmt 0 view .LVU557
.LBE249:
.LBE248:
	.loc 8 34 2 is_stmt 1 view .LVU558
	.loc 8 34 16 discriminator 1 view .LVU559
	.loc 8 35 10 is_stmt 0 view .LVU560
	add	ip, ip, r3, lsl #4
.LVL128:
	.loc 8 35 10 view .LVU561
	ldmia	lr!, {r0, r1, r2, r3}
.LVL129:
	.loc 8 35 10 view .LVU562
	stmia	ip!, {r0, r1, r2, r3}
.LVL130:
	.loc 8 35 10 view .LVU563
	ldmia	lr!, {r0, r1, r2, r3}
	stmia	ip!, {r0, r1, r2, r3}
.LVL131:
	.loc 8 35 10 view .LVU564
	ldmia	lr!, {r0, r1, r2, r3}
	stmia	ip!, {r0, r1, r2, r3}
.LVL132:
	.loc 8 35 10 view .LVU565
	ldm	lr, {r0, r1, r2, r3}
	stm	ip, {r0, r1, r2, r3}
.LVL133:
	.loc 8 35 10 view .LVU566
.LBE251:
.LBE253:
.LBE255:
	.loc 1 209 2 is_stmt 1 view .LVU567
	bl	renderWorld
.LVL134:
	.loc 1 211 2 view .LVU568
	.loc 1 211 60 is_stmt 0 view .LVU569
	ldr	r3, [r4, #672]
	.loc 1 211 2 view .LVU570
	ldr	r2, [r4, #676]
	vldr.32	s1, [r3, #8]
	vldr.32	s0, [r3]
	mov	r1, r5
	ldr	r0, [r4, #1080]
	bl	Clouds_Render
.LVL135:
	.loc 1 213 2 is_stmt 1 view .LVU571
	.loc 1 213 12 is_stmt 0 view .LVU572
	ldr	r2, [r4, #672]
	.loc 1 213 5 view .LVU573
	ldrb	r3, [r2, #193]	@ zero_extendqisi2
	cmp	r3, #0
	bne	.L76
	.loc 1 216 1 view .LVU574
	add	sp, sp, #20
	.cfi_remember_state
	.cfi_def_cfa_offset 12
	@ sp needed
	pop	{r4, r5, pc}
.L76:
	.cfi_restore_state
	.loc 1 214 3 is_stmt 1 view .LVU575
	ldrb	r1, [r2, #188]	@ zero_extendqisi2
	ldr	r3, [r2, #172]
	str	r1, [sp, #8]
	ldr	r1, [r2, #180]
	str	r1, [sp, #4]
	ldr	ip, [r2, #176]
	ldr	r0, [r4, #1080]
	ldr	r2, [r4, #676]
	mov	r1, r5
	str	ip, [sp]
	bl	Cursor_Draw
.LVL136:
	.loc 1 216 1 is_stmt 0 view .LVU576
	add	sp, sp, #20
	.cfi_def_cfa_offset 12
	@ sp needed
	pop	{r4, r5, pc}
.L78:
	.align	2
.L77:
	.word	.LANCHOR0
	.word	C3D_FVUnifDirty
	.word	16843009
	.word	C3D_FVUnif
	.cfi_endproc
.LFE233:
	.size	WorldRenderer_Render, .-WorldRenderer_Render
	.global	sky_time
	.bss
	.align	2
	.set	.LANCHOR0,. + 0
	.type	chunkRendered, %object
	.size	chunkRendered, 648
chunkRendered:
	.space	648
	.type	renderingQueue, %object
	.size	renderingQueue, 12
renderingQueue:
	.space	12
	.type	transparentClusters, %object
	.size	transparentClusters, 12
transparentClusters:
	.space	12
	.type	player, %object
	.size	player, 4
player:
	.space	4
	.type	world, %object
	.size	world, 4
world:
	.space	4
	.type	camera, %object
	.size	camera, 396
camera:
	.space	396
	.type	workqueue, %object
	.size	workqueue, 4
workqueue:
	.space	4
	.type	projectionUniform, %object
	.size	projectionUniform, 4
projectionUniform:
	.space	4
	.type	fogLut, %object
	.size	fogLut, 512
fogLut:
	.space	512
	.type	sky_time, %object
	.size	sky_time, 4
sky_time:
	.space	4
	.text
.Letext0:
	.file 9 "C:/devkitPro/devkitARM/arm-none-eabi/include/machine/_default_types.h"
	.file 10 "C:/devkitPro/devkitARM/arm-none-eabi/include/sys/_stdint.h"
	.file 11 "C:/Users/Elias/CLionProjects/3DSCraft/include/world/Direction.h"
	.file 12 "C:/Users/Elias/CLionProjects/3DSCraft/include/blocks/Block.h"
	.file 13 "C:/Users/Elias/CLionProjects/3DSCraft/include/misc/Xorshift.h"
	.file 14 "C:/devkitPro/devkitARM/lib/gcc/arm-none-eabi/13.2.0/include/stddef.h"
	.file 15 "C:/devkitPro/devkitARM/arm-none-eabi/include/sys/lock.h"
	.file 16 "C:/Users/Elias/CLionProjects/3DSCraft/include/rendering/VBOCache.h"
	.file 17 "C:/devkitPro/libctru/include/3ds/types.h"
	.file 18 "C:/devkitPro/libctru/include/3ds/synchronization.h"
	.file 19 "C:/devkitPro/libctru/include/3ds/services/csnd.h"
	.file 20 "C:/devkitPro/libctru/include/3ds/services/ndm.h"
	.file 21 "C:/devkitPro/libctru/include/3ds/gpu/enums.h"
	.file 22 "C:/devkitPro/libctru/include/3ds/ndsp/channel.h"
	.file 23 "C:/devkitPro/libctru/include/3ds/applets/error.h"
	.file 24 "C:/Users/Elias/CLionProjects/3DSCraft/include/blocks/Item.h"
	.file 25 "C:/Users/Elias/CLionProjects/3DSCraft/include/inventory/ItemStack.h"
	.file 26 "C:/Users/Elias/CLionProjects/3DSCraft/include/misc/Raycast.h"
	.file 27 "C:/Users/Elias/CLionProjects/3DSCraft/include/entity/Player.h"
	.file 28 "C:/devkitPro/libctru/include/c3d/types.h"
	.file 29 "C:/devkitPro/libctru/include/c3d/buffers.h"
	.file 30 "C:/devkitPro/libctru/include/c3d/texture.h"
	.file 31 "C:/devkitPro/libctru/include/c3d/fog.h"
	.file 32 "C:/Users/Elias/CLionProjects/3DSCraft/include/rendering/Camera.h"
	.file 33 "C:/Users/Elias/CLionProjects/3DSCraft/include/gui/DebugUI.h"
	.file 34 "C:/devkitPro/libctru/include/c3d/effect.h"
	.file 35 "C:/devkitPro/libctru/include/c3d/base.h"
	.file 36 "C:/Users/Elias/CLionProjects/3DSCraft/dependencies/vec/vec.h"
	.file 37 "C:/Users/Elias/CLionProjects/3DSCraft/include/rendering/Cursor.h"
	.file 38 "C:/Users/Elias/CLionProjects/3DSCraft/include/rendering/Clouds.h"
	.file 39 "C:/Users/Elias/CLionProjects/3DSCraft/include/rendering/Hand.h"
	.file 40 "C:/devkitPro/devkitARM/arm-none-eabi/include/stdlib.h"
	.file 41 "C:/devkitPro/devkitARM/arm-none-eabi/include/string.h"
	.file 42 "<built-in>"